uc:_glClearStencil
wQh:_UInt16_System_IConvertible_ToChar_m2096055221_AdjustorThunk
MTf:_MaskableGraphic_OnCanvasHierarchyChanged_m1780820310
Deh:_Array_TrueForAll_TisRuntimeObject_m1084992726_gshared
z7j:__ZN6il2cpp2vm5Array13GetByteLengthEP11Il2CppArray
$Fi:_Array_InternalArray__set_Item_TisDateTime_t3738529785_m1331437427_gshared
Xij:_KeyBuilder_get_Rng_m3373220441
Dya:__Z30GetIntermediateRendererManagerv
mSa:__Z21SourceMipLevelForBlitiiii
wEa:__ZN31CanvasBatchIntermediateRenderer15AddAsRenderNodeER15RenderNodeQueueRK20DeprecatedSourceData
KNh:_TimeSpan_get_Hours_m550761902
Lic:__ZN9ShaderLab9SubShader15FindNamedPassesERKN4core12basic_stringIcNS1_20StringStorageDefaultIcEEEER13dynamic_arrayIPNS_4PassELj0EE
Moe:__ZL63PlayableOutputHandle_t4208053793_CustomAttributesCacheGeneratorP21CustomAttributesCache
F_:__ZN11UnityEngine15CloudWebService26CloudServiceEventWithParam12ToJsonStringER9JSONWrite
FJe:_UnmanagedMemoryStream_Write_m930787521
dpc:__Z59Register_UnityEngine_PlayerConnectionInternal_DisconnectAllv
kkj:_AnalyticsEventTracker_SendEvent_m1365958832
bs:__ZN11UnityEngine9Animation28GenericAnimationBindingCacheD2Ev
r9i:_X509Store_LoadCrl_m1881903843
AIi:_Array_Sort_TisUICharInfo_t75501106_TisUICharInfo_t75501106_m722747892_gshared
F8b:__Z18RestoreRenderStateR20CameraRenderOldStateR17ShaderPassContext
Vyb:__Z18Transfer_BlittableI18StreamedBinaryReadILb1EELb1E5RectTIfEEvRK29SerializationCommandArgumentsR31RuntimeSerializationCommandInfo
Iub:__Z18Transfer_BlittableI24GenerateTypeTreeTransferLb0E11ColorRGBA32EvRK29SerializationCommandArgumentsR31RuntimeSerializationCommandInfo
NDb:__Z25scripting_class_from_name17ScriptingImagePtrPKcS1_
pFi:_Array_InternalArray__Insert_TisSingle_t1397266774_m3161726127_gshared
$Tj:__ZN14dense_hash_mapI10KeyWrapperINSt3__24pairIPK12PropertyInfoP11Il2CppClassEEEj17ReflectionMapHashIS8_ENS9_14EqualsComparerINS1_8equal_toIS8_EEEENS1_9allocatorINS2_IKS9_jEEEEE15set_deleted_keyERSH_
FFb:__Z29scripting_class_enum_basetype17ScriptingClassPtr
rJc:__ZN6IDList10BeginOnGUIEv
Y$j:__ZN6il2cpp2vm9Exception25RaiseOutOfMemoryExceptionERKNS_5utils10StringViewIDsEEP19Il2CppSequencePoint
Eka:__ZL43__ManagedRegistrationHelperFunction_TexturePv
Y5e:_InternalEnumerator_1_get_Current_m1477715453_gshared
wcb:__ZNK20LocalFileSystemPosix6ParentERK13FileEntryDataRN4core12basic_stringIcNS3_20StringStorageDefaultIcEEEE
Tie:__ZL118TouchScreenKeyboard_t731888065_CustomAttributesCacheGenerator_TouchScreenKeyboard_Open_m3609399077____textPlaceholder6P21CustomAttributesCache
X$i:_Collection_1_System_Collections_IList_Remove_m1476284619_gshared
RLe:_MonoType_IsPrimitiveImpl_m2401722705
Fbg:_SHA1CryptoServiceProvider__ctor_m4195188793
Sna:__ZN9Scripting11UnityEngine9Profiling8Recorder12CleanupProxyEv
VCb:__ZN18StreamedBinaryReadILb0EE21TransferSTLStyleArrayI13dynamic_arrayI11ColorRGBA32Lj0EEEEvRT_17TransferMetaFlags
OCd:_Dropdown_Hide_m504034854
$Sa:__ZN9Texture2D25CreateScaledAndPaddedDataEPP17SharedTextureDataS2_
Edh:_Array_InternalArray__ICollection_Remove_TisLink_t3209266973_m897088622_gshared
cMf:_Vector2_get_up_m2647420593
uPb:__ZN7ApiGLES17CopyBufferSubDataEjjlll
Bkh:_Array_InternalArray__ICollection_CopyTo_TisUInt64_t4134040092_m691431926_gshared
Xog:_IPAddress_ToString_m1181734207
fJh:_StringBuilder_Append_m1965104174
sLc:__ZN5Unity9rapidjson15GenericDocumentINS0_4UTF8IcEE13JSONAllocatorS4_E11ParseStreamILj1ES3_NS0_25GenericInsituStringStreamIS3_EEEERS5_RT1_
kxh:_EqualityComparer_1__cctor_m3766928733_gshared
o9h:_UnityAction_1_Invoke_m610765085_gshared
KBg:_Array_GetValue_m116098292
I$f:_Kernel_modInverse_m652700340
Mxe:__ZL57CanvasRenderer_t2598313366_CustomAttributesCacheGeneratorP21CustomAttributesCache
zKc:__ZN5IMGUI18RepaintModalWindowER8GUIState
qBa:__ZNK15dense_hashtableINSt3__24pairIKN9ShaderLab7Program23ShaderKeywordSetAndHashEPKNS2_10SubProgramEEES4_NS3_24ShaderKeywordHashFunctorEN14dense_hash_mapIS4_S8_SA_NS0_8equal_toIS4_EE13stl_allocatorIS9_L18MemLabelIdentifier67ELi16EEE9SelectKeyESD_SG_E23find_position_with_hashERS5_j
AMg:_CompareInfo_Finalize_m404687489
gXa:__Z23SetSpriteMeshIndexCountP14SharedMeshDataj
jLh:_UTF8Decoder_GetChars_m1236346907
nbk:__ZN6il2cpp8metadata13GenericMethod9GetMethodEPK19Il2CppGenericMethod
Nq:__ZNSt3__26vectorIN4core12basic_stringIcNS1_20StringStorageDefaultIcEEEENS_9allocatorIS5_EEE7reserveEj
uQe:_Default_SelectProperty_m1220817815
Ojf:_RemotingConfiguration_IsRemotelyActivatedClientType_m4117048589
bLf:_Transform_TransformPoint_m226827784
tLb:__ZN13GfxDeviceGLES11SetViewportERK5RectTIiE
iGc:__Z24Time_Get_Custom_PropTimev
Nd:_emscripten_glDepthRange
R3i:_SslStreamBase_BeginNegotiateHandshake_m4180435790
QWc:__ZN9Scripting11UnityEngine10UILineInfo12CleanupProxyEv
Yac:__ZNSt3__26vectorINS_4pairIN4core12basic_stringIcNS2_20StringStorageDefaultIcEEEES6_EE13stl_allocatorIS7_L18MemLabelIdentifier38ELi16EEE12__move_rangeEPS7_SC_SC_
kfc:__Z14resize_trimmedINSt3__26vectorIN9ShaderLab20SerializedSubProgram12UAVParameterENS0_9allocatorIS4_EEEEEvRT_j
yLc:__ZN5Unity9rapidjson13GenericReaderINS0_4UTF8IcEES3_13JSONAllocatorE11ParseObjectILj1ENS0_25GenericInsituStringStreamIS3_EENS0_15GenericDocumentIS3_S4_S4_EEEEvRT0_RT1_
mxd:_StandaloneInputModule_GetRawMoveVector_m2737091079
iEe:__ZL62Selectable_t3250028441_CustomAttributesCacheGenerator_m_ColorsP21CustomAttributesCache
i1g:_Convert_ToDateTime_m2616935982
GNb:__ZThn10632_N13GfxDeviceGLES22SetScissorRectPlatformERK5RectTIiE
z4i:_SslStreamBase_EndWrite_m4073224031
yaa:__ZNSt3__218__insertion_sort_3IRNS_6__lessI14ObjectLoadDataS2_EEPS2_EEvT0_S6_T_
_ka:__ZL50__ManagedRegistrationHelperFunction_PostLateUpdatePv
PRa:__ZN4crndL20crnd_default_reallocEPvjPjbS0_
oYa:__ZN18SpriteAtlasManager19AddRequestingSpriteE4PPtrI6SpriteE
K7b:__ZN23ScriptableRenderContextC2Ev
DFd:_GridLayoutGroup_get_spacing_m2409263614
mHh:_List_1_CheckIndex_m581273900_gshared
m7c:_UNITY_FT_Stream_GetChar
uzb:__Z18Transfer_BlittableI18StreamedBinaryReadILb1EELb1EdEvRK29SerializationCommandArgumentsR31RuntimeSerializationCommandInfo
MFb:__Z26BuildSerializationCacheFor17ScriptingClassPtrRb
pRb:__ZN7ApiGLES15BlitFramebufferEN2gl6HandleILNS0_10ObjectTypeE9EEENS0_15FramebufferReadES3_S3_iiiiiiiiNS0_15FramebufferTypeE
fpi:__Z112RuntimeInvoker_RuntimeObject_RuntimeObject_RuntimeObject_RuntimeObject_RuntimeObject_RuntimeObject_RuntimeObjectPFvvEPK10MethodInfoPvPS4_
l5e:_InternalEnumerator_1_System_Collections_IEnumerator_get_Current_m3553395619_AdjustorThunk
eoe:__ZL60ReadOnlyAttribute_t3518714744_CustomAttributesCacheGeneratorP21CustomAttributesCache
BBg:_Array_SetValue_m3998268557
TRc:__ZN8JSONRead8TransferI8Vector4fEEvRT_PKc17TransferMetaFlagsb
Xzd:_ColorBlock_set_highlightedColor_m2089444414_AdjustorThunk
HHf:_RectTransform_INTERNAL_set_anchoredPosition_m939517950
G7f:_Context_EndSwitchingSecurityParameters_m4148956166
x2c:_otv_PairPos_validate
qy:__ZN7mecanim9animation14CopyHumanPosesEPKNS0_18AnimationNodeStateEPS1_RKNS_6bitsetILj83EEE
gMj:__ZN6il2cpp6icalls8mscorlib6SystemL8IsStaticEPK12PropertyInfo
RGb:__Z9InitInputv
r4c:_UNITY_tt_face_build_cmaps
xPj:__ZN6il2cpp2gc19AppendOnlyGCHashMapINSt3__24pairIPK10MethodInfoP11Il2CppClassEEP22Il2CppReflectionMethod17ReflectionMapHashIS9_ENS2_8equal_toIS9_EEE3AddERKS9_SB_
vgb:__ZN16MemoryFileSystem6DeleteER13FileEntryDatab
Qji:__Z81RuntimeInvoker_Void_t1185182177_RuntimeObject_Int64_t3736567304_Int32_t2950945753PFvvEPK10MethodInfoPvPS4_
xIh:_List_1_set_Item_m1979164443_gshared
Qih:_Array_InternalArray__ICollection_Add_TisLink_t3209266973_m77922316_gshared
XOa:__ZL21BlitScaleStbImageImplRK14ImageReferenceRS_NS_10ColorSpaceE
QDg:_Boolean_System_IConvertible_ToUInt16_m3465173538_AdjustorThunk
Is:__ZL48__ManagedRegistrationHelperFunction_SkeletonBonePv
EOf:_InputField_get_keyboardType_m1248105267
yqb:__Z29Transfer_Blittable_ArrayFieldI14SafeBinaryReadyEvRT_R9ArrayInfoRK23StaticTransferFieldInfo
HQ:__ZN20SoundChannelInstance15setChannelGroupEPN4FMOD12ChannelGroupE
baj:_Match__ctor_m2425511580
Qqh:_KeyPairPersistence_Remove_m1876145547
ic:invoke_vifffii
Peb:__ZNK25MultiBlocksMemoryFileData5CloneEv
_gk:_GC_add_ext_descriptor
ONj:__ZNK15dense_hashtableINSt3__24pairIK10KeyWrapperINS1_IPK14Il2CppAssemblyP11Il2CppClassEEEjEES9_17ReflectionMapHashIS8_EN14dense_hash_mapIS9_jSD_NS9_14EqualsComparerINS0_8equal_toIS8_EEEENS0_9allocatorISB_EEE9SelectKeyESI_SK_E23find_position_with_hashERSA_j
xKi:_LayoutGroup_SetProperty_TisSingle_t1397266774_m793506911_gshared
qpf:_CryptoConfig_CreateFromName_m1538277313
prk:dynCall_iiiiiiiiiiii
op:__ZN9Scripting11UnityEngine2AI18NavMeshBuildSource9InitProxyEv
POf:_InputField_set_caretPositionInternal_m3823580651
gjd:__ZN18UnityConnectClient16IsServiceEnabledEv
Fqa:__ZN9Scripting11UnityEngine10ColorGamut9InitProxyEv
Vgb:__ZN22VertexDeclarationCacheD0Ev
LYf:_Selectable_set_interactable_m3105888815
LEa:__ZL26KeywordSetToStringDontSortRKNSt3__26vectorIN4core12basic_stringIcNS1_20StringStorageDefaultIcEEEENS_9allocatorIS5_EEEERS5_
tha:__ZN6prcoreL17RemapGenericFloatI16TexFormatRGFloat17TexFormatRGBAHalfEEvPKNS_9InnerInfoE
IS:__ZN12AudioManager22CreateFMODSoundFromWWWEP10IWWWStream15FMOD_SOUND_TYPE17FMOD_SOUND_FORMATjjbbP10SampleClip
dxc:__ZNK32RendererMaterialAnimationBinding15GenerateBindingERKN4core12basic_stringIcNS0_20StringStorageDefaultIcEEEEbRN11UnityEngine9Animation14GenericBindingE
uNd:_TargetException__ctor_m4172127019
QPi:_List_1_CheckCollection_m274117203_gshared
Lye:__ZL70EventSystem_t1003666588_CustomAttributesCacheGenerator_m_FirstSelectedP21CustomAttributesCache
L8:__ZN8Remapper23GetOrGenerateInstanceIDERK26SerializedObjectIdentifier
JAd:_ColorTween_get_startColor_m3792586410_AdjustorThunk
glb:__ZN11TextureData17GetImageReferenceEii
zOe:_CustomInfo__ctor_m426096741
Jtd:_EventSystem_ToString_m3779610692
yXa:__ZN6Sprite8TransferI24GenerateTypeTreeTransferEEvRT_
Kqc:__Z48Register_UnityEngine_Transform_SetAsFirstSiblingv
nOa:__ZNK18DelayedCallManager22GetTypeVirtualInternalEv
DXa:__ZN7SubMesh8TransferI24GenerateTypeTreeTransferEEvRT_
dAj:_NativeTypeAttribute__ctor_m133676646
mUh:_Collection_1_System_Collections_IList_Contains_m296643274_gshared
$Ug:_DirectoryInfo__ctor_m126519516
MJd:_MethodBase_GetMethodFromIntPtr_m3014201362
pqc:__ZN9Transform23SetSiblingIndexInternalEib
zOc:__ZN9JSONWrite8TransferI13dynamic_arrayIaLj0EEEEvRT_PKc17TransferMetaFlags
H_g:_Enumerator_MoveNext_m635366482
vyg:_X509Extension_Equals_m1222951829
Gw:__ZN7mecanim5human12HumanPoseSubERNS0_9HumanPoseERKS1_S4_
U4j:__ZN6il2cpp8metadata15GenericMetadata15GetGenericClassEiPK17Il2CppGenericInst
Zob:__Z18Transfer_BlittableI14SafeBinaryReadLb0E10Matrix4x4fEvRK29SerializationCommandArgumentsR31RuntimeSerializationCommandInfo
bFb:__Z24GetFixedBehaviourManagerv
cLj:__ZN6il2cpp2vm10ThreadPool4WaitEP17Il2CppAsyncResultPPv
Qxg:_PKCS12_Encrypt_m2617413749
b9i:_X509Crl_VerifySignature_m1377612461
Dmk:_vfprintf
$Kc:__ZN10GUIManager12AddGUIScriptER8ListNodeI13MonoBehaviourE
nma:__ZL53__ManagedRegistrationHelperFunction_StackTraceUtilityPv
X_g:_Stack_Clear_m2010200235
h$c:_cf2_getVStore
zvd:_PointerEventData_set_pointerPressRaycast_m1363193059
IZb:__ZN20DynamicPropertySheetD0Ev
VPd:_SafeHandle_Dispose_m4229010569
abc:__ZN14SafeBinaryRead17RegisterConverterEPKcS1_PFbPvRS_E
xhe:__ZL77RuntimePlatform_t4159857903_CustomAttributesCacheGenerator_OSXDashboardPlayerP21CustomAttributesCache
$0:__ZN35RegisterRuntimeInitializeAndCleanup8RegisterEPFvPvES2_iS0_
H6i:_SubjectAltNameExtension_get_IPAddresses_m1641002124
vTe:_FieldBuilder_SetValue_m828035213
k5h:__ZN28GenericInterfaceFuncInvoker0IfE6InvokeEPK10MethodInfoP12Il2CppObject
wGc:__Z21Object_CUSTOM_DestroyP12Il2CppObjectf
rWb:__ZN8Material26ResetAllCachedMaterialDataEP6Shader
Jni:__Z63RuntimeInvoker_Void_t1185182177_RuntimeObject_Int16_t2552820387PFvvEPK10MethodInfoPvPS4_
y7c:_UNITY_TT_Get_MM_Var
Nmf:_ObjectManager_AddFixup_m2154325362
u7e:_Comparer_1__cctor_m3761458313_gshared
b7g:_DateTimeOffset_CompareTo_m1350732322_AdjustorThunk
aa:invoke_diddi
jcd:__ZNK2UI6Canvas13GetRenderModeEv
zxf:_PersistentCall__ctor_m1217622171
Fgh:_Array_compare_TisCustomAttributeTypedArgument_t2723150157_m1384644047_gshared
Ash:_StrongName_get_TokenAlgorithm_m1794722022
iob:__Z18Transfer_BlittableI14SafeBinaryReadLb0EiEvRK29SerializationCommandArgumentsR31RuntimeSerializationCommandInfo
QIj:__ZN6il2cpp2vm13MetadataCache30GetPropertyDefinitionFromIndexEi
djj:_SymmetricTransform_Transform_m1683494363
jmd:__ZN22BaseUnityConnectClient17InitializeSessionERKN4core12basic_stringIcNS0_20StringStorageDefaultIcEEEES6_N19CloudServiceHandler13InitModeFlagsE
__d:__ZL56KeyCollection_t4251528776_CustomAttributesCacheGeneratorP21CustomAttributesCache
Qti:__Z74RuntimeInvoker_RuntimeObject_Int32_t2950945753_RuntimeObject_RuntimeObjectPFvvEPK10MethodInfoPvPS4_
EVi:_List_1_get_Item_m200663048_gshared
gxk:_emscripten_glDeleteBuffers__wrapper
mDc:__ZN13MonoBehaviour34StopCoroutineFromEnumeratorManagedE18ScriptingObjectPtr
Rs:__ZN9Scripting11UnityEngine9HumanBone12CleanupProxyEv
sTc:__ZN11UnityEngine9Analytics18SceneLoadTimeEvent12SetSceneLoadERKN4core12basic_stringIcNS2_20StringStorageDefaultIcEEEEiyyyy
C4a:__ZN30RuntimeInitializeOnLoadManager8TransferI18StreamedBinaryReadILb0EEEEvRT_
R0g:_DateTimeOffset__ctor_m2084804982
U3c:_UNITY_tt_face_load_pclt
$mc:__ZL34GetComponentsImplementationRecurseILb1ELi0ELi2EEbR10GameObjectbRK17CompareParametersRK39GetComponentsImplementation_ReturnValue
bCg:_Array_Sort_m3698291233
tAf:_Material_GetTexture_m3545614349
Aei:__Z64RuntimeInvoker_RuntimeObject_Int32_t2950945753_Int16_t2552820387PFvvEPK10MethodInfoPvPS4_
byh:_EqualityComparer_1__cctor_m4244842342_gshared
bZb:__ZNK6Camera18WorldToScreenPointERK8Vector3fPb
UIf:_SendMouseEvents_DoSendMouseEvents_m2140870850
Wgd:__ZN14UnityAnalyticsD0Ev
bbj:_PatternCompiler_EmitJump_m3915926156
QKb:__Z18IsCompressedFormat14GraphicsFormat
_w:__ZN7mecanim9animation19AdjustPoseForMotionERKNS0_14AvatarConstantERKNS0_14SkeletonTQSMapERKN4math4trsXERNS_10ValueArrayERNS_8skeleton13SkeletonPoseTIS8_EESG_
zLd:_MonoMethod_GetBaseDefinition_m2844667474
ZNh:__Z33il2cpp_codegen_check_add_overflowxx
P6:__ZNSt3__227__insertion_sort_incompleteIRPFbRKN18AwakeFromLoadQueue4ItemES4_EPS2_EEbT0_S9_T_
Fhe:__ZL73RuntimePlatform_t4159857903_CustomAttributesCacheGenerator_MetroPlayerARMP21CustomAttributesCache
sUg:_InvalidOperationException__ctor_m1685032583
QGj:__ZN14dense_hash_mapI10KeyWrapperIN6il2cpp5utils13dynamic_arrayIPK10Il2CppTypeLj4EEEEPFvvENS1_8metadata19Il2CppSignatureHashENS8_14EqualsComparerINSB_22Il2CppSignatureCompareEEENSt3__29allocatorINSG_4pairIKS8_SA_EEEEE15set_deleted_keyERSJ_
FOh:_TimeSpan_op_Subtraction_m3592306516
$zh:_EqualityComparer_1_System_Collections_IEqualityComparer_GetHashCode_m1517903420_gshared
fWa:__ZN26EnlightenSystemInformation8TransferI14SafeBinaryReadEEvRT_
q5a:__ZN24GenerateTypeTreeTransfer8TransferINSt3__26vectorIN15ResourceManager10DependencyE13stl_allocatorIS4_L18MemLabelIdentifier52ELi16EEEEEEvRT_PKc17TransferMetaFlags
cxj:_CanvasRenderer_SplitUIVertexStreams_m2753637362
pvi:__Z119RuntimeInvoker_Void_t1185182177_RuntimeObject_Single_t1397266774_Single_t1397266774_SByte_t1669577662_Int32_t2950945753PFvvEPK10MethodInfoPvPS4_
bAa:__ZN27PerObjectLightCullingOutputD2Ev
V0a:__ZN12MeshRendererD0Ev
TT:__ZN12AudioManager35GetCurrentSpatializerDefinitionNameEv
Cma:__ZN9Scripting11UnityEngine14WaitForSeconds9InitProxyEv
yh:_utime
Hoe:__ZL56PlayableGraph_t3515989261_CustomAttributesCacheGeneratorP21CustomAttributesCache
udj:_BalancingGroup_Compile_m2575117193
jVj:__ZNSt3__26vectorIN6il2cpp2vm17TypeNameParseInfoENS_9allocatorIS3_EEE8allocateEj
Ws:__ZN9Scripting11UnityEngine22AnimatorTransitionInfo9InitProxyEv
Y9i:_Mark_get_Index_m3048692661_AdjustorThunk
on:FUNCTION_TABLE_viiiiif
W6e:_DefaultComparer_Compare_m3931992727_gshared
tn:FUNCTION_TABLE_viiiiii
P5e:_InternalEnumerator_1_System_Collections_IEnumerator_get_Current_m1847780851_AdjustorThunk
Vhj:_GUILayoutUtility_get_spaceStyle_m3392862907
cgg:_SecurityException_ToString_m3228070608
S0g:_DateTimeOffset__ctor_m74032857
Kyg:_SmallXmlParser_Error_m3899025466
ZF:__ZN7mecanim9animation22DestroyAvatarWorkspaceEPNS0_15AvatarWorkspaceERNS_6memory9AllocatorE
zPh:_Type_type_is_assignable_from_m76737532
_Hc:__ZN9Scripting11UnityEngine14GUILayoutGroup12CleanupProxyEv
fOa:__ZN14PlayableOutput17SetSourcePlayableEP8Playable
u4a:__ZNSt3__26vectorIN4core12basic_stringIcNS1_20StringStorageDefaultIcEEEE13stl_allocatorIS5_L18MemLabelIdentifier13ELi16EEE8__appendEj
AF:__ZN7mecanim9animation29MotionOutputGetDeltaTransformEPKNS0_12MotionOutputE
rTc:__ZN27PerformanceReportingManager21OnSceneTimingCallbackERK15SceneLoadTimingRKN4core12basic_stringIcNS3_20StringStorageDefaultIcEEEE
Wpc:__Z43Transform_CUSTOM_INTERNAL_get_localRotationP12Il2CppObjectP11Quaternionf
hNg:_CultureInfo_get_Parent_m672689885
vhk:__ZN6il2cpp6icalls8mscorlib6System10Reflection4Emit13ModuleBuilder13RegisterTokenEP29Il2CppReflectionModuleBuilderP12Il2CppObjecti
lvk:_glGetShaderInfoLog__wrapper
$pe:__ZL63SpriteBone_t303320096_CustomAttributesCacheGenerator_m_ParentIdP21CustomAttributesCache
bi:_emscripten_glGetTexParameteriv
Aka:__ZL49__ManagedRegistrationHelperFunction_ComputeBufferPv
ujd:__ZN11UnityEngine7Connect15DeviceInfoEvent7GFXInfoD2Ev
Jwk:_glGenTextures__wrapper
Hfc:__ZN9ShaderLab20SerializedSubProgram14ConstantBufferaSERKS1_
cLa:__ZN8PlayableD0Ev
vg:emscriptenWebGLGetBufferBinding
gM:__ZN12AudioManager8TransferI19StreamedBinaryWriteILb0EEEEvRT_
mZf:_Slider_UpdateCachedReferences_m3259451627
cmi:__Z50RuntimeInvoker_Double_t594665363_Double_t594665363PFvvEPK10MethodInfoPvPS4_
TZj:__ZN15dense_hashtableINSt3__24pairIK10KeyWrapperINS1_IP11Il2CppClassjEEES4_EES6_N6il2cpp8metadata14ArrayClassHashEN14dense_hash_mapIS6_S4_SB_NS6_14EqualsComparerINSA_17ArrayClassCompareEEENS0_9allocatorIS8_EEE9SelectKeyESF_SH_E6insertERKS8_
jDd:_U3CShowU3Ec__AnonStorey1_U3CU3Em__0_m2340880019
mmd:__ZN22BaseUnityConnectClient38PrepareConfigRequestOnMainThreadStaticEPS_
W5i:_TlsStream_Flush_m3793197834
ibb:__ZN22LocalFileSystemHandler9MakeLocalER13FileEntryDatab
Qck:__ZN6il2cpp2vm8Profiler10AllocationEP12Il2CppObjectP11Il2CppClass
bCe:__ZL61Graphic_t1660335611_CustomAttributesCacheGenerator_m_MaterialP21CustomAttributesCache
Kga:__Z13FormatOrderedPKcz
DMj:__ZN6il2cpp2vm8basepathEPKc
R3e:_InternalEnumerator_1_get_Current_m1506120701_AdjustorThunk
usg:_X509Chain_GetAuthorityKeyIdentifier_m614536199
lXc:__ZN14SafeBinaryRead21TransferSTLStyleArrayI10vector_mapINSt3__24pairIttEEfN20TextRenderingPrivate8FontImpl14KerningCompareENS2_9allocatorINS3_IS4_fEEEEEEEvRT_17TransferMetaFlags
t6f:_TlsServerFinished__ctor_m1445633918
rOe:_NumberFormatter_FastIntegerToString_m390846811
QSf:__ZN21InterfaceFuncInvoker0IfE6InvokeEjP11Il2CppClassP12Il2CppObject
m0a:__ZN14CompressedMesh10GetQualityE15MeshCompression
z4b:__ZN25DeferredRenderLoopScratchD0Ev
gz:__ZN27AnimationLayerMixerPlayable14SetInputWeightEif
Ari:__Z83RuntimeInvoker_Void_t1185182177_RuntimeObject_Single_t1397266774_Single_t1397266774PFvvEPK10MethodInfoPvPS4_
cvd:_PhysicsRaycaster_Raycast_m776323695
DLf:_UnityException__ctor_m1456865679
Cw:__ZN7mecanim9animation17EvaluateHumanPoseERKNS0_18ClipMuscleConstantERKNS0_15ClipMuscleInputEPKfRKNS0_12MotionOutputERNS_5human9HumanPoseE
Sec:__ZN15dense_hashtableINSt3__24pairIKiN4core17string_with_labelILi1EEEEEi18SInt32HashFunctionN14dense_hash_mapIiS5_S7_NS0_8equal_toIiEE13stl_allocatorIS6_L18MemLabelIdentifier1ELi16EEE9SelectKeyESA_SD_E9copy_fromERKSG_j
TQe:_CustomAttributeNamedArgument_GetHashCode_m2317130892
N4a:__ZN15ResourceManagerD0Ev
DBa:__ZN22CreateGpuProgramOutputD2Ev
IUi:_List_1_get_Item_m1378751541_gshared
Hbg:_SHA1CryptoServiceProvider_Finalize_m1793183797
X$g:_Convert_ToByte_m4146281512
IBh:_HashSet_1_System_Collections_Generic_ICollectionU3CTU3E_CopyTo_m408073502_gshared
E2f:_EncryptedPrivateKeyInfo_get_EncryptedData_m491452551
xbb:__ZN12HandlerChain4OpenER13FileEntryData14FilePermission16FileAutoBehavior
Bjh:_Array_InternalArray__ICollection_Add_TisPlayerLoopSystem_t105772105_m1930641144_gshared
qBi:__Z72RuntimeInvoker_Void_t1185182177_Int32_t2950945753_RaycastHit_t1056001966PFvvEPK10MethodInfoPvPS4_
BPj:__ZN15dense_hashtableINSt3__24pairIK10KeyWrapperINS1_IPK10MethodInfoP11Il2CppClassEEEjEES9_17ReflectionMapHashIS8_EN14dense_hash_mapIS9_jSD_NS9_14EqualsComparerINS0_8equal_toIS8_EEEENS0_9allocatorISB_EEE9SelectKeyESI_SK_E6insertERKSB_
VK:__ZL55__ManagedRegistrationHelperFunction_AudioPlayableOutputPv
DTc:__ZN27PerformanceReportingManager29OnSceneLoadedAfterAwakeStaticEPS_iR18AwakeFromLoadQueueN19RuntimeSceneManager11LoadingModeE
zBg:_Array_SetValue_m394135409
T9:__ZN14FileCacherReadD2Ev
H7a:__ZN13RendererScene23UpdatePreviousFrameDataEii
vCf:_MonoBehaviour_StopCoroutine_m615723318
Jmc:__Z50Register_UnityEngine_CullingGroup_FinalizerFailurev
veg:_SecurityPermission_IsSubsetOf_m545000671
Jjc:__ZN12ShaderErrors11ShaderErrorC2EOS0_
npk:__ZNKSt3__221__basic_string_commonILb1EE20__throw_out_of_rangeEv
_vf:_Cursor_get_lockState_m2828192107
hKj:_UpdatedEventHandler_Invoke_m1320302085
mjg:_String_Format_m630303134
vS:__ZN9AudioClip23VirtualRedirectTransferER18StreamedBinaryReadILb0EE
VG:__ZN26AnimatorOverrideController23VirtualRedirectTransferER24GenerateTypeTreeTransfer
dVi:_List_1_AddEnumerable_m2724989594_gshared
hui:__Z82RuntimeInvoker_Vector2_t2156229523_Vector2_t2156229523_RuntimeObject_RuntimeObjectPFvvEPK10MethodInfoPvPS4_
ZEc:__Z70Register_UnityEngine_Playables_PlayableHandle_GetPlayableType_Injectedv
x1f:_ARC4Managed_TransformBlock_m1687647868
Cj:_glCopyTexSubImage2D
ILf:_UnitySynchronizationContext_ExecuteTasks_m1310741010
e3i:_RIPEMD160Managed_CompressFinal_m497690796
wGb:__ZN18ScreenManagerWebGL13SetShowCursorEb
tUb:__ZN13DrawImmediateC2ER9GfxDevice
bEa:__ZN18VertexChannelsInfoC2ERA12_K11ChannelInfo
Ucd:__ZN2UI13CanvasManager14GetRenderOrderEPKNS_6CanvasE
Vob:__Z18Transfer_BlittableI14SafeBinaryReadLb0E5RectTIfEEvRK29SerializationCommandArgumentsR31RuntimeSerializationCommandInfo
vOe:_NumberFormatter_NumberToString_m2562899600
F2c:_otv_u_C_x_Ox
oVc:__ZL44__ManagedRegistrationHelperFunction_ColliderPv
xxk:_emscripten_glGenVertexArrays__wrapper
STh:_Version_Clone_m1749041863
xPa:__ZN6prcoreL21CreateRemapAnyBlitterE13TextureFormatS0_
g3f:_RSAManaged_ExportParameters_m1754454264
GBc:__ZN17AnimationCurveTplIfE16StripInvalidKeysEv
aEg:_Boolean_Equals_m535526264_AdjustorThunk
cdd:__ZNK2UI6Canvas17GetSortingLayerIDEv
BCc:__ZL12HashLen0to16PKcj
hXj:_il2cpp_method_has_attribute
AVa:__ZN8Renderer24SetupNewRendererForSceneEv
tPh:_Type_internal_from_name_m1721940673
AXj:_il2cpp_type_get_class_or_element_class
Xbh:_Environment_get_TickCount_m2088073110
pkf:_RemotingServices_GetMethodBaseFromName_m3194612939
bQc:__Z35Transfer_Blittable_FixedBufferFieldI8JSONReadtEvRK29SerializationCommandArgumentsR31RuntimeSerializationCommandInfo
Fzc:__ZN14PlayableOutput6HandleEv
MWa:__ZNK6Sprite22GetTypeVirtualInternalEv
Rpa:__ZN9Scripting11UnityEngine12Experimental9Playables22MaterialEffectPlayable9InitProxyEv
nn:FUNCTION_TABLE_iiiiiiiiiiiiii
$zj:_NativePropertyAttribute__ctor_m2033094153
w3c:_UNITY_tt_get_cmap_info
Cag:_SslClientStream_RaiseServerCertificateValidation_m3477149273
Jvb:__Z29Transfer_Blittable_ArrayFieldI24GenerateTypeTreeTransfer5RectTIiEEvRT_R9ArrayInfoRK23StaticTransferFieldInfo
AGa:__ZN16ReflectionProbes8ScheduleEN18ReflectionProbeJob7JobTypeEP15ReflectionProbei
x6f:_ClientSessionInfo_KeepAlive_m1020179566
$aa:__ZN16MessageForwarder13HandleMessageEPviR11MessageData
Ycb:__Z18IsDirectoryCreatedRKN4core12basic_stringIcNS_20StringStorageDefaultIcEEEE
heg:_String_FormatHelper_m3913915042
abd:__ZN2UI13CanvasManagerD2Ev
yQe:_ConstructorInfo__cctor_m1016079270
CDj:__ZN15dense_hashtableINSt3__24pairIK10KeyWrapperIPKcEP11Il2CppClassEES5_N6il2cpp5utils11StringUtils12StringHasherIS4_EEN14dense_hash_mapIS5_S8_SE_NS5_14EqualsComparerINSB_13VmStringUtils21CaseSensitiveComparerEEENS0_9allocatorIS9_EEE9SelectKeyESJ_SL_E15set_deleted_keyERKS9_
wzg:_AttrListImpl_get_Names_m977594476
RQe:_CustomAttributeData_GetHashCode_m3727773664
DZc:_UNITY_FT_GlyphLoader_Done
lga:__ZNSt3__23mapIiN11TypeManager18TypeCallbackStructENS_4lessIiEENS_9allocatorINS_4pairIKiS2_EEEEEixERS7_
mNd:_Pointer_Box_m389276611
snb:__ZNK17InstancingBatcher15RenderInstancesERK19ShaderPropertySheetRKNS_22RenderInstancesConfigsERK11MeshBuffersRK16DrawBuffersRange16VertexInputMasks
V9g:_StackTrace_get_FrameCount_m344690939
H9:__ZN13dynamic_arrayIcLj0EE6insertEPcPKcS3_
qJe:_UnexceptionalStreamWriter_Write_m363195622
w4c:_tt_cmap14_char_var_index
CPf:_Selectable_OnPointerDown_m1086067264
B8c:_psh_globals_new
DCd:_Dropdown_SetupTemplate_m628218778
pLh:_Thread_GetCompressedStack_m2923422412
iBf:_Matrix4x4_MultiplyPoint3x4_m4145063176
Jqg:_X509BasicConstraintsExtension_ToString_m1809935297
chb:__ZN9GfxDevice20SetMaxBufferedFramesEi
Obi:_TweenRunner_1_StartTween_m1055628540_gshared
JZh:_ReadOnlyCollection_1_System_Collections_IList_Remove_m4129318771_gshared
jKi:_GameObject_GetComponents_TisRuntimeObject_m1246177135_gshared
Frk:dynCall_vdd
iKe:_MethodAccessException__ctor_m3542088436
vcc:__Z23ConvertIntegerToTypePtrIsEbPvR14SafeBinaryRead
ut:__ZN9Scripting11UnityEngine10Animations26AnimatorControllerPlayable9InitProxyEv
vmd:__ZN11UnityEngine7Connect13ConfigHandler13ConfigChangedERKN4core12basic_stringIcNS2_20StringStorageDefaultIcEEEEb
vxh:_EqualityComparer_1_System_Collections_IEqualityComparer_GetHashCode_m2230215241_gshared
iFe:__ZL60ContentSizeFitter_t3850442145_CustomAttributesCacheGeneratorP21CustomAttributesCache
DKg:_Hashtable_Contains_m2145146412
Dja:__ZN6prcoreL29inner_stretch_rgb565_bilinearEPKNS_9InnerInfoE
nDa:__Z26TransformVerticesInnerLoopILb0ELb0ELb1EEvPhRK10Matrix4x4fRK10Matrix3x3fjPKhiS8_ii25GfxTransformVerticesFlagsj
DRg:_Int32_FindCurrency_m3541026887
Awg:_Interval_CompareTo_m3282557545
vyk:_pthread_cond_wait__wrapper
G3b:__ZNK14RenderSettings19GetFlatAmbientColorEv
ICa:__ZN8DrawUtil24DrawMeshRawFromNodeQueueERK15RenderNodeQueuej16VertexInputMasksi
E3a:__ZN18StreamedBinaryReadILb0EE21TransferSTLStyleArrayI10vector_mapIPKN5Unity4TypeE7Hash128NSt3__24lessIS6_EENS8_9allocatorINS8_4pairIS6_S7_EEEEEEEvRT_17TransferMetaFlags
dB:__ZNK27StateMachineBehaviourPlayer15IsSenderEnabledEv
cQj:__ZN6il2cpp2gc19AppendOnlyGCHashMapINSt3__24pairIPK11Il2CppImageP11Il2CppClassEEP22Il2CppReflectionModule17ReflectionMapHashIS9_ENS2_8equal_toIS9_EEE11TryGetValueERKS9_PSB_
P2i:_RijndaelManagedTransform_TransformBlock_m1610137419
Eqc:__Z40Register_UnityEngine_Transform_SetParentv
OOa:__ZN14Texture2DArray17UploadToGfxDeviceEv
dO:__Z14FMODMemoryFreePvjPKc
Kpa:__ZN9Scripting11UnityEngine12Experimental10PlayerLoop11FixedUpdate12CleanupProxyEv
sxf:_NetFxCoreExtensions_GetMethodInfo_m444570327
kPh:_Type_get_IsSystemType_m624798880
LBf:_Mesh_SetNormals_m2521889643
O$c:_cf2_glyphpath_moveTo
gEc:__Z51Register_UnityEngine_Texture_get_texelSize_Injectedv
CJf:_StackTraceUtility_SetProjectFolder_m830524047
Dx:__ZN7mecanim23TransformValueArrayLoopEiiiRKN4math4trsXES3_RNS_10ValueArrayEf
M6f:_ClientSessionInfo_Finalize_m2165787049
AKc:__ZN5IMGUI14GUIWindowStateD2Ev
J5f:_ClientContext_Clear_m1774063253
X2a:__ZN26PlayerSettingsSplashScreen16CheckConsistencyEv
ZAc:__ZN4Mesh17SetIndicesComplexEPKvjj16GfxPrimitiveTypeij
n6g:_DateTime_AddSeconds_m332574389_AdjustorThunk
pLf:_RequestAtlasCallback_Invoke_m378128467
DEg:_Byte_System_IConvertible_ToSByte_m1869482168
dki:__Z99RuntimeInvoker_RuntimeObject_RuntimeObject_RuntimeObject_StreamingContext_t3711869237_RuntimeObjectPFvvEPK10MethodInfoPvPS4_
tkj:_AnalyticsEventTracker_Awake_m2780522130
FE:__ZN7mecanim5human10RetargetToEPKNS0_5HumanEPKNS0_9HumanPoseES6_RKN4math4trsXEPS4_PNS_8skeleton13SkeletonPoseTIS8_EESF_
wx:__ZN7mecanim9animation8SeekClipERKNS0_12StreamedClipERNS0_18StreamedClipMemoryEf
dzf:_GameObject_Internal_AddComponentWithType_m3797731663
lm:_emscripten_glIsTexture
Sk:_emscripten_glHint
xjj:_Check_SourceAndPredicate_m2332465641
k7c:_ft_var_readpackeddeltas
Ryb:__Z35Transfer_Blittable_FixedBufferFieldI18StreamedBinaryReadILb1EEtEvRK29SerializationCommandArgumentsR31RuntimeSerializationCommandInfo
ERh:_UInt32_System_IConvertible_ToInt64_m2261037378
om:_SDL_UpperBlit
vGa:__Z35GetTextureDecodeValuesWithIntensity16TextureUsageMode17TextureColorSpace10ColorSpacef
fcj:_Parser_ParseRepetitionBounds_m1246581246
Cdh:_Array_InternalArray__ICollection_Remove_TisChar_t3634460470_m4143749387_gshared
HUb:__ZN15dense_hashtableINSt3__24pairIK9TextureIDiEES2_14GfxGenericHashIS2_EN14GfxDoubleCacheIS2_iS6_NS0_8equal_toIS2_EEN31GfxDoubleCacheConcurrencyPolicy11LocklessGetE42GfxDoubleCacheDefaultEmptyDeletedGeneratorIS2_EE9SelectKeyES9_13stl_allocatorIS4_L18MemLabelIdentifier24ELi16EEE14squash_deletedEv
fsc:__Z13RegisterClassI14Texture2DArrayEvPKc
Slg:_Encoding_GetBytes_m3823106599
sMg:_GregorianCalendar__ctor_m979779718
bag:_SslClientStream__ctor_m2402546929
kFb:__ZN14SafeBinaryRead20OverrideRootTypeNameEPKc
Rmg:_DictionaryNodeEnumerator_get_Entry_m2309234501
X9:__ZN14FileCacherRead16UnlockCacheBlockEj
uH:__ZN26AnimatorOverrideController8TransferI24GenerateTypeTreeTransferEEvRT_
c4:__ZN10InstancingL21OnGraphicsCapsChangedEv
Yme:__ZL101SystemInfo_t3561985952_CustomAttributesCacheGenerator_SystemInfo_GetOperatingSystemFamily_m1440411909P21CustomAttributesCache
sNh:_WaitHandle_get_Handle_m3260446580
YEh:_Enumerator_VerifyState_m1745883925_AdjustorThunk
Gc:_emscripten_glUniform1f
a_g:_SortedList__ctor_m1261191695
mYj:__ZN6il2cpp2vm6Thread28GetThreadStaticDataForThreadEiP12Il2CppThread
o_c:__Z20ParseImageParametersR11UTF16StringRiRN20TextRenderingPrivate16TextFormatChangeE
ZEe:__ZL55CanvasScaler_t2767979955_CustomAttributesCacheGeneratorP21CustomAttributesCache
Lc:_emscripten_glUniform1i
eub:__Z18Transfer_BlittableI24GenerateTypeTreeTransferLb1EN4math12int3_storageEEvRK29SerializationCommandArgumentsR31RuntimeSerializationCommandInfo
PVf:__Z14bankers_roundff
uY:__ZN11UnityEngine15CloudWebService16SessionContainer20RestoreSessionHeaderERKN4core12basic_stringIcNS2_20StringStorageDefaultIcEEEES8_RNS0_13SessionHeaderE
njk:__ZN6il2cpp2os12Cryptography23GetCryptographyProviderEv
pu:__ZN11UnityEngine9Animation27CreateAvatarBindingConstantER9TransformPKN7mecanim9animation14AvatarConstantERNS3_6memory9AllocatorE
tji:__Z151RuntimeInvoker_RuntimeObject_Int32_t2950945753_RuntimeObject_ObjectU5BU5DU26_t712384779_RuntimeObject_RuntimeObject_RuntimeObject_ObjectU26_t2146539884PFvvEPK10MethodInfoPvPS4_
ghd:__ZN8JSONRead19TransferSTLStyleMapINSt3__23mapIN4core12basic_stringIcNS3_20StringStorageDefaultIcEEEEN11UnityEngine9Analytics16LimitEventConfigENS1_4lessIS7_EE13stl_allocatorINS1_4pairIKS7_SA_EEL18MemLabelIdentifier6ELi16EEEEEEvRT_17TransferMetaFlags
xDc:__ZN9BlobWriteC2ER13dynamic_arrayIhLj16EE24TransferInstructionFlags19BuildTargetPlatform
mzd:_CanvasUpdateRegistry__ctor_m2005397069
d8:__ZN14MessageHandler3GetEv
DKd:_MonoMethodInfo_GetCallingConvention_m3156036493
Oyf:_SupportedRenderingFeatures_FallbackMixedLightingModeByRef_m3859171964
_c:_emscripten_glAttachShader
c2:__Z40DebugStringToFilePostprocessedStacktraceRK21DebugStringToFileData
eHd:_Image__cctor_m1927508576
_gc:__ZNSt3__26vectorIN4core12basic_stringIcNS1_20StringStorageDefaultIcEEEENS_9allocatorIS5_EEE6assignIPS5_EENS_9enable_ifIXaasr21__is_forward_iteratorIT_EE5valuesr16is_constructibleIS5_NS_15iterator_traitsISC_E9referenceEEE5valueEvE4typeESC_SC_
OUa:__ZThn32_N8Renderer15AddAsRenderNodeER15RenderNodeQueueRK20DeprecatedSourceData
dRb:__ZN13dynamic_arrayIN18GlslGpuProgramGLES9GLProgramELj0EE6insertEPS1_jRKS1_
T5e:_InternalEnumerator_1_get_Current_m3331252162_AdjustorThunk
Cob:__Z18Transfer_BlittableI14SafeBinaryReadLb0E11QuaternionfEvRK29SerializationCommandArgumentsR31RuntimeSerializationCommandInfo
_Bb:__Z18Transfer_BlittableI18StreamedBinaryReadILb0EELb1E12PropertyNameEvRK29SerializationCommandArgumentsR31RuntimeSerializationCommandInfo
M1:_tlsf_walk_heap
iji:__Z49RuntimeInvoker_Void_t1185182177_OpCode_t123070264PFvvEPK10MethodInfoPvPS4_
kte:__ZL59AnimatorClipInfo_t3156717155_CustomAttributesCacheGeneratorP21CustomAttributesCache
v4g:_Convert_ToUInt32_m3592050311
gb:invoke_vif
_Ji:_Component_GetComponents_TisRuntimeObject_m2416546752_gshared
hb:invoke_vid
Fpk:__ZNSt3__212basic_stringIcNS_11char_traitsIcEENS_9allocatorIcEEE6insertEjPKc
jb:invoke_vii
bPe:_Random_Sample_m2289397474
Pua:__ZN12TLSAllocatorI14StackAllocatorE16ThreadInitializeEP13BaseAllocator
Iki:__Z82RuntimeInvoker_Boolean_t97287965_SByte_t1669577662_RuntimeObject_SByte_t1669577662PFvvEPK10MethodInfoPvPS4_
nhb:__ZN9GfxDevice32UpdateStereoViewProjectionMatrixE21MonoOrStereoscopicEye
M_:__Z29GetCloudWebServicesModuleSpecv
Zdd:__Z41CanvasRenderer_CUSTOM_DisableRectClippingP12Il2CppObject
uLe:_MonoType_GetConstructorImpl_m441167626
Cka:__ZL45__ManagedRegistrationHelperFunction_CoroutinePv
u_i:_Collection_1_IsFixedSize_m3709118201_gshared
Afb:__ZN25SingleBlockMemoryFileDataD0Ev
lK:__ZNSt3__26vectorI14ConstantStringNS_9allocatorIS1_EEE6assignINS_11__wrap_iterIPS1_EEEENS_9enable_ifIXaasr21__is_forward_iteratorIT_EE5valuesr16is_constructibleIS1_NS_15iterator_traitsISA_E9referenceEEE5valueEvE4typeESA_SA_
pY:__ZN11UnityEngine15CloudWebService16SessionContainer21ConvertFromFolderTimeERKN4core12basic_stringIcNS2_20StringStorageDefaultIcEEEEPjPt
Yof:_CodeAccessPermission_Equals_m1555575992
mqb:__ZNSt3__26vectorI8GUIStyle13stl_allocatorIS1_L18MemLabelIdentifier1ELi16EEE7reserveEj
e$j:__ZN6il2cpp6icalls8mscorlib6System9Threading6Thread27GetSerializedCurrentCultureEP12Il2CppThread
h7f:_Context_set_ReadSequenceNumber_m2154909392
K2i:_RijndaelTransform_SubByte_m3037693507
Gtc:__Z31CalculateHierarchyTransformType23TransformAccessReadOnly
FN:__ZN4FMOD8ChannelI11setPositionEjj
Jzf:_Input_INTERNAL_CALL_GetTouch_m3481893561
bfk:_GC_set_fl_marks
h4a:__ZNSt3__26vectorIN30RuntimeInitializeOnLoadManager15ClassMethodInfoE13stl_allocatorIS2_L18MemLabelIdentifier13ELi16EEE7reserveEj
qhb:__ZN9GfxDevice17SetStereoViewportE15StereoscopicEyeRK5RectTIiE
bga:__ZN17BaseObjectManager13StaticDestroyEPv
F0:__GLOBAL__sub_I_Runtime_Graphics_Mesh_1_cpp
Pwj:_CanvasRenderer_INTERNAL_CALL_GetColor_m597074473
G7e:_Comparer_1__cctor_m3891417387_gshared
HKh:_UTF7Decoder_GetChars_m3413809261
nT:__ZN12AudioManager14UpdateListenerERK8Vector3fS2_S2_S2_
USe:_EnumBuilder_GetEvent_m4074915332
NKf:_Vector3_get_forward_m3100859705
HL:__ZN4FMOD6Reverb13setPropertiesEPK22FMOD_REVERB_PROPERTIES
r_b:__ZN9DepthPass13PrepareSubsetEjRK10RenderNodeifRK17ShaderReplaceData
iig:_String_IndexOf_m3406607758
Qfc:__ZN9ShaderLab20SerializedSubProgram16TextureParameter8TransferI14SafeBinaryReadEEvRT_
k3c:_otv_BaseCoord_validate
fBc:__Z35SetMeshComponentFromArrayFromScriptR4Mesh30InternalScriptingShaderChannel34InternalScriptingVertexChannelTypei17ScriptingArrayPtri
ejh:_Array_InternalArray__ICollection_Add_TisCustomAttributeNamedArgument_t287865710_m4157175270_gshared
Gq:__ZN4core20StringStorageDefaultIcE6assignEPKcj
JSh:_UInt64_System_IConvertible_ToUInt64_m2135047981_AdjustorThunk
$$f:_BigInteger_ModPow_m3776562770
v6j:__ZN15dense_hashtableINSt3__24pairIK10KeyWrapperIP12Il2CppObjectEN6il2cpp2gc9CachedCCWEEES5_NS7_5utils11PointerHashIS3_EEN14dense_hash_mapIS5_S9_SD_NS5_14EqualsComparerINS0_8equal_toIS4_EEEENS0_9allocatorISA_EEE9SelectKeyESI_SK_E3endEv
rld:__ZNSt3__26__treeINS_12__value_typeIN4core12basic_stringIcNS2_20StringStorageDefaultIcEEEE14CallbackArray3IRKS6_R8JSONReadbEEENS_19__map_value_compareIS6_SD_NS_4lessIS6_EELb1EEE13stl_allocatorISD_L18MemLabelIdentifier6ELi16EEE25__emplace_unique_key_argsIS6_JNS_4pairIS6_SC_EEEEENSN_INS_15__tree_iteratorISD_PNS_11__tree_nodeISD_PvEEiEEbEERKT_DpOT0_
i9f:_RecordProtocol_ProcessChangeCipherSpec_m15839975
NGg:_ArrayList_IndexOf_m305368842
r8b:__ZN6Camera6SetFarEf
llf:_FormatterConverter_ToBoolean_m1680758923
nja:__ZN6prcoreL12RemapGenericI17TexFormatABGR888817TexFormatARGB8888EEvPKNS_9InnerInfoE
mva:__ZN11GameManager17MainThreadCleanupEv
IXh:_ReadOnlyCollection_1__ctor_m1345363288_gshared
Gdd:__Z50Register_UnityEngine_UISystemProfilerApi_EndSamplev
mmf:_SerializationCallbacks_GetSerializationCallbacks_m2939476649
Y5c:_UNITY_tt_slot_init
$Vb:__ZZ23InitPlayerLoopCallbacksvEN41PostLateUpdateUpdateResolutionRegistrator7ForwardEv
PDb:__Z25scripting_array_class_get17ScriptingClassPtrj
cOc:__ZL22Transfer_ManagedObjectI9JSONWriteLb1EEvRK29SerializationCommandArgumentsR31RuntimeSerializationCommandInfo
gS:__ZNK10SampleClip22GetTypeVirtualInternalEv
iib:__ZN9GfxDevice20DestroyRenderSurfaceER12ObjectHandleI17RenderSurface_TagP17RenderSurfaceBaseE
R_g:_Stack__ctor_m2602729586
sCg:_Array_slow_swapper_m4116724811
j7b:__ZN12_GLOBAL__N_15qAsinEff
RZe:_InternalEnumerator_1_System_Collections_IEnumerator_get_Current_m2629988057_AdjustorThunk
Qua:__ZN12TLSAllocatorI14StackAllocatorE13ThreadCleanupEv
JZa:__ZN14SafeBinaryRead21TransferSTLStyleArrayI13dynamic_arrayI8Vector4fLj0EEEEvRT_17TransferMetaFlags
CTh:_ValueType_InternalEquals_m1384040357
Hck:__ZThn4_N6il2cpp2vm13ComObjectBase16MarshalInterfaceEP13Il2CppIStreamRK10Il2CppGuidPvjS7_j
g2g:_Convert_ToDouble_m996590115
Hdc:__Z27FindActiveTransformWithPathPKc
e0h:_ReadOnlyCollection_1_System_Collections_IList_Remove_m4169110229_gshared
iRh:_UInt16_ToString_m3020002356
tSf:_LayoutRebuilder_LayoutComplete_m68578143
Hhj:_GUIStyle_get_fixedWidth_m2576616348
q_g:_SortedList_Find_m3363512987
y0b:__ZNK6Camera7GetNearEv
CTe:_GenericTypeParameterBuilder_GetConstructorImpl_m863833310
qbf:_Enumerator_get_Current_m3687673883_AdjustorThunk
vcd:__ZN2UI13CanvasManager8SortListEv
MQb:__ZN7ApiGLES11UnmapBufferEjN2gl12BufferTargetE
Yck:__ZN6il2cpp5utilsL24Utf32CharToSurrogatePairEjRA2_Ds
CRa:__Z25GetNextAllowedTextureSizeib13TextureFormat
GGb:__ZN20LocalFileSystemWebGL4CopyER13FileEntryDataS1_
v$:__ZN19CloudServiceHandler6RetainEv
yYh:_ReadOnlyCollection_1_System_Collections_IList_IndexOf_m198887188_gshared
qvi:__Z71RuntimeInvoker_Vector2_t2156229523_Vector2_t2156229523_Rect_t2360479859PFvvEPK10MethodInfoPvPS4_
zIc:__Z36Event_CUSTOM_Internal_SetNativeEventPv
XJh:_UTF32Encoding_GetBytes_m3180303867
i_h:_ReadOnlyCollection_1_System_Collections_IList_Clear_m2007013334_gshared
I8a:__Z34scripting_liveness_calculation_endPv
fFg:_Char_GetDataTablePointers_m754571594
m9j:__ZN6il2cpp2os6ThreadC2Ev
Qvc:__ZN28ReflectionProbeAnchorManager7CleanupEv
p7g:_DateTimeOffset_get_UtcDateTime_m1021718282_AdjustorThunk
Rw:__ZN21AnimationClipPlayable22ProcessAnimationNoClipEPK35AnimationPlayableEvaluationConstantPK32AnimationPlayableEvaluationInputP33AnimationPlayableEvaluationOutput
mmg:_HybridDictionary_get_Count_m1166314536
R5i:_TlsStream_Write_m1412844442
FPc:__Z18Transfer_BlittableI8JSONReadLb0E8Vector3fEvRK29SerializationCommandArgumentsR31RuntimeSerializationCommandInfo
_Af:_Matrix4x4__ctor_m53065545_AdjustorThunk
PXj:__ZN6il2cpp2vm6Thread6DetachEP12Il2CppThread
s6i:_GeneralNames_get_DNSNames_m3788548987
Q8c:_Render_Single_Pass
zuj:_Hacker_OnUserInput_m1095014035
Ycg:_SymmetricAlgorithm_get_IV_m1875559108
Vka:__ZL56__ManagedRegistrationHelperFunction_TextureMixerPlayablePv
Du:__ZN7mecanim8skeleton30SkeletonBuildReverseIndexArrayEPiPKiPKNS0_8SkeletonES6_
WIc:__Z19GetGUIBlendMaterialv
ZJe:_Math_Round_m3018379666
cak:__ZN6il2cpp2os10ThreadImpl5SleepEjb
AYh:_ReadOnlyCollection_1_System_Collections_IList_Remove_m1965826685_gshared
gmd:__ZN22BaseUnityConnectClient12IsNewSessionEv
Ave:__ZL82LayoutCache_t78309876_CustomAttributesCacheGenerator_LayoutCache__ctor_m3885940174P21CustomAttributesCache
o9g:_Delegate_CreateDelegate_m1051651521
Keh:_PlayableHandle_IsPlayableOfType_TisRuntimeObject_m503495943_AdjustorThunk
Zwk:_glBindSampler__wrapper
hVb:__ZNSt3__26vectorIN20ArchiveStorageHeader12StorageBlockE13stl_allocatorIS2_L18MemLabelIdentifier55ELi16EEE8__appendEj
Gf:_emscripten_set_mouseup_callback
SAf:_Mathf_Clamp_m3350697880
Vki:__Z165RuntimeInvoker_Void_t1185182177_UInt32U26_t3735378166_Int32_t2950945753_UInt32U26_t3735378166_Int32_t2950945753_Int32_t2950945753_Int32_t2950945753_Int32_t2950945753PFvvEPK10MethodInfoPvPS4_
MHh:_List_1_System_Collections_IList_Remove_m3140917266_gshared
Ltg:_X509ChainElementCollection_System_Collections_IEnumerable_GetEnumerator_m3829089536
zGb:__ZNK18ScreenManagerWebGL8GetWidthEv
UNh:_TimeSpan_get_TotalHours_m306507525_AdjustorThunk
dS:__ZN10SampleClipD2Ev
V6h:_Predicate_1_Invoke_m2389850270_gshared
a8a:__Z13GetGISettingsv
f$:__ZN11UnityEngine15CloudWebService20WebRequestRestClientC2Ev
x1c:_cff_cmap_unicode_init
Och:_Array_InternalArray__ICollection_Contains_TisRuntimeObject_m4067783231_gshared
ika:__ZL60__ManagedRegistrationHelperFunction_AssemblyIsEditorAssemblyPv
ZYi:_Collection_1_IsValidItem_m3080586124_gshared
Ozd:_ClipperRegistry_Register_m2407166513
fok:_readlink
wRj:__ZN15dense_hashtableINSt3__24pairIK10KeyWrapperINS1_IPK9EventInfoP11Il2CppClassEEEjEES9_17ReflectionMapHashIS8_EN14dense_hash_mapIS9_jSD_NS9_14EqualsComparerINS0_8equal_toIS8_EEEENS0_9allocatorISB_EEE9SelectKeyESI_SK_E12resize_deltaEjj
yKd:_MonoCMethod_Invoke_m2700167622
GZg:_KeyMarker__cctor_m2590194914
okk:__ZN6il2cpp2os13SemaphoreImplC2Eii
V_a:__ZNK6Sprite9GetBoundsE8Vector2fbb
Qza:__ZNK19RenderEventsContext21CleanupCommandBuffersEv
Wvj:_TextGenerator_PopulateWithErrors_m1222498386
k$h:_ReadOnlyCollection_1_System_Collections_Generic_ICollectionU3CTU3E_Clear_m2102011098_gshared
lOb:__ZN11ContextGLES6CreateEi
cPi:_List_1_set_Capacity_m3382070520_gshared
TQf:_U3CMouseDragOutsideRectU3Ec__Iterator1_Dispose_m267465418
R8g:_Decimal_CompareTo_m3502307243_AdjustorThunk
PCb:__Z19TransferField_ArrayI18StreamedBinaryReadILb0EE27Converter_SimpleNativeClassI17AnimationCurveTplIfEEEvRK23StaticTransferFieldInfoR31RuntimeSerializationCommandInfoRT0_
iva:__ZN14StackAllocator16FrameMaintenanceEb
fUa:__Z18ReadStringFromFilePN4core17string_with_labelILi1EEERKNS_12basic_stringIcNS_20StringStorageDefaultIcEEEE
yOc:__ZN9JSONWrite8TransferI13dynamic_arrayIjLj0EEEEvRT_PKc17TransferMetaFlags
Iaa:__ZNK10GameObject20QueryComponentByTypeEPKN5Unity4TypeE
i8g:_Decimal_System_IConvertible_ToInt32_m1488426794_AdjustorThunk
AKe:_MonoCustomAttrs_IsUserCattrProvider_m2878058089
JCe:__ZL71InputField_t3762917431_CustomAttributesCacheGenerator_m_HideMobileInputP21CustomAttributesCache
lQa:__ZN11TextureData5ResetEv
Nnc:__Z53Register_UnityEngine_GameObject_get_activeInHierarchyv
tdg:_ToBase64Transform_InternalTransformFinalBlock_m360524956
Dzg:_ActivationContext_Dispose_m2038725770
O5:__ZL30InitializeCoreScriptingClassesv
aGa:__ZN15SerializeTraitsI12fixed_bitsetILi28EjEE8TransferI18StreamedBinaryReadILb0EEEEvRS1_RT_
Dg:_glBlitFramebuffer
bsb:__Z35Transfer_Blittable_SingleValueFieldI14SafeBinaryReadhEvRT_R17GeneralMonoObjectRK23StaticTransferFieldInfo
gOh:_TimeSpan_Duration_m2963553230
Dkc:__ZN12CachedWriter15CompleteWritingEv
tQa:__ZNK12CubemapArray22GetTypeVirtualInternalEv
Kn:FUNCTION_TABLE_vif
Ln:FUNCTION_TABLE_vid
Nn:FUNCTION_TABLE_vii
T8a:__Z40scripting_liveness_calculation_from_root18ScriptingObjectPtrPv
NKa:__ZN7Texture23VirtualRedirectTransferER24GenerateTypeTreeTransfer
IYc:_UNITY_FT_Set_Transform
h5j:__ZN6il2cpp8metadata15GenericMetadata20RegisterGenericClassEP18Il2CppGenericClass
Cwk:_glDeleteFramebuffers__wrapper
rhi:__Z220RuntimeInvoker_Boolean_t97287965_RuntimeObject_Int32U26_t1369213839_Int32_t2950945753_Int32_t2950945753_Int32_t2950945753_RuntimeObject_SByte_t1669577662_Int32_t2950945753_ContractionU26_t961830454_ContextU26_t3937453398PFvvEPK10MethodInfoPvPS4_
yph:_BitConverterLE_GetUIntBytes_m949779219
H$c:_cff_blend_build_vector
Npg:_WebHeaderCollection_ToString_m1263025316
frc:__Z26Input_CUSTOM_GetButtonDownP12Il2CppString
GMd:_GetterAdapter_Invoke_m3767885970
dQi:_List_1__ctor_m747758800_gshared
_jg:_String_CreateString_m2818852475
lxj:_CanvasRenderer_get_hasMoved_m2236392341
ZCf:_MessageEvent__ctor_m1231650089
Tab:__ZNK15Lz4Decompressor16DecompressMemoryEPKvPjPvS2_
nza:__Z11IsCoroutine18ScriptingMethodPtrRK22CommonScriptingClasses
okc:__ZN4core8hash_mapINS_12basic_stringIcNS_20StringStorageDefaultIcEEEE10vector_setI4PPtrI11SpriteAtlasENSt3__24lessIS8_EE13stl_allocatorIS8_L18MemLabelIdentifier81ELi16EEENS_4hashIS4_EENS9_8equal_toIS4_EEEixERKS4_
yNa:__Z35UnityPropertySheet_MakeSortedColorsRKNSt3__23mapIN9ShaderLab16FastPropertyNameE10ColorRGBAfNS_4lessIS2_EENS_9allocatorINS_4pairIKS2_S3_EEEEEER10vector_mapIS2_S3_S5_NS6_INS7_IS2_S3_EEEEE
An:FUNCTION_TABLE_iiiiiiffiiiiiiiiiffffiii
O3c:_UNITY_tt_face_load_os2
Nkh:_Array_InternalArray__ICollection_CopyTo_TisUICharInfo_t75501106_m4268526610_gshared
wrb:__Z29Transfer_Blittable_ArrayFieldI14SafeBinaryRead8Vector4fEvRT_R9ArrayInfoRK23StaticTransferFieldInfo
X7j:__GLOBAL__sub_I_BoehmGC_cpp
RG:__ZNK26AnimatorOverrideController22GetTypeVirtualInternalEv
mQe:_Default_check_arguments_m3882727959
bLh:_UTF8Encoding_GetMaxCharCount_m3762459613
tRe:_ModuleBuilder_RegisterToken_m4166846047
SVb:__ZZ23InitPlayerLoopCallbacksvEN51PostLateUpdateUpdateCustomRenderTexturesRegistrator7ForwardEv
CUf:_RawImage_OnPopulateMesh_m1115858855
mJj:__ZN6il2cpp2vm13MetadataCache25GetStringLiteralFromIndexEi
cAg:_Hashtable_ToPrime_m33531354
ox:__ZN7mecanim9animation12EvaluateClipEPKNS0_4ClipEPKNS0_9ClipInputEPNS0_10ClipMemoryEPNS0_10ClipOutputE
SUh:_Collection_1_IsSynchronized_m1117613618_gshared
uV:__ZN11AudioModule6UpdateEv
Xbf:_KeyCollection_System_Collections_Generic_ICollectionU3CTKeyU3E_Remove_m2555909644_gshared
Wuj:_Keyboard_WarnIfTerminalNotConneced_m1063217717
nQh:_TypeInitializationException__ctor_m3546444694
Xpc:__ZNK9Transform16GetLocalRotationEv
h_:__ZN11UnityEngine15CloudWebService23WebRequestUploadHandler17ConsumeUploadDataEj
Kvi:__Z68RuntimeInvoker_Void_t1185182177_Single_t1397266774_SByte_t1669577662PFvvEPK10MethodInfoPvPS4_
RXg:_MemoryStream_set_Position_m3169779190
l7b:__ZN13RenderManager29SetCurrentCameraAndStackStateEP6CameraP25CameraStackRenderingState
Iud:_ExecuteEvents_get_scrollHandler_m2659345019
Jva:__ZNSt3__26__treeINS_12__value_typeIjN4core12basic_stringIcNS2_20StringStorageDefaultIcEEEEEENS_19__map_value_compareIjS7_NS_4lessIjEELb1EEE13stl_allocatorIS7_L18MemLabelIdentifier7ELi16EEE7destroyEPNS_11__tree_nodeIS7_PvEE
$Zj:__ZN15dense_hashtableINSt3__24pairIK10KeyWrapperINS1_IP11Il2CppClassjEEES4_EES6_N6il2cpp8metadata14ArrayClassHashEN14dense_hash_mapIS6_S4_SB_NS6_14EqualsComparerINSA_17ArrayClassCompareEEENS0_9allocatorIS8_EEE9SelectKeyESF_SH_E12resize_deltaEjj
Sh:_JS_WebRequest_Release
gne:__ZL85Time_t2420636075_CustomAttributesCacheGenerator_Time_t2420636075____time_PropertyInfoP21CustomAttributesCache
RY:__ZN11UnityEngine15CloudWebService14DataErrorEventD0Ev
l1j:__ZN6il2cpp6icalls8mscorlib6System4Type20internal_from_handleEi
ZRd:_Context__ctor_m254302079
Ppa:__ZN9Scripting11UnityEngine12Experimental9Playables20TextureMixerPlayable9InitProxyEv
nTa:__ZN19ShaderPropertySheet16SetArrayPropertyEN9ShaderLab16FastPropertyNameENS_12PropertyTypeEPKvj
wWf:_Selectable_FindSelectable_m2348614027
flg:_DecoderReplacementFallbackBuffer_GetNextChar_m2858228391
lDd:_DropdownItem_OnPointerEnter_m1492957598
jbd:__ZN2UI11CanvasGroup23VirtualRedirectTransferER19StreamedBinaryWriteILb0EE
Tqa:__ZN9Scripting11UnityEngine9BoundsInt9InitProxyEv
xkd:__ZN11UnityEngine15PlatformWrapper16GetApplicationIdEv
d6c:_UNITY_TT_Get_VMetrics
utg:_X509Chain__cctor_m993507223
aIg:_SimpleEnumerator__cctor_m2844299657
HJe:_LocalDataStoreSlot__ctor_m4104083971
y0h:_ReadOnlyCollection_1_System_Collections_Generic_IListU3CTU3E_RemoveAt_m3849058645_gshared
Anj:_AudioSource_ReadExtensionName_m725112169
s8i:_X509CertificateEnumerator_System_Collections_IEnumerator_Reset_m2039524926
doi:__Z128RuntimeInvoker_Void_t1185182177_RuntimeObject_BooleanU26_t4125257963_SByte_t1669577662_Int32U26_t1369213839_Int32U26_t1369213839PFvvEPK10MethodInfoPvPS4_
kLa:__ZN7Texture21GetMasterTextureLimitEv
S1a:__ZN13dynamic_arrayI9InputAxisLj0EE18resize_initializedEj12ResizePolicy
d9b:__Z12CanAddScriptR10GameObject17ScriptingClassPtrPS1_S2_
vUj:__ZN6il2cpp2vm10Reflection12HasAttributeEP12Il2CppObjectP11Il2CppClass
E3h:_Comparison_1_BeginInvoke_m3263247262_gshared
I4:__ZN9ShaderLabL25StaticInitializeShaderLabEPv
U:Math_max
sFe:__ZL64HorizontalLayoutGroup_t2586782146_CustomAttributesCacheGeneratorP21CustomAttributesCache
nWj:_il2cpp_class_get_methods
SSc:__GLOBAL__sub_I_artifacts_WebGL_codegenerator_0_cpp_3495
hub:__Z18Transfer_BlittableI24GenerateTypeTreeTransferLb0EN4math12int2_storageEEvRK29SerializationCommandArgumentsR31RuntimeSerializationCommandInfo
U9g:_StackTrace_get_trace_m1194606084
hhg:_Single_CompareTo_m2785801815_AdjustorThunk
u9j:__ZN6il2cpp2os6Thread16GetCurrentThreadEv
Pld:__ZN11UnityEngine7Connect20RemoteConfigSettings10UnregisterEv
HFi:_Array_InternalArray__Insert_TisUILineInfo_t4195266810_m3191124053_gshared
dlc:__ZN10GameObject13ComponentPair15SetComponentPtrEPN5Unity9ComponentE
Vuk:_glBlitFramebuffer__wrapper
Pva:__ZN10TagManager8TransferI19StreamedBinaryWriteILb0EEEEvRT_
n8a:__ZN11PreloadData23VirtualRedirectTransferER18StreamedBinaryReadILb0EE
ora:__ZN9Scripting11UnityEngine24AssemblyIsEditorAssembly12CleanupProxyEv
nFg:_Char_System_IConvertible_ToDateTime_m3564102661
MK:__ZN13RuntimeStaticINSt3__26vectorI12WebCamDeviceNS0_9allocatorIS2_EEEELb0EE13StaticDestroyEPv
KWa:__ZN6Sprite17MainThreadCleanupEv
cvk:_glBlendFuncSeparate__wrapper
FP:__ZN10AudioMixer14UpdateMuteSoloEv
RAa:__ZN12BaseRenderer25FlattenSharedMaterialDataILb0EEEbRKS_R22PerThreadPageAllocatorR10RenderNode
fxa:__ZN9Transform35SetLocalPositionWithoutNotificationERKN4math7_float3Ey
wje:__ZL101MonoBehaviour_t3962482529_CustomAttributesCacheGenerator_MonoBehaviour_StartCoroutine_Auto_m594129169P21CustomAttributesCache
Ti:_JS_Eval_ClearTimeout
Kmb:__ZN7ApiGLES16SetPatchVerticesEi
Qdj:_CharacterClass_Compile_m3296067317
Y8j:__ZN6il2cpp2gc16GarbageCollector16InvokeFinalizersEv
CEg:_Byte_System_IConvertible_ToInt64_m285584218_AdjustorThunk
DGf:_Rect_get_size_m477575021_AdjustorThunk
bBj:__ZN6il2cpp2vm5Class20FromGenericParameterEPK22Il2CppGenericParameter
S$:__ZN19CloudServiceHandler11FlushEventsEv
wfa:__ZN15GlobalCallbacksC2Ev
gjh:_Array_InternalArray__ICollection_Add_TisLabelData_t360167391_m1648183135_gshared
B8e:_Comparer_1_System_Collections_IComparer_Compare_m2016223770_gshared
ZZh:_ReadOnlyCollection_1_System_Collections_Generic_ICollectionU3CTU3E_Add_m1738170497_gshared
ani:__Z74RuntimeInvoker_DateTime_t3738529785_DateTime_t3738529785_Int32_t2950945753PFvvEPK10MethodInfoPvPS4_
u_c:_UNITY_FT_New_Memory_Face
V$i:_Collection_1_System_Collections_IList_IndexOf_m3271188411_gshared
CXg:_MonoIO_GetFileStat_m678141354
d2c:_UNITY_FT_Load_Sfnt_Table
QBd:__Z15CastclassSealedP12Il2CppObjectP11Il2CppClass
G8g:_Decimal_IsZero_m4250358244_AdjustorThunk
rJe:_UnmanagedMemoryStream_get_CanRead_m3770815400
T7b:__ZN16ReflectionProbes40UpdateRealtimeReflectionProbesTimeslicedEv
_Wa:__ZN14SafeBinaryRead21TransferSTLStyleArrayI13dynamic_arrayI8Vector2fLj0EEEEvRT_17TransferMetaFlags
T$g:_Decimal_u64_m3374804932
GQh:_UInt16_System_IConvertible_ToInt32_m1950778303_AdjustorThunk
S3a:__ZNK30RuntimeInitializeOnLoadManager22GetTypeVirtualInternalEv
iGj:__ZN15dense_hashtableINSt3__24pairIK10KeyWrapperIN6il2cpp5utils13dynamic_arrayIPK10Il2CppTypeLj4EEEEPFvvEEESA_NS3_8metadata19Il2CppSignatureHashEN14dense_hash_mapISA_SD_SG_NSA_14EqualsComparerINSF_22Il2CppSignatureCompareEEENS0_9allocatorISE_EEE9SelectKeyESK_SM_E12resize_deltaEjj
xwc:__ZN16ReflectionProbes15InitializeClassEv
$Y:__ZN13dynamic_arrayIN11UnityEngine15CloudWebService14DataErrorEvent15FileErrorDetailELj0EE18resize_initializedEj12ResizePolicy
f_h:_ReadOnlyCollection_1_System_Collections_ICollection_CopyTo_m2527663815_gshared
M2j:__ZN6il2cpp2vm5Image9GetCorlibEv
zMf:_Vector3_get_left_m2428419009
X6j:__ZN6il2cpp2vm11MethodStack17GetStackFramesRawEv
Sfk:_GC_reclaim_uninit
vud:_ExecuteEvents_Execute_m113814934
Sba:__ZN13RuntimeStaticINSt3__23mapIN4core12basic_stringIcNS2_20StringStorageDefaultIcEEEES6_NS0_4lessIS6_EE13stl_allocatorINS0_4pairIKS6_S6_EEL18MemLabelIdentifier13ELi16EEEELb0EE13StaticDestroyEPv
Kvf:_Coroutine_ReleaseCoroutine_m947702340
H8e:_Enumerator_System_Collections_IEnumerator_get_Current_m2979767597_AdjustorThunk
b9h:__ZN30GenericInterfaceActionInvoker1I17Color_t2555686324E6InvokeEPK10MethodInfoP12Il2CppObjectS0_
Xrf:_MD5CryptoServiceProvider_ProcessFinalBlock_m2241588515
GXf:_ScrollRect_GetBounds_m449872505
Rj:_glIsVertexArray
Qyg:_SmallXmlParser_Read_m3485223434
tRg:_Int16_Parse_m2276856944
Yad:__ZL42__ManagedRegistrationHelperFunction_CanvasPv
ea:invoke_fff
Wnk:_mbsinit
Ntk:b14
bEc:__Z34RenderTexture_Get_Custom_PropWidthP12Il2CppObject
Pbd:__ZN2UI6Canvas17MainThreadCleanupEv
gja:__ZN6prcoreL12RemapGenericI17TexFormatARGB155517TexFormatRGBA8888EEvPKNS_9InnerInfoE
WCj:__ZN13Il2CppHashMapIPK19Il2CppGenericMethodPK26Il2CppGenericMethodIndicesN6il2cpp8metadata23Il2CppGenericMethodHashENS7_26Il2CppGenericMethodCompareENSt3__29allocatorINSA_4pairIK10KeyWrapperIS2_ES5_EEEEEC2EjRKS8_RKS9_
AId:_TypeBuilder_HasElementTypeImpl_m1871001960
mgg:_SecurityFrame__ctor_m2140076703_AdjustorThunk
QHi:_Array_Resize_TisVector2_t2156229523_m3382835435_gshared
Twh:_DefaultComparer_Equals_m2458578172_gshared
cnb:__ZN7ApiGLES13CreateProgramEv
aIa:__ZN11HaloManager7AddHaloEv
g9e:_Enumerator_VerifyState_m4003066746_gshared
ORa:__ZN4crnd12crn_unpackerD2Ev
aL:__ZN9Scripting11UnityEngine12Experimental5Audio19AudioSampleProvider9InitProxyEv
fk:_emscripten_glTexImage2D
v7e:_Comparer_1_System_Collections_IComparer_Compare_m2537217645_gshared
QCa:__ZN16MeshVertexFormat20GetVertexDeclarationER9GfxDevice16VertexInputMasksPKS_
D5:__ZN18ScriptingArguments9AddStringEPKc
kgk:_setup_header
fGg:_Char_ToString_m3588025615
Xph:_CryptoConvert_ToCapiKeyBlob_m3371450375
fPa:__ZL23stbir__resize_arbitraryPvPKviiiS_iiiffffPfiij14stbir_datatype12stbir_filterS4_10stbir_edgeS5_16stbir_colorspace
Bub:__Z18Transfer_BlittableI24GenerateTypeTreeTransferLb1E8Vector4fEvRK29SerializationCommandArgumentsR31RuntimeSerializationCommandInfo
Rtk:b18
qk:_pthread_detach
oKj:__ZN6il2cpp2vm19SocketPollingThread7RunLoopEv
TDd:_FontUpdateTracker_UntrackText_m1981515690
LGe:__ZL64AnalyticsEventTracker_t2285229262_CustomAttributesCacheGeneratorP21CustomAttributesCache
Kzc:__ZN15DirectorManager20ScheduleGraphDestroyERK14HPlayableGraph
EDb:__ZNSt3__213__stable_sortIRN10vector_mapI17ScriptingClassPtrPKN5Unity4TypeENS_4lessIS2_EENS_9allocatorINS_4pairIS2_S6_EEEEE13value_compareENS_11__wrap_iterIPSB_EEEEvT0_SJ_T_NS_15iterator_traitsISJ_E15difference_typeEPNSM_10value_typeEi
Emh:_SimpleCollator_FillSurrogateSortKeyRaw_m725998232
pSi:_List_1_AddEnumerable_m1284696147_gshared
_og:_IPAddress_Equals_m1823478787
LSd:_Context_CreateNewContext_m3053563976
zhc:__ZN9ShaderLab25SerializedTextureProperty8TransferI24GenerateTypeTreeTransferEEvRT_
nSj:__ZN6il2cpp2gc19AppendOnlyGCHashMapINSt3__24pairIPK14Il2CppAssemblyP11Il2CppClassEEP24Il2CppReflectionAssembly17ReflectionMapHashIS9_ENS2_8equal_toIS9_EEEC2Ev
nxb:__Z18Transfer_BlittableI19StreamedBinaryWriteILb0EELb0EdEvRK29SerializationCommandArgumentsR31RuntimeSerializationCommandInfo
v0:__GLOBAL__sub_I_Runtime_Camera_RenderLoops_2_cpp
lua:__ZN11NamedObject8TransferI18StreamedBinaryReadILb0EEEEvRT_
oxf:_InvokableCall_remove_Delegate_m1376110510
CKg:_Hashtable_Clear_m3112193608
LKh:_UTF8Encoding_InternalGetByteCount_m771565606
DQc:__Z18Transfer_BlittableI8JSONReadLb1EyEvRK29SerializationCommandArgumentsR31RuntimeSerializationCommandInfo
yNi:_List_1_System_Collections_IList_Remove_m3654336679_gshared
$qe:__ZL51GUILayer_t2783472903_CustomAttributesCacheGeneratorP21CustomAttributesCache
SCa:__ZN9GfxDevice20GetVertexDeclarationERK18VertexChannelsInfoNS_30VertexDeclarationMRUCacheIndexE
Nk:_emscripten_glMatrixMode
PTf:_MaskableGraphic_UnityEngine_UI_IClippable_get_gameObject_m1739855597
Yu:__ZN8Animator23VirtualRedirectTransferER18StreamedBinaryReadILb0EE
gQg:_Guid__ctor_m3562600567_AdjustorThunk
z5g:_DateTime_System_IConvertible_ToInt16_m3239820399
jY:__ZN11UnityEngine15CloudWebService14DataDispatcher16PrepareDataBlockERNS0_16SessionContainerE
UTb:__ZN18GfxFramebufferGLES5ClearE13GfxClearFlagsRK10ColorRGBAffib
Iih:_MonoProperty_StaticGetterAdapterFrame_TisRuntimeObject_m4131530968_gshared
dCb:__ZL26Transfer_SimpleNativeClassI18StreamedBinaryReadILb0EE10RectOffsetLb0EEvRK29SerializationCommandArgumentsR31RuntimeSerializationCommandInfo
E0e:_InternalEnumerator_1_get_Current_m2316281569_gshared
b_b:__ZL12DepthPassJobPN21GfxDeviceAsyncCommand10ArgScratchEPKNS_3ArgE
Sfc:__ZNSt3__26vectorIN9ShaderLab20SerializedSubProgram16TextureParameterENS_9allocatorIS3_EEE6assignINS_11__wrap_iterIPS3_EEEENS_9enable_ifIXaasr21__is_forward_iteratorIT_EE5valuesr16is_constructibleIS3_NS_15iterator_traitsISC_E9referenceEEE5valueEvE4typeESC_SC_
nCf:_MonoBehaviour_IsInvoking_m3285132449
ULc:__ZN5Unity9rapidjson6WriterI16TempBufferWriterNS0_4UTF8IcEES4_13JSONAllocatorE11WriteDoubleEd
tMh:_Thread_SetCachedCurrentUICulture_m1729523031
olb:__ZN14GfxDeviceStats16CopyAllDrawStatsERKS_
I5f:_ClientContext_set_ClientHelloProtocol_m4189379912
Om:FUNCTION_TABLE_iiiiiiiiiiii
URi:_List_1_get_Item_m1686506901_gshared
XEa:__ZN16GraphicsSettingsD0Ev
v2:__Z12FormatBufferPciPKcz
Fld:__ZNSt3__26__treeINS_12__value_typeIN4core12basic_stringIcNS2_20StringStorageDefaultIcEEEE14CallbackArray3IRKS6_R8JSONReadbEEENS_19__map_value_compareIS6_SD_NS_4lessIS6_EELb1EEE13stl_allocatorISD_L18MemLabelIdentifier6ELi16EEE7destroyEPNS_11__tree_nodeISD_PvEE
n:cttz_i8
v$c:_UNITY_FT_GlyphLoader_Add
Nod:__ZN9Scripting11UnityEngine10Networking29UnityWebRequestAsyncOperation9InitProxyEv
Wnj:_AudioListener_INTERNAL_CALL_ReadExtensionPropertyName_m330480156
$3g:_Convert_ToUInt16_m867476252
Kl:_emscripten_glViewport
Ock:__ZN6il2cpp6icalls8mscorlib6System15MonoCustomAttrs17IsDefinedInternalEP12Il2CppObjectP20Il2CppReflectionType
zyj:_SkeletonBone_t4134054672_marshal_pinvoke_back
Pqa:__ZN9Scripting11UnityEngine10CacheIndex9InitProxyEv
S0c:_cff_parse_font_bbox
Nlh:_MSCompatUnicodeTable_Category_m1834196420
g2a:__ZN14PlayerSettings23VirtualRedirectTransferER18StreamedBinaryReadILb0EE
Ogi:__Z85RuntimeInvoker_Void_t1185182177_Int32_t2950945753_Int32_t2950945753_Int32_t2950945753PFvvEPK10MethodInfoPvPS4_
Iah:_Double_CompareTo_m3151899116
ulk:__ZN6il2cpp2os5Event5ResetEv
f4c:_tt_name_ascii_from_other
vmj:_ToggleGroup__ctor_m3308114662
R4j:__ZN6il2cpp8metadata15GenericMetadata17InflateParametersEPK13ParameterInfohPK20Il2CppGenericContextb
ibg:_RSAParameters_t1728406613_marshal_pinvoke_back
EIi:_Array_Sort_TisUILineInfo_t4195266810_m3737783007_gshared
nEf:_PlayableAsset_Internal_CreatePlayable_m2550417712
vIf:_RenderTexture_get_width_m2160921386
ly:__ZNK17AnimationPlayable27GetNextCompatibleDescendantEj
v_c:__ZN13dynamic_arrayIN4core17string_with_labelILi35EEELj0EE6insertEPS2_jRKS2_
swe:__ZL64GUIUtility_t1868551600_CustomAttributesCacheGenerator_s_SkinModeP21CustomAttributesCache
_5i:_TlsStream_Write_m188217214
b3c:_otv_LigatureSubst_validate
mHb:__Z25SetNeedToPerformRenderingb
ihd:__ZN8JSONRead12TransferPairINSt3__24pairIN4core12basic_stringIcNS3_20StringStorageDefaultIcEEEEN11UnityEngine9Analytics16LimitEventConfigEEEEEvRT_17TransferMetaFlagsPKN5Unity9rapidjson12GenericValueINSG_4UTF8IcEE13JSONAllocatorEE
pwa:__ZN10GameObjectD2Ev
p_b:__ZN14qsort_internal30FindAndMovePivotToLastPositionIP15RODataDepthPassi17ROSorterDepthPassEEvT_S4_T0_T1_
Fzh:_EqualityComparer_1__ctor_m1767308726_gshared
R6b:__ZN12CullingGroup10SendEventsEPK17CullingGroupEventj
Xvd:_PointerInputModule__ctor_m3728889932
PUa:__ZThn32_NK8Renderer8GetLayerEv
uEh:_Enumerator_System_Collections_IEnumerator_Reset_m2915500989_gshared
X0c:_cff_parse_vsindex
ERg:_Int32_ValidDigit_m1059003769
mzk:_emscripten_glTexParameterfv__wrapper
JHf:_RectTransform_INTERNAL_get_sizeDelta_m2173368204
DRf:_LayoutGroup_get_rectTransform_m442863741
Job:__Z18Transfer_BlittableI14SafeBinaryReadLb1E9BoundsIntEvRK29SerializationCommandArgumentsR31RuntimeSerializationCommandInfo
htc:__ZN2UI13RectTransform17GetLocalPositionZEv
uwk:b63
eXj:_il2cpp_method_get_param_count
uba:__ZNK5Unity4Type21FindAllDerivedClassesER13dynamic_arrayIPKS0_Lj0EENS0_17TypeFilterOptionsE
Bpc:__ZN10systeminfo19ISOToSystemLanguageERN4core12basic_stringIcNS0_20StringStorageDefaultIcEEEE
gRj:__ZNK15dense_hashtableINSt3__24pairIK10KeyWrapperINS1_IPK12PropertyInfoP11Il2CppClassEEEjEES9_17ReflectionMapHashIS8_EN14dense_hash_mapIS9_jSD_NS9_14EqualsComparerINS0_8equal_toIS8_EEEENS0_9allocatorISB_EEE9SelectKeyESI_SK_E3endEv
jTh:_UnauthorizedAccessException__ctor_m40101894
$nd:__ZN22BaseUnityConnectClient14AppRunningTickEj
b8c:_ps_dimension_done
F9c:__Z46Register_UnityEngine_TextGenerator_Dispose_cppv
Mah:_Double_Parse_m4153729520
ebi:_IndexedSet_1_AddUnique_m861843892_gshared
OVa:__ZN16LightmapSettings8TransferI14SafeBinaryReadEEvRT_
gOb:__ZN17BufferManagerGLES13ReleaseBufferEP14DataBufferGLES
H4f:_CipherSuite_Write_m1172814058
BIe:_SynchronizedWriter_Write_m301917713
j3:__ZN9profiling6MarkerC2EPKc13ProfilerGroupNS0_5FlagsE
AQc:__Z18Transfer_BlittableI8JSONReadLb1EjEvRK29SerializationCommandArgumentsR31RuntimeSerializationCommandInfo
xRe:_ConstructorBuilder_get_IsCompilerContext_m3364441562
owf:_Debug_LogWarning_m3752629331
psc:__Z13RegisterClassIN2UI13RectTransformEEvPKc
vqa:__ZN9Scripting11UnityEngine7Texture9InitProxyEv
M2h:_ReadOnlyCollection_1_System_Collections_Generic_IListU3CTU3E_RemoveAt_m4037795630_gshared
lli:__Z117RuntimeInvoker_Void_t1185182177_RuntimeObject_Int32_t2950945753_Int32_t2950945753_Int32_t2950945753_Int32_t2950945753PFvvEPK10MethodInfoPvPS4_
_Ya:__ZNK13ScreenManager17GetFullscreenModeEv
fR:__Z30GetAudioSpatializerDefinitionsR13dynamic_arrayIP29AudioEffectInternalDefinitionLj0EE31UnityAudioEffectDefinitionFlags
Iyd:_U3COnFinishSubmitU3Ec__Iterator0_Reset_m3632769946
Zo:stackSave
J_:__ZN5Unity9rapidjson15GenericDocumentINS0_4UTF8IcEE13JSONAllocatorNS0_12CrtAllocatorEE6StringEPKcjb
LAd:_ColorTween_get_targetColor_m1724075482_AdjustorThunk
w8c:_ps_dimension_end
LFc:__Z41Register_UnityEngine_Mesh_Internal_Createv
P4j:__ZNK15dense_hashtableI10KeyWrapperIP18Il2CppGenericClassES3_N6il2cpp8metadata22Il2CppGenericClassHashEN14dense_hash_setIS3_S6_NS3_14EqualsComparerINS5_25Il2CppGenericClassCompareEEENSt3__29allocatorIS3_EEE8IdentityESA_SD_E12test_deletedERK30dense_hashtable_const_iteratorIS3_S3_S6_SF_SA_SD_E
m$g:_Console_Open_m3077673205
z8i:_X509StoreManager_get_CurrentUser_m4040993045
y8b:__ZN6Camera9SetAspectEf
Hhh:_Array_InternalArray__IndexOf_TisDateTime_t3738529785_m2463359116_gshared
va:invoke_viiffiii
euj:_Display_Start_m3623905221
DAk:_emscripten_glBindVertexArray__wrapper
q7j:__ZN6il2cpp6icalls8mscorlib6System4Enum19get_underlying_typeEP20Il2CppReflectionType
yej:_Parser_IsECMAScript_m674158805
mxa:__ZN9Transform37InitializeTransformHierarchyRecursiveER18TransformHierarchyRii
nnb:__ZN26SinglePassStereoSupportExt23SetupStereoMatrixParamsE21MonoOrStereoscopicEye24BuiltinShaderMatrixParamRK10Matrix4x4f
Aod:__GLOBAL__sub_I_artifacts_WebGL_codegenerator_0_cpp_7004
Xjb:__ZN9GfxDevice23CreateAsyncReadbackDataEv
$od:__ZNK25UnityWebRequestJavaScript16GetUploadedBytesEv
cU:__Z46AudioListener_CUSTOM_GetNumExtensionPropertiesP12Il2CppObject
zLj:__ZN6il2cpp6icalls8mscorlib6SystemL16CheckMemberMatchI9FieldInfoNS_5utils10functional6FilterINSt3__212basic_stringIcNS8_11char_traitsIcEENS8_9allocatorIcEEEENS5_13VmStringUtils23CaseInsensitiveComparerEEEEEbPKT_PK11Il2CppClassSN_iRKT0_
Uhh:_Array_InternalArray__IndexOf_TisMonoResource_t4103430009_m1351751258_gshared
dw:__ZN17AnimationPlayable34CollectAnimatorControllerPlayablesER13dynamic_arrayIP26AnimatorControllerPlayableLj0EE
xLg:_FieldAccessException__ctor_m3583219052
d8g:_Decimal_System_IConvertible_ToDouble_m3125524987
wqc:__Z57Register_UnityEngine_Transform_INTERNAL_set_localPositionv
XMb:__ZN13GfxDeviceGLES26SetRandomWriteTargetBufferEi15ComputeBufferID
jgk:_GC_split_block
KHi:_Array_Resize_TisUICharInfo_t75501106_m3903846016_gshared
GVb:__ZZ23InitPlayerLoopCallbacksvEN49EarlyUpdateResetFrameStatsAfterPresentRegistrator7ForwardEv
rok:_poll
s$h:_ReadOnlyCollection_1_System_Collections_IEnumerable_GetEnumerator_m1671097018_gshared
WSh:_UInt64_ToString_m1529093114_AdjustorThunk
YPd:_TypeLibImportClassAttribute__ctor_m2302178978
mnh:_Escape_t3294788190_marshal_pinvoke
ZPf:_InputField_OnUpdateSelected_m1118869681
Q2j:__ZN6il2cpp2vmL36AddNestedTypesToNametoClassHashTableEP40Il2CppNameToTypeDefinitionIndexHashTablePKcRKNSt3__212basic_stringIcNS5_11char_traitsIcEENS5_9allocatorIcEEEEP11Il2CppClass
XRa:__ZN4crnd12crn_unpacker11unpack_dxt1EPPhjjj
xTj:__ZN15dense_hashtableINSt3__24pairIK10KeyWrapperIPK10Il2CppTypeEjEES6_N6il2cpp8metadata14Il2CppTypeHashEN14dense_hash_mapIS6_jSB_NS6_14EqualsComparerINSA_26Il2CppTypeEqualityComparerEEENS0_9allocatorIS8_EEE9SelectKeyESF_SH_E14squash_deletedEv
HJ:__ZL55__ManagedRegistrationHelperFunction_CoordinateFramePairPv
ekc:__ZNK11ICallString6ToUTF8Ev
hBj:__ZN15dense_hashtableINSt3__24pairIK10KeyWrapperIPK22Il2CppGenericParameterEP11Il2CppClassEES6_N6il2cpp5utils11PointerHashIS4_EEN14dense_hash_mapIS6_S9_SE_NS6_14EqualsComparerINS0_8equal_toIS5_EEEENS0_9allocatorISA_EEE9SelectKeyESJ_SL_E15insert_noresizeERKSA_
Qdf:_Transform_1_Invoke_m2468053724_gshared
qX:__ZL60__ManagedRegistrationHelperFunction_ClothSkinningCoefficientPv
q_b:__ZNSt3__211__sift_downIR17ROSorterDepthPassP15RODataDepthPassEEvT0_S5_T_NS_15iterator_traitsIS5_E15difference_typeES5_
MMa:__ZN18UnityPropertySheet11UnityTexEnvC2Ev
zAg:_ArgumentException__ctor_m3200406061
uD:__ZN8Animator17ApplyOnAnimatorIKEiRNS_11AnimatorJobE
gaa:__ZN12FileAccessor4ReadEyyPvPy
KTi:_List_1_set_Capacity_m2777925136_gshared
a8b:__ZN13RenderTexture9SetHeightEi
M8:__ZN17PersistentManager25PreallocateObjectThreadedEiNS_9LockFlagsE
yw:__ZN7mecanim9animation17ClearMotionOutputEPNS0_18AnimationNodeStateE
t5f:_CipherSuiteCollection_get_IsFixedSize_m3127823890
X5e:_InternalEnumerator_1_System_Collections_IEnumerator_get_Current_m3537550566_gshared
NVf:_Scrollbar_UpdateVisuals_m2492252165
p7i:_PKCS12_get_Keys_m2165478388
r$j:__ZN6il2cpp6icalls8mscorlib6System2IO6MonoIO17GetFileAttributesEP12Il2CppStringPi
mrf:_HMACMD5__ctor_m3008609295
M6g:_DateTime_ToString_m2992030064_AdjustorThunk
Z4c:_tt_cmap8_char_index
a6:__Z24scripting_class_get_name17ScriptingClassPtr
jqg:_Oid__ctor_m911618594
Umj:_VerticalLayoutGroup_CalculateLayoutInputHorizontal_m1404590745
oca:__ZN13RuntimeStaticI15GUIEventManagerLb0EE13StaticDestroyEPv
nLe:_ShortComparer_Compare_m1881262465
zqb:__Z29Transfer_Blittable_ArrayFieldI14SafeBinaryReadjEvRT_R9ArrayInfoRK23StaticTransferFieldInfo
de:_emscripten_set_keydown_callback
wlg:_EncoderReplacementFallback__ctor_m1483565116
Mvg:_Interpreter_IsWordChar_m2858055765
AKg:_Hashtable_CopyTo_m2905447224
qqa:__ZN9Scripting11UnityEngine29CustomRenderTextureUpdateZone12CleanupProxyEv
oaa:__ZN12FileAccessorC2Ev
$Ua:__ZNK8Renderer29FlattenPerMaterialCustomPropsER22PerThreadPageAllocatorR10RenderNode
GA:__ZThn152_NK26AnimatorControllerPlayable25GetStateMachineBehavioursEv
Wai:_EventFunction_1_Invoke_m2429482587_gshared
MJj:_CertificateHandler_Dispose_m2100863831
uWd:__ZL51Attribute_t861562559_CustomAttributesCacheGeneratorP21CustomAttributesCache
OMj:__ZN6il2cpp2vm7Runtime12GetConfigDirEv
UDh:_Enumerator_MoveNext_m1177880931_AdjustorThunk
SIf:_SendMouseEvents_SetMouseMoved_m2822596724
Uvj:_TextGenerator_Populate_m194003733
uSe:_DerivedType_get_FullName_m1025358827
spf:_CryptoConfig_MapNameToOID_m2044758263
mma:__ZL50__ManagedRegistrationHelperFunction_SetupCoroutinePv
zr:__ZN13ConstraintJob23ConstraintComponentDataC2ERKS0_
NCe:__ZL70InputField_t3762917431_CustomAttributesCacheGenerator_m_OnValueChangedP21CustomAttributesCache
PFb:__Z39WriteQueueForTransferSignatureIntoCacheRK31TransferFunctionScriptingTraitsRK24TransferRequestSignature17ScriptingClassPtrR23CachedSerializationDataRb
U6a:__ZN13RenderManager18UpdateAllRenderersEv
bmg:_Encoding_get_UTF8UnmarkedUnsafe_m320312322
CMh:_Thread_Thread_free_internal_m333849022
nNc:__Z35Transfer_Blittable_FixedBufferFieldI9JSONWritexEvRK29SerializationCommandArgumentsR31RuntimeSerializationCommandInfo
M9i:_CostDelegate_BeginInvoke_m2828452701
kjd:__ZN22BaseUnityConnectClient30OnEnteringStatePausedOrStoppedEv
O1i:_Collection_1_ConvertItem_m1556170494_gshared
Mw:__ZN7mecanim5human12HumanPoseAddERNS0_9HumanPoseERKS1_S4_
V0g:_DateTime_ToUniversalTime_m1945318289
$Gg:_ArrayList_ToArray_m3827492363
FZf:_Slider_get_stepSize_m1423227661
RSh:_UInt64_Parse_m819899889
Zcg:_SymmetricAlgorithm_set_IV_m3196220308
pUe:_GenericTypeParameterBuilder_GetHashCode_m852224381
r4g:_Convert_ToUInt32_m1453583008
DMg:_CompareInfo_Compare_m894311506
Vwa:__Z24MergeTransformComponentsR9TransformS0_b
BFj:__ZNK15dense_hashtableI10KeyWrapperIPK19Il2CppGenericMethodES4_N6il2cpp8metadata23Il2CppGenericMethodHashEN14dense_hash_setIS4_S7_NS4_14EqualsComparerINS6_26Il2CppGenericMethodCompareEEENSt3__29allocatorIS4_EEE8IdentityESB_SE_E10test_emptyEj
Gsd:_EventSystem_UpdateModules_m3643806022
_xj:_AnimationOffsetPlayable__cctor_m1029460816
wck:__ZN6il2cpp2vm13ComObjectBase19GetRuntimeClassNameEPP15Il2CppHString__
SDa:__Z37GetBarycentricCoordinatesForOuterCellPPK8Vector3fRK13dynamic_arrayIS_Lj0EERS0_RK11TetrahedronR8Vector4f
Pj:_emscripten_glVertexAttribPointer
CIb:__ZN14PreloadManager26UpdatePreloadingSingleStepENS_21UpdatePreloadingFlagsEi
tYf:_ScrollRect_SetLayoutHorizontal_m3078869633
l$g:_Console_OpenStandardInput_m3262421490
bmh:_SimpleCollator__ctor_m1587210019
cmc:__Z57Register_UnityEngine_RectTransform_INTERNAL_set_anchorMinv
i4g:_Convert_ToUInt16_m1480956416
Cja:__ZN6prcoreL25inner_stretch_i8_bilinearEPKNS_9InnerInfoE
A8a:__ZL30RegisterFilteredObjectCallbackPP12Il2CppObjectiPv
i2h:_ReadOnlyCollection_1_System_Collections_Generic_IListU3CTU3E_RemoveAt_m3317217538_gshared
yue:__ZL54AudioSource_t3935305588_CustomAttributesCacheGeneratorP21CustomAttributesCache
YIb:__Z19InitializeGfxDevicev
GY:__ZN11UnityEngine15CloudWebService16SessionContainer24GetSessionHeaderJsonDataERKN4core12basic_stringIcNS2_20StringStorageDefaultIcEEEERNS2_13StringBuilderE
ZRe:_DerivedType_GetEvent_m4157575360
Gba:__ZN13RuntimeStaticI21AssetReferenceStorageLb0EE13StaticDestroyEPv
wof:_SByte_System_IConvertible_ToType_m4075253447_AdjustorThunk
aXh:_Collection_1_ConvertItem_m618594517_gshared
Svi:__Z72RuntimeInvoker_Bounds_t2266837910_RuntimeObject_Matrix4x4U26_t3606180965PFvvEPK10MethodInfoPvPS4_
d9j:__ZN6il2cpp6icalls8mscorlib6System9AppDomain22InternalGetProcessGuidEP12Il2CppString
st:__ZN9Scripting11UnityEngine10Animations16ConstraintSource9InitProxyEv
mEc:__Z34Quaternion_CUSTOM_Inverse_InjectedRK11QuaternionfRS_
Yub:__Z18Transfer_BlittableI24GenerateTypeTreeTransferLb1EjEvRK29SerializationCommandArgumentsR31RuntimeSerializationCommandInfo
fBj:__ZN6il2cpp2os12FastAutoLockD2Ev
FGa:__ZN11ColorRGBA328TransferI14SafeBinaryReadEEvRT_
j1c:_cff_vstore_done
Qhb:__ZN9GfxDevice33ScheduleComputeBufferJobsInternalEPFvP20ComputeBufferJobDataEPFvRK8JobFenceEPK27ComputeBufferJobInstructionj
oqi:__Z68RuntimeInvoker_Void_t1185182177_UInt16_t2177724958_SByte_t1669577662PFvvEPK10MethodInfoPvPS4_
r5a:__ZN15ResourceManager10Dependency8TransferI24GenerateTypeTreeTransferEEvRT_
Lrf:_MACTripleDES_HashFinal_m3613553534
lSh:_UInt64_System_IConvertible_ToChar_m2074245892
PKh:_UTF8Encoding_InternalGetBytes_m1965760031
If:_emscripten_glClearDepth
Ztc:__ZNK8GUILayer22GetTypeVirtualInternalEv
DTa:__ZN14SafeBinaryRead21TransferSTLStyleArrayINSt3__26vectorIN15QualitySettings14QualitySettingENS1_9allocatorIS4_EEEEEEvRT_17TransferMetaFlags
Fbf:_KeyCollection__ctor_m2388548663_gshared
z3a:__ZNSt3__26vectorINS_4pairIPKN5Unity4TypeE7Hash128EENS_9allocatorIS7_EEE8__appendEj
nRc:__ZN8JSONRead21TransferSTLStyleArrayI13dynamic_arrayIaLj0EEEEvRT_17TransferMetaFlags
m1c:_cff_font_load
K9j:__GLOBAL__sub_I_LibraryLoader_cpp
sCc:__Z13IsPathCreatedRKN4core12basic_stringIcNS_20StringStorageDefaultIcEEEE
qwf:_Debug_LogWarningFormat_m2535776735
lPa:__ZL22stbir__encode_scanlineP11stbir__infoiPvPfiii
iPd:_ExternalException__ctor_m2877839282
aWc:__ZN20QuadTreeNodeRenderer13StaticDestroyEPv
CZ:__ZN11UnityEngine15CloudWebService20WebRequestRestClient5AbortEv
Kcj:_Regex_Matches_m2080913806
vtc:__ZN9Transform12CleanupClassEv
OBe:__ZL57FontData_t746620069_CustomAttributesCacheGenerator_m_FontP21CustomAttributesCache
CAf:_Mathf_Sin_m3411839043
x_c:_UNITY_FT_Set_Pixel_Sizes
NOe:_OperatingSystem_Clone_m1122165140
QLi:_GameObject_AddComponent_TisRuntimeObject_m3469369570_gshared
UC:__ZN11UnityEngine9Animation33SetGenericTransformPropertyValuesERKNS0_30AnimatorGenericBindingConstantERKN7mecanim10ValueArrayEP9Transformy
OXj:__ZN6il2cpp2vmL24thread_cleanup_on_cancelEPv
SPi:_List_1_RemoveAll_m3165362277_gshared
lPh:_Type_type_is_subtype_of_m1406623598
qma:__ZL54__ManagedRegistrationHelperFunction_SpriteAtlasManagerPv
oLh:_Thread_get_CurrentThread_m4142136012
eDa:__Z30ProcessDynamicBatchGeometryJobP25DynamicVBOGeometryJobDataj
T_b:__ZNSt3__27__sort4IRNS_6__lessI11CulledLightS2_EEPS2_EEjT0_S6_S6_S6_T_
GUj:__ZN6il2cpp2vm14TypeNameParser26ParseArrayModifierOptionalEv
u7:__Z26scripting_object_get_class18ScriptingObjectPtr
u_j:__ZN6il2cpp6icalls8mscorlib6System10Reflection8Assembly13get_code_baseEP24Il2CppReflectionAssemblyb
s4a:__ZNSt3__26vectorIN4core12basic_stringIcNS1_20StringStorageDefaultIcEEEE13stl_allocatorIS5_L18MemLabelIdentifier13ELi16EEE7reserveEj
Aqf:_DSASignatureDeformatter__ctor_m2889130126
Wuc:__ZNK28MonoBehaviourPropertyBinding15GenerateBindingERKN4core12basic_stringIcNS0_20StringStorageDefaultIcEEEEbRN11UnityEngine9Animation14GenericBindingE
PHf:_RectTransform_INTERNAL_set_pivot_m1160676233
JUi:_List_1_set_Item_m35836043_gshared
rtg:_X509ChainElementCollection__ctor_m3424079155
vFc:__Z58Register_UnityEngine_Camera_ScreenToViewportPoint_Injectedv
T9i:_LinkStack_Push_m3081279930
raf:_Enumerator_MoveNext_m1107569389_gshared
Bak:__ZN6il2cpp6icalls8mscorlib6System11Environment15internalGetHomeEv
bBf:_Matrix4x4_GetHashCode_m4034747639_AdjustorThunk
lOd:_ResourceCacheItem_t51292791_marshal_pinvoke_cleanup
gsa:__ZNK5Unity9Component7GetNameEv
Z8b:__Z23FindMonoScriptFromClass17ScriptingClassPtr
gSf:_U3CDelayedSetDirtyU3Ec__Iterator0_Reset_m160466733
Llb:__ZN21ScalableBufferManager23UnregisterRenderSurfaceEP17RenderSurfaceBaseb
aTi:_List_1_System_Collections_IList_Remove_m1070694895_gshared
ehj:_LayoutCache__ctor_m3885940174
mE:__ZN7mecanim8skeleton26SkeletonPoseComputeGlobalQEPKNS0_8SkeletonEPKNS0_13SkeletonPoseTIN4math4trsXEEEPS7_ii
kSh:_UInt64_System_IConvertible_ToByte_m1501504925_AdjustorThunk
Gvj:_TextGenerator_Invalidate_m1072346986
d8f:_TlsClientHello_ProcessAsTls1_m2549285167
bEi:__Z74RuntimeInvoker_Boolean_t97287965_UIVertex_t4057497605_UIVertex_t4057497605PFvvEPK10MethodInfoPvPS4_
$$h:_ReadOnlyCollection_1_System_Collections_IList_Clear_m3591436538_gshared
OD:__ZN9BlobWrite8TransferI22OffsetPtrArrayTransferIiEEEvRT_PKc17TransferMetaFlags
llg:_EncoderExceptionFallback_Equals_m2760188920
H6b:__ZNK15LODGroupManager17CalculateLODMasksERK13LODParametersfPhPf
tO:__ZN4FMOD6System7releaseEv
VDg:_Boolean_CompareTo_m3665076258
fig:_String_Split_m3580120853
rrh:_PrivateKeyInfo__ctor_m2811023496
L9:__Z18PathToAbsolutePathRKN4core12basic_stringIcNS_20StringStorageDefaultIcEEEE
tHd:_PropertyBuilder_GetCustomAttributes_m2917594003
aij:_GUILayoutUtility_LayoutFromEditorWindow_m2914699782
Dpa:__ZN9Scripting11UnityEngine12Experimental10PlayerLoop13PreLateUpdate9InitProxyEv
shd:__ZN21UnityAnalyticsManager15ThreadedCleanupEv
ROa:__ZL13BlitImageImplR14ImageReferenceiiRKS_NS_10ColorSpaceENS_8BlitModeEb
Gzc:__ZN15DirectorManager17AcquireOutputNodeEv
ZWa:__Z14resize_trimmedINSt3__26vectorI13dynamic_arrayI8Vector2fLj0EENS0_9allocatorIS4_EEEEEvRT_j
CGi:_Array_InternalArray__set_Item_TisColor32_t2600501292_m1891325855_gshared
TLi:_GameObject_GetComponentInChildren_TisRuntimeObject_m1310240902_gshared
fmg:_Locale_GetText_m2640320736
Nne:__ZL69PersistentCall_t3407714124_CustomAttributesCacheGenerator_m_ArgumentsP21CustomAttributesCache
gHa:__ZN16ReflectionProbes28GetMinBakedCubemapResolutionEv
hck:__GLOBAL__sub_I_String_cpp
eBj:__ZN15dense_hashtableINSt3__24pairIK10KeyWrapperIPK22Il2CppGenericParameterEP11Il2CppClassEES6_N6il2cpp5utils11PointerHashIS4_EEN14dense_hash_mapIS6_S9_SE_NS6_14EqualsComparerINS0_8equal_toIS5_EEEENS0_9allocatorISA_EEE9SelectKeyESJ_SL_E6insertERKSA_
gQf:_InputField_GenerateCaret_m1459647218
h7i:_X509CertificateEnumerator__ctor_m85694331
aOb:__ZN14DataBufferGLES16RecreateWithDataEjPKv
Esa:__Z29GetGlobalAllowNameConversionsv
Ukh:_Array_InternalArray__Insert_TisTableRange_t3332867892_m558285859_gshared
P9b:__ZN8Material8SetColorEN9ShaderLab16FastPropertyNameERK10ColorRGBAf
AFh:_Enumerator_System_Collections_IEnumerator_Reset_m3754523291_gshared
Tld:__ZN11UnityEngine7Connect20RemoteConfigSettings19ConfigUpdatedStaticEPS1_bbi
oQ:__ZN11AudioSource23VirtualRedirectTransferER18StreamedBinaryReadILb0EE
NFf:_RangeInt_get_end_m4128831787
Dnd:__Z25GetUnityConnectModuleSpecv
VRi:_List_1_set_Item_m2082115010_gshared
Ulg:_Encoding_GetBytes_m3735967069
rRb:__ZN14GfxContextGLES43AddRenderSurfaceToDeferredFBOInvalidateListEPK17RenderSurfaceGLES
W_j:__ZN6il2cpp6icalls8mscorlib6System9Threading6Thread15Thread_internalEP12Il2CppThreadP14Il2CppDelegate
Eua:__ZN11NamedObject23VirtualRedirectTransferER14SafeBinaryRead
z_f:_Text_get_resizeTextMinSize_m1002355407
l_c:__ZNSt3__26vectorIN20TextRenderingPrivate8FontImpl13CharacterInfoE13stl_allocatorIS3_L18MemLabelIdentifier1ELi16EEE6insertENS_11__wrap_iterIPKS3_EERS9_
A5a:__ZN23PreloadManagerOperation6IsDoneEv
JBg:_Array_CreateInstance_m1027597705
ZMj:__ZN6il2cpp2vm7Runtime15InvokeWithThrowEPK10MethodInfoPvPS5_
yWf:_Selectable_get_navigation_m3508916916
Kbk:__ZN6il2cpp5utils11StringUtils11Utf16ToUtf8ERKNSt3__212basic_stringIDsNS2_11char_traitsIDsEENS2_9allocatorIDsEEEE
Z1f:_MD4Managed_Decode_m4273685594
G7a:__ZN21LightProbeProxyVolume18HasHardwareSupportEv
d2b:__ZN26LightProbeProxyVolumeCacheC2ER13BatchRendererR15RenderLoopStats
VTg:_IntPtr__ctor_m620280096
Bja:__ZN6prcoreL31inner_stretch_argb8888_bilinearEPKNS_9InnerInfoE
bzb:__Z18Transfer_BlittableI18StreamedBinaryReadILb1EELb1E8BitFieldEvRK29SerializationCommandArgumentsR31RuntimeSerializationCommandInfo
D5c:_UNITY_FT_Outline_Decompose
VSg:_Int64_System_IConvertible_ToChar_m1509243576_AdjustorThunk
xSb:__ZNK12GraphicsCaps24GetFallbackSampledFormatE14GraphicsFormat
t6i:_GeneralNames_get_IPAddresses_m4242915644
S1g:_Decimal_op_Implicit_m3873897383
Bgk:_GC_init_size_map
Hza:__Z20scripting_object_new17ScriptingClassPtr
Cra:__ZN9Scripting5Unity11Collections39NativeMatchesParallelForLengthAttribute12CleanupProxyEv
Erh:_KeyGeneratedEventHandler_Invoke_m2527485594
P7g:_Decimal__ctor_m1925875020_AdjustorThunk
tmf:_SerializationCallbacks__ctor_m3863304525
VEa:__ZN18ShadowMapJobHeaderD0Ev
P:Math_exp
duf:_Vector3_Min_m1803158933
Ao:FUNCTION_TABLE_iiifi
k7j:__ZN6il2cpp2os5posix13PosixAutoLockD2Ev
gjj:_SymmetricTransform_OFB_m3690147804
Q_c:_cff_get_advances
jFb:__ZN13MonoBehaviour9SetScriptERK4PPtrI10MonoScriptE18ScriptingObjectPtr
wYj:_RaycastHit2D_get_collider_m1549426026
adb:__ZNK10FileSystem16LastErrorMessageEv
LFi:_Array_InternalArray__Insert_TisVector3_t3722313464_m3862657277_gshared
tXa:__ZN15SerializeTraitsI13dynamic_arrayI12SpriteVertexLj0EEE19ResizeSTLStyleArrayERS2_i
pfg:_SecurityException__ctor_m1631242336
fDj:__ZN15dense_hashtableINSt3__24pairIK10KeyWrapperIPK11Il2CppClassEPKcEES6_N6il2cpp5utils11PointerHashIS3_EEN14dense_hash_mapIS6_S9_SE_NS6_14EqualsComparerINS0_8equal_toIS5_EEEENS0_9allocatorISA_EEE9SelectKeyESJ_SL_E14squash_deletedEv
Htd:_EventSystem_Update_m1662072334
Iga:__ZN13sorted_vectorIN4core12basic_stringIcNS0_20StringStorageDefaultIcEEEENSt3__24lessIS4_EE13stl_allocatorIS4_L18MemLabelIdentifier81ELi16EEE21sort_clear_duplicatesEv
kqd:__ZN22UnityWebRequestManager10InitializeEv
o5a:__ZNSt3__26__treeINS_12__value_typeIN4core12basic_stringIcNS2_20StringStorageDefaultIcEEEE4PPtrI6ObjectEEENS_19__map_value_compareIS6_SA_NS_4lessIS6_EELb1EEE13stl_allocatorISA_L18MemLabelIdentifier52ELi16EEE15__emplace_multiIJRNS_4pairIS6_S9_EEEEENS_15__tree_iteratorISA_PNS_11__tree_nodeISA_PvEEiEEDpOT_
IZc:_raccess_guess_darwin_newvfs
dtb:__ZL26Transfer_SimpleNativeClassI17RemapPPtrTransfer8GradientLb1EEvRK29SerializationCommandArgumentsR31RuntimeSerializationCommandInfo
jtd:_RaycasterManager_RemoveRaycasters_m3057093063
Ckc:__ZN12CachedWriter9InitWriteER15CacheWriterBase
vzc:__Z21UnsignedInt64ToStringy
YUf:_GetRaycastNonAllocCallback_BeginInvoke_m3984885848
Vaj:_PatternCompiler_BeginLink_m1295557963
eFe:__ZL70CanvasScaler_t2767979955_CustomAttributesCacheGenerator_m_PhysicalUnitP21CustomAttributesCache
_Pg:_GuidParser_ThrowFormatException_m3223388534
hej:_Group_GetAnchorInfo_m3730312864
aCe:__ZL50Graphic_t1660335611_CustomAttributesCacheGeneratorP21CustomAttributesCache
gcf:_KeyCollection_System_Collections_Generic_ICollectionU3CTKeyU3E_Add_m454648927_gshared
EOh:_TimeSpan_op_LessThanOrEqual_m300470010
Bte:__ZL139AnimatorOverrideController_t3582062219_CustomAttributesCacheGenerator_AnimatorOverrideController_OnInvalidateOverrideController_m3380737075P21CustomAttributesCache
Iqc:__Z66Register_UnityEngine_Transform_INTERNAL_CALL_InverseTransformPointv
aea:__ZZN15DirectorManager15InitializeClassEvEN41FixedUpdateDirectorFixedUpdateRegistrator7ForwardEv
QXg:_MemoryStream_get_Position_m3733941202
cdc:__ZL10KeyHandleriPK23EmscriptenKeyboardEventPv
mAk:_glLinkProgram__wrapper
ubb:__ZN18ScriptingArguments8AddInt64Ex
Mia:__ZN6prcoreL12RemapGenericI17TexFormatARGB888815TexFormatBGR888EEvPKNS_9InnerInfoE
hnb:__ZN26SinglePassStereoSupportExt19SaveStereoConstantsEv
Bfa:__ZNSt3__26vectorIP10MemoryPool13stl_allocatorIS2_L18MemLabelIdentifier76ELi16EEE21__push_back_slow_pathIRKS2_EEvOT_
HPg:_TextInfo_get_ListSeparator_m1628160079
UYf:_Selectable_OnCanvasGroupChanged_m472903475
xLh:_EventWaitHandle_Reset_m3348053200
Bnd:__ZN28UnityConnectScriptingClasses23CallSessionStateChangedEixxbP21ScriptingExceptionPtr
D1j:__ZN6il2cpp6icalls8mscorlib6System13Globalization11CultureInfo35construct_internal_locale_from_nameEP17Il2CppCultureInfoP12Il2CppString
lvb:__ZL22Transfer_ManagedObjectI24GenerateTypeTreeTransferLb1EEvRK29SerializationCommandArgumentsR31RuntimeSerializationCommandInfo
qYb:__ZN15RenderNodeQueueC2E10MemLabelId
hOd:_ResourceEnumerator_FillCache_m1661715061
o8d:__ZL72SecuritySafeCriticalAttribute_t3505979402_CustomAttributesCacheGeneratorP21CustomAttributesCache
Zj:_emscripten_set_main_loop_timing
Ttf:_Bounds_get_min_m3755135869
b4g:_Convert_ToUInt16_m3523269149
qPb:__ZN14DataBufferGLES12RecordRenderEv
Gud:_ExecuteEvents_get_endDragHandler_m2879610446
t9b:__ZN14ImageReference10FlipImageYEv
mya:__ZN21ScalableBufferManager20GetHeightScaleFactorEv
mL:__ZN4FMOD3DSP9setBypassEb
Vcc:__Z19NormalizeWheelInputf
HEd:_Graphic_DoMeshGeneration_m3548487693
LH:__ZN11KeyframeTplIfE8TransferI14SafeBinaryReadEEvRT_
gcj:_Repetition__ctor_m1672362629
BSc:__Z29Transfer_Blittable_ArrayFieldI8JSONReadhEvRT_R9ArrayInfoRK23StaticTransferFieldInfo
tgg:_SecurityFrame_ToString_m339310712_AdjustorThunk
gId:_TypeBuilder_create_runtime_class_m2581270900
Yjc:__ZN11MonoManager25GetImageFromAssemblyIndexEi
GZe:_InternalEnumerator_1_get_Current_m3008260692_gshared
Zkk:__ZN6il2cpp2os20ThreadLocalValueImpl8SetValueEPv
oAa:__ZN22RenderingCommandBuffer20CleanupCommandBufferEv
U1g:_Decimal_op_Implicit_m2299919277
pNc:__Z18Transfer_BlittableI9JSONWriteLb1EtEvRK29SerializationCommandArgumentsR31RuntimeSerializationCommandInfo
kJe:_UnexceptionalStreamReader_ReadToEnd_m920589220
J5g:_DateTime_System_IConvertible_ToType_m1242864300
Eig:_String_IndexOf_m1298810678
sk:___syscall85
Eed:__ZN2UI14CanvasRenderer18UpdateTRSHierarchyEb
vYb:__ZNSt3__26__sortIRPFbP10GUIElementS2_EPS2_EEvT0_S7_T_
Ltc:__ZN16GraphicsSettings12CleanupClassEv
NRe:_ConstructorBuilder_GetILGenerator_m1750792206
Tjg:_EncoderFallback_get_ReplacementFallback_m818398284
F9j:__ZN6il2cpp2os6Thread19DetachCurrentThreadEv
aud:_EventTrigger_OnBeginDrag_m4203438710
ABj:__ZN6il2cpp2vmL21SetupInterfacesLockedEP11Il2CppClassRKNS_2os12FastAutoLockE
Nnb:__ZN11MonoManager23VirtualRedirectTransferER24GenerateTypeTreeTransfer
LB:__ZN23AnimationPlayableOutput17SetSourcePlayableEP8Playable
Qvf:_CullingGroup_Dispose_m782801025
cra:__ZN9Scripting11UnityEngine9Component12CleanupProxyEv
CY:__ZN11UnityEngine15CloudWebService14DataDispatcher15SetupWebRequestEv
Mkd:__ZN11UnityEngine15PlatformWrapper13GetShaderCapsEv
E4b:__ZNSt3__211__sift_downIR26RenderDeferredObjectSorterP16RenderObjectDataEEvT0_S5_T_NS_15iterator_traitsIS5_E15difference_typeES5_
ZTe:_GenericTypeParameterBuilder_IsDefined_m98179866
Bqh:_KeyPairPersistence_get_MachinePath_m3812267291
a$g:_Stack_Peek_m2216191248
w5g:_DateTime_System_IConvertible_ToDecimal_m1044850612_AdjustorThunk
ouc:__ZN21FixedBehaviourManager6UpdateEv
cqc:__ZN9Transform9SetParentEPS_NS_15SetParentOptionE
pCa:__ZN19ShaderPropertySheet8SetFloatEN9ShaderLab16FastPropertyNameEfNS_8SetFlagsE
c6a:__ZN19RuntimeSceneManager24BeginIntegrateMainThreadEP10UnityScene
sak:__ZNSt3__2plIcNS_11char_traitsIcEENS_9allocatorIcEEEENS_12basic_stringIT_T0_T1_EERKS9_S6_
iIe:_StringReader_CheckObjectDisposedException_m3796163530
ARh:_UInt32_System_IConvertible_ToInt16_m1659441601
mgc:__ZN9ShaderLab20SerializedSubProgramaSERKS0_
Zqk:_roundf
GEg:_Byte_System_IConvertible_ToSingle_m324484566_AdjustorThunk
S$g:_Decimal_op_Explicit_m2848387298
gCh:_KeyValuePair_2_ToString_m1238786018_gshared
ev:__ZN8Animator15SetPrepareStageEv
fJ:__ZN8AnimatorC2E10MemLabelId18ObjectCreationMode
BBj:__ZN6il2cpp2vmL24SetupTypeHierarchyLockedEP11Il2CppClassRKNS_2os12FastAutoLockE
ddc:__ZL11TextHandleriPK23EmscriptenKeyboardEventPv
zZc:_destroy_face
Awk:_glBlendEquationSeparate__wrapper
_hk:__ZN6il2cpp6icalls8mscorlib6System8Security12Cryptography24RNGCryptoServiceProvider13RngInitializeEP11Il2CppArray
xQ:__ZN20SoundChannelInstance7setMuteEb
L5g:_DateTimeUtils_ToString_m1782212840
uOe:_NumberFormatter_NumberToString_m3906556024
cAb:__Z19TransferField_ArrayI18StreamedBinaryReadILb1EE27Converter_SimpleNativeClassI17AnimationCurveTplIfEEEvRK23StaticTransferFieldInfoR31RuntimeSerializationCommandInfoRT0_
IPb:__ZN18GfxFramebufferGLES22MakeCurrentFramebufferENS_7BuiltinE
cGa:__ZN12CachedReader4ReadEPvj
nxd:_StandaloneInputModule_ProcessMouseEvent_m2923582521
SLd:_MonoMethod_ShouldPrintFullName_m1607666412
$0b:__Z24CalculateLightShadowFadeRK6CamerafffR8Vector4f
k6:__ZN19RuntimeSceneManagerD2Ev
YLg:_CCGregorianCalendar_GetMonth_m1547203696
SZ:__ZN11UnityEngine15CloudWebService25WebRequestDownloadHandler17OnCompleteContentEv
yPa:__ZN6prcore17GetIntegerBlitterE13TextureFormatS0_N14ImageReference8BlitModeE
agk:_GC_print_block_descr
gma:__ZL51__ManagedRegistrationHelperFunction_ResourceRequestPv
GDc:__ZN9BlobWrite14ReduceCopyImplERK14ReduceCopyDataj
zih:_Array_LastIndexOf_TisRuntimeObject_m1677937501_gshared
rU:__ZN11AudioSource18IsPlayingScriptingEv
tqh:_KeyBuilder_IV_m2230195376
pvk:_glShaderSource__wrapper
Qeb:__ZN25MultiBlocksMemoryFileData17AdjustBlocksCountEj
G_j:__ZNSt3__214__split_bufferIN6il2cpp2vm22EmbeddedResourceRecordERNS_9allocatorIS3_EEED2Ev
GXc:__ZN13TextRendering4Font8TransferI24GenerateTypeTreeTransferEEvRT_
Fmc:__Z27CullingGroup_CUSTOM_DisposeP12Il2CppObject
Am:_glStencilMask
eak:__ZN6il2cpp2os10ThreadImpl16GetCurrentThreadEv
Xcc:__ZN15GUIEventManager10QueueEventERK10InputEvent
tJj:_AnalyticsEvent_OnValidationFailed_m2609604624
bve:__ZL62EventType_t3528516131_CustomAttributesCacheGenerator_mouseMoveP21CustomAttributesCache
SOd:_DecimalConstantAttribute__ctor_m3583301917
Cfk:_GC_push_conditional_with_exclusions
dVd:_MethodCallDictionary__ctor_m2167303393
P6c:_Compute_Point_Displacement
gfk:_GC_make_disappearing_links_disappear
cok:_strrchr
Avf:_Component_GetComponentInParent_m779177818
Pxd:_UIBehaviour_IsDestroyed_m3033055982
_oi:__Z109RuntimeInvoker_Void_t1185182177_RuntimeObject_RuntimeObject_SByte_t1669577662_Int32_t2950945753_RuntimeObjectPFvvEPK10MethodInfoPvPS4_
HOf:_InputField_get_readOnly_m3111985574
tHa:__ZN14RenderSettings27UpdateIndirectSpecularColorEv
kme:__ZL59RectOffset_t1369453676_CustomAttributesCacheGenerator_m_PtrP21CustomAttributesCache
I2a:__ZN14PlayerSettings8TransferI18StreamedBinaryReadILb0EEEEvRT_
RLj:__ZN6il2cpp6icalls8mscorlib6System8MonoType16GetMethodsByNameEP20Il2CppReflectionTypeP12Il2CppStringibS5_
R2i:_RijndaelTransform__cctor_m2439033240
OJb:__ZNSt3__27__sort3IRNS_4lessIN22BuiltinResourceManager8ResourceEEEPS3_EEjT0_S7_S7_T_
j8c:_ps_hints_t2mask
Zdh:_Array_InternalArray__ICollection_Remove_TisMonoResource_t4103430009_m238733686_gshared
PZf:_Slider_Set_m1476104429
tGd:_Image_set_fillClockwise_m2210525152
x0a:__ZN10BlendShape8TransferI19StreamedBinaryWriteILb0EEEEvRT_
nmb:__ZNSt3__26vectorIN20GpuProgramParameters14ConstantBufferENS_9allocatorIS2_EEE21__push_back_slow_pathIRKS2_EEvOT_
nDf:_PlayerConnection_DisconnectedCallback_m1697017309
x1a:__Z19GetTimeSinceStartupv
TGd:_Image_AddQuad_m2161647989
oFh:_Enumerator_System_Collections_IEnumerator_Reset_m2953002685_gshared
F7c:_TT_Load_Composite_Glyph
vs:__ZL51__ManagedRegistrationHelperFunction_ScaleConstraintPv
JLa:__ZN9ShaderLab11shaderprops9GetTexEnvEPK19ShaderPropertySheetS3_NS_16FastPropertyNameE16TextureDimensionb
l$b:__ZN29RenderNodeQueuePrepareContextC2Ev
SWj:_il2cpp_gc_disable
Ovg:_IntStack_t2189327687_marshal_pinvoke_back
vhc:__ZN9ShaderLab20SerializedSubProgram16TextureParameter8TransferI24GenerateTypeTreeTransferEEvRT_
Ira:__ZN9Scripting5Unity11Collections8LowLevel6Unsafe29NativeSetThreadIndexAttribute12CleanupProxyEv
yik:__ZN6il2cpp2os11MutexHandle4WaitEb
uhb:__ZN9GfxDevice19SaveStereoConstantsEv
xik:__ZN6il2cpp2os11MutexHandle4WaitEj
Qmc:__ZL34GetComponentsImplementationRecurseILb1ELi1ELi1EEbR10GameObjectbRK17CompareParametersRK39GetComponentsImplementation_ReturnValue
ghi:__Z114RuntimeInvoker_Boolean_t97287965_RuntimeObject_RuntimeObject_Int32_t2950945753_Int32_t2950945753_Int32_t2950945753PFvvEPK10MethodInfoPvPS4_
hRe:_AssemblyBuilder_GetTypes_m3415680380
_ha:__ZN6prcoreL17RemapGenericFloatI15TexFormatRGHalf18TexFormatARGBFloatEEvPKNS_9InnerInfoE
KHb:__Z18SimulateMouseInputi
hXb:__ZN13RenderManager23AddRemoveCamerasDelayedEv
whd:__ZN11UnityEngine9Analytics15AnalyticsConfigC2Ev
TLc:__ZN5Unity9rapidjson6WriterI16TempBufferWriterNS0_4UTF8IcEES4_13JSONAllocatorE11WriteUint64Ey
hDg:_BitConverter__cctor_m3841343255
z$g:_Decimal_Compare_m3062820418
y9i:_IntervalCollection_GetMetaCollection_m4029522214
Xtd:_EventTrigger_OnDeselect_m1919608102
$vj:_TextGenerator_get_characterCount_m864136654
GNh:_TimeSpan__ctor_m2047388489_AdjustorThunk
$7b:__ZN13RenderTexture8SetWidthEi
Jba:__ZN22BuiltinResourceManager16StaticInitializeEPv
x_i:_Collection_1_System_Collections_ICollection_CopyTo_m1516601228_gshared
tca:__ZN23DefaultMeshVertexFormatC2E18VertexChannelsInfo
UQg:_Int16_System_IConvertible_ToDouble_m1661805412
X3:__ZN9ShaderLab16FastPropertyName4InitEPKc
RKa:__ZN6ObjectC2E10MemLabelId18ObjectCreationMode
v1e:_InternalEnumerator_1_get_Current_m3911557813_AdjustorThunk
pkd:__ZN11UnityEngine15PlatformWrapper19GetPhysicalMemoryMBEv
Vx:__ZN17AnimationPlayable17GetAnimationClipsER13dynamic_arrayIP13AnimationClipLj0EE
lFg:_Char_System_IConvertible_ToByte_m2347554595_AdjustorThunk
oJa:__ZN13RenderTexture9SetMipMapEb
AUc:__ZN9Scripting11UnityEngine14ContactPoint2D9InitProxyEv
Zjg:_String_CreateString_m860434552
Bea:__Z18GetDirectorManagerv
Vpc:__Z38Transform_CUSTOM_INTERNAL_get_rotationP12Il2CppObjectP11Quaternionf
TPj:__ZNK15dense_hashtableINSt3__24pairIK10KeyWrapperINS1_IPK10MethodInfoP11Il2CppClassEEEjEES9_17ReflectionMapHashIS8_EN14dense_hash_mapIS9_jSD_NS9_14EqualsComparerINS0_8equal_toIS8_EEEENS0_9allocatorISB_EEE9SelectKeyESI_SK_E5beginEv
bOb:__ZN7ApiGLES19UploadBufferSubDataEjN2gl12BufferTargetEllPKv
je:_glFramebufferTextureLayer
Uga:__ZNSt3__216__rotate_forwardINS_11__wrap_iterIPN4core12basic_stringIcNS2_20StringStorageDefaultIcEEEEEEEET_S9_S9_S9_
SLf:_Vector2_GetHashCode_m3916089713
Nyg:_SmallXmlParserException__ctor_m1976648878
qMe:_MulticastDelegate_Equals_m2502840627
bdg:_SymmetricAlgorithm_set_KeySize_m3805756466
KEg:_Byte_System_IConvertible_ToUInt32_m1049546902_AdjustorThunk
cqi:__Z53RuntimeInvoker_Double_t594665363_Interval_t1802865632PFvvEPK10MethodInfoPvPS4_
YJb:__Z21InitializeBatchedJobsv
Jwj:_CanvasGroup_get_blocksRaycasts_m1805542303
Lbg:_SHA1Internal_ProcessBlock_m1991889327
dqb:__Z19TransferField_ArrayI14SafeBinaryRead27Converter_SimpleNativeClassI8GUIStyleEEvRK23StaticTransferFieldInfoR31RuntimeSerializationCommandInfoRT0_
_Db:__ZN9TextAsset23VirtualRedirectTransferER19StreamedBinaryWriteILb0EE
$Hi:_Array_Sort_TisRuntimeObject_TisRuntimeObject_m1685639929_gshared
hik:__ZN6il2cpp5utils10MemoryPoolC2Ev
OGa:__ZN14RenderSettings5ResetEv
qkc:__ZN6Sprite9BindAtlasERK4PPtrI11SpriteAtlasE
jMc:__ZN5Unity9rapidjson12GenericValueINS0_4UTF8IcEE13JSONAllocatorE10FindMemberIS4_EENS0_21GenericMemberIteratorILb0ES3_S4_EERKNS1_IS3_T_EE
r1e:_InternalEnumerator_1_System_Collections_IEnumerator_get_Current_m3892960115_AdjustorThunk
Ojc:__ZN9ShaderLabL18AddPropertyToArrayERK19ShaderPropertySheetR13dynamic_arrayIiLj0EERKNS_8FloatValE
f0j:__ZNSt3__212basic_stringIDsNS_11char_traitsIDsEENS_9allocatorIDsEEE6appendEPKDsj
bHg:_ArrayList_Clone_m2682741233
grf:_HMAC_HashCore_m3684104066
End:__Z13RegisterClassI20UnityConnectSettingsEvPKc
t4h:__ZN28GenericInterfaceFuncInvoker2Ii20UIVertex_t4057497605S0_E6InvokeEPK10MethodInfoP12Il2CppObjectS0_S0_
ALc:__ZN5Unity9rapidjson13GenericReaderINS0_4UTF8IcEES3_13JSONAllocatorE11ParseNumberILj1ENS0_25GenericInsituStringStreamIS3_EENS0_15GenericDocumentIS3_S4_S4_EEEEvRT0_RT1_
Q9j:__ZN6il2cpp2os10ThreadImplD2Ev
yMc:__ZN8Gradient8TransferI9JSONWriteEEvRT_
X6a:__ZN21RendererUpdateManager18OncePerFrameUpdateER13RendererScene
toj:_AudioSource_set_clip_m31653938
Mua:__ZNK12TLSAllocatorI14StackAllocatorE22GetAllocatedMemorySizeEv
Ysa:__ZN17RemapPPtrTransfer12PushMetaFlagE17TransferMetaFlags
Gyh:_EqualityComparer_1_System_Collections_IEqualityComparer_GetHashCode_m2138064395_gshared
Mbb:__ZN12HandlerChain4NameEv
fRg:_Int16_System_IConvertible_ToType_m3672347013_AdjustorThunk
Urb:__Z29Transfer_Blittable_ArrayFieldI14SafeBinaryReadN4math12int3_storageEEvRT_R9ArrayInfoRK23StaticTransferFieldInfo
mSg:_Int32_System_IConvertible_ToType_m3009233912_AdjustorThunk
MRg:_Int16_ToString_m2013897809
egg:_String_Substring_m2848979100
Wed:__Z44Register_UnityEngine_CanvasRenderer_get_cullv
Tjd:__ZN11UnityEngine7Connect17XRDeviceInfoEvent12XRDeviceInfoD2Ev
gob:__Z44InitializeTransferFunctionScriptingTraitsForI17RemapPPtrTransferEvR31TransferFunctionScriptingTraits
itc:__ZNSt3__26vectorI16MessageForwarder13stl_allocatorIS1_L18MemLabelIdentifier7ELi8EEE6resizeEj
Osg:_X509Chain_SelectBestFromCollection_m1068759221
jjj:_SymmetricTransform_TransformBlock_m851059707
VXd:__ZL68IntPtr_t_CustomAttributesCacheGenerator_IntPtr_ToPointer_m4157623054P21CustomAttributesCache
IHb:__Z11StringToKeyRKN4core12basic_stringIcNS_20StringStorageDefaultIcEEEE
OWi:_Enumerator_System_Collections_IEnumerator_Reset_m2261065994_AdjustorThunk
FXf:_ScrollRect_get_verticalNormalizedPosition_m3693218937
b6a:__ZN18LoadSceneOperation21MustCompleteNextFrameEv
RZf:_Slider_UpdateDrag_m1102107039
bMd:_MonoMethodInfo_get_method_info_m88651774
XT:__ZNK12AudioManager16GetAudioListenerEv
YRg:_Int32_System_IConvertible_ToDateTime_m1824716955
Xnf:_RuntimeTypeHandle__ctor_m3315980708_AdjustorThunk
owj:_Canvas_set_overrideSorting_m4088794420
E7b:__ZNSt3__26vectorI11CameraStackNS_9allocatorIS1_EEE8__appendEj
Ew:__ZN7mecanim9animation12GetHumanPoseERKNS0_18ClipMuscleConstantEPKNS0_10ValueDeltaERNS_5human9HumanPoseE
Vhd:__ZN11UnityEngine9Analytics15UserCustomEvent12CustomParams6InsertEPKcRNS1_11CustomValueE
yy:__ZN22AnimationMixerPlayable17ProcessRootMotionEP35AnimationPlayableEvaluationConstantP32AnimationPlayableEvaluationInputP33AnimationPlayableEvaluationOutput
R9:__Z13GetFileSystemv
nca:__ZN13RuntimeStaticI15GUIEventManagerLb0EE16StaticInitializeEPv
qCf:_MonoBehaviour_IsObjectMonoBehaviour_m2134950949
oma:__ZL45__ManagedRegistrationHelperFunction_Texture2DPv
UTh:_Version_CompareTo_m3146217210
Q7f:_TlsClientCertificate_FindParentCertificate_m3844441401
Yej:_Uri_ParseAsUnixAbsoluteFilePath_m1476768041
Wjh:_Array_InternalArray__ICollection_CopyTo_TisKeyValuePair_2_t71524366_m1056941380_gshared
_Oh:_Type_get_IsClass_m589177581
Bge:__ZL62NativeTypeAttribute_t2250406315_CustomAttributesCacheGeneratorP21CustomAttributesCache
tnb:__ZN19ShaderPropertySheet9SetMatrixEN9ShaderLab16FastPropertyNameERK10Matrix4x4fNS_8SetFlagsE
IRa:__Z29GetTextureSizeAllowedMultiple13TextureFormat
y8g:_Decimal_Subtract_m835601464
ENh:_TimeSpan__ctor_m3689759052_AdjustorThunk
bWj:_il2cpp_array_element_size
CWd:__ZL62ComVisibleAttribute_t1362837655_CustomAttributesCacheGeneratorP21CustomAttributesCache
Gva:__ZNSt3__26__treeINS_12__value_typeIN4core12basic_stringIcNS2_20StringStorageDefaultIcEEEEjEENS_19__map_value_compareIS6_S7_NS_4lessIS6_EELb1EEE13stl_allocatorIS7_L18MemLabelIdentifier7ELi16EEE25__emplace_unique_key_argsIS6_JNS_4pairIS6_jEEEEENSH_INS_15__tree_iteratorIS7_PNS_11__tree_nodeIS7_PvEEiEEbEERKT_DpOT0_
LHf:_RectTransform_INTERNAL_set_sizeDelta_m188783163
Vf:_glCheckFramebufferStatus
Ehk:__ZN6il2cpp2os11EventHandle4WaitEv
X5:__Z43scripting_class_get_method_from_name_filter17ScriptingClassPtrPKciN24ScriptingMethodFiltering18MethodSearchFilterEPK16ScriptingTypePtr
kfd:__Z13RegisterClassIN2UI6CanvasEEvPKc
E$:__ZN19CloudServiceHandler20StartEventDispatcherERKN11UnityEngine15CloudWebService18CloudServiceConfigERNS1_23WebRequestRestHeaderMapE
fFd:_GraphicRaycaster__ctor_m646559428
YIg:_BitArrayEnumerator_get_Current_m4220391712
GPe:__Z37il2cpp_codegen_get_executing_assemblyPK10MethodInfo
nIf:_Transform_get_parent_m835071599
Uog:_IPAddress_get_ScopeId_m4237202723
Cpa:__ZN9Scripting11UnityEngine12Experimental10PlayerLoop9PreUpdate12CleanupProxyEv
kcj:_ExpressionCollection_get_Item_m3510736379
UBe:__ZL62FontData_t746620069_CustomAttributesCacheGenerator_m_AlignmentP21CustomAttributesCache
Owd:_StandaloneInputModule_get_inputActionsPerSecond_m3946624274
UKh:_UTF8Encoding_InternalGetCharCount_m82458470
eMf:_Vector2__cctor_m2108982652
oDf:_U3CBlockUntilRecvMsgU3Ec__AnonStorey2_U3CU3Em__0_m2225790220
tna:__ZN9Scripting11UnityEngine9Rendering20SphericalHarmonicsL29InitProxyEv
T1j:__ZN14dense_hash_mapI10KeyWrapperIP14Il2CppIUnknownEjN6il2cpp5utils11PointerHashIS1_EENS3_14EqualsComparerINSt3__28equal_toIS2_EEEENS9_9allocatorINS9_4pairIKS3_jEEEEE15set_deleted_keyERSF_
wSj:__ZN13Il2CppHashMapIPK14Il2CppAssemblyPK22Il2CppMonoAssemblyNameN6il2cpp5utils11PointerHashIS1_EENSt3__28equal_toIS2_EENSA_9allocatorINSA_4pairIK10KeyWrapperIS2_ES5_EEEEEC2EjRKS9_RKSC_
hAg:_DelegatePInvokeWrapper_AppDomainInitializer_t682969308
W8:__ZN8Remapper6RemoveEi
Tlg:_Encoding_GetBytes_m3148649984
GCc:__ZN9Scripting27CreateArgumentNullExceptionEPKc
t_c:__ZL36CleanupTextRenderingScriptingClassesv
Y7b:__ZN15ReflectionProbe17UseRendererResultEP13ProbeRenderer
FFc:__Z34Mesh_CUSTOM_SetArrayForChannelImplP12Il2CppObject30InternalScriptingShaderChannel34InternalScriptingVertexChannelTypeiP11Il2CppArrayi
Rwj:_CanvasRenderer_INTERNAL_CALL_EnableRectClipping_m3318097918
qSh:_UInt64_System_IConvertible_ToDecimal_m806594027_AdjustorThunk
Uka:__ZL58__ManagedRegistrationHelperFunction_MaterialEffectPlayablePv
Snd:__ZN11UnityEngine7Connect20RemoteConfigSettings18StaticCallOnUpdateEPS1_
R9e:_Enumerator_get_CurrentValue_m3103267885_gshared
pNi:_List_1__ctor_m3395838871_gshared
dXh:_Collection_1_IsFixedSize_m3698021882_gshared
eK:__ZN9Scripting11UnityEngine18AssetBundleRequest9InitProxyEv
J6i:_PKCS12__ctor_m1854440921
AHi:_Array_Resize_TisCustomAttributeNamedArgument_t287865710_m885566878_gshared
Waa:__ZN17TransformInternal19FreeTransformThreadER18TransformHierarchyjj
Ns:__ZN9Scripting11UnityEngine12SkeletonBone12CleanupProxyEv
bu:__ZN11UnityEngine9Animation28GenericAnimationBindingCache25RegisterIAnimationBindingEPKN5Unity4TypeEiP17IAnimationBinding
WRd:_FormatterData__ctor_m3990517908
_ed:__Z70RectTransformUtility_CUSTOM_INTERNAL_CALL_RectangleContainsScreenPointP12Il2CppObjectRK13Vector2fIcallS0_
HVg:_DirectoryInfo__ctor_m481305441
sBj:__ZN6il2cpp2vm5Class15GetElementClassEP11Il2CppClass
W3:__ZN10MemoryPoolC2E10MemLabelIdbPKciii
Zgd:__ZN14UnityAnalytics25UnregisterGlobalCallbacksEv
Zxi:__Z80RuntimeInvoker_Boolean_t97287965_ColorBlockU26_t337120346_ColorBlock_t2139031574PFvvEPK10MethodInfoPvPS4_
o6b:__Z40ProcessCameraIndexListIsNodeVisibleInOutRK22SceneCullingParametersPK9SceneNodePK4AABBR9IndexList
eij:_GUIScrollGroup_SetHorizontal_m291416666
TFa:__ZN16GraphicsSettings8TransferI17RemapPPtrTransferEEvRT_
Tfd:__ZN2UI6Canvas13UpdateBatchesEb
Kqg:_X509BasicConstraintsExtension_Decode_m120598446
IB:__ZNK23AnimationPlayableOutput11DerivesFromE17ScriptingClassPtr
wmf:_ObjectReader_ReadObjectGraph_m340866276
ive:__ZL64EventType_t3528516131_CustomAttributesCacheGenerator_dragUpdatedP21CustomAttributesCache
jld:__ZN11UnityEngine7Connect13ConfigHandler12GetListenersERKN4core12basic_stringIcNS2_20StringStorageDefaultIcEEEE
uib:__ZN9GfxDevice18AllocRenderSurfaceEb
eFg:_Char__cctor_m2787437263
Gxc:__ZN10TagManager32GetSortingLayerUniqueIDFromValueEi
byd:_AspectRatioFitter_get_rectTransform_m2996235303
P5:__ZL27CleanupCoreScriptingClassesv
cFd:_Graphic_UnregisterDirtyMaterialCallback_m2707090617
l8e:_Comparer_1_System_Collections_IComparer_Compare_m1313384821_gshared
Yqc:__Z26AnimationCurve_CUSTOM_InitP12Il2CppObjectP11Il2CppArray
Uyk:_glUniform1uiv__wrapper
hSj:__ZN6il2cpp2vm10Reflection7IsEventEP12Il2CppObject
X8:__ZN17PersistentManager26GetStreamNameSpaceInternalEi
nR:__ZN4FMOD6System11createSoundEPKcjP22FMOD_CREATESOUNDEXINFOPPNS_5SoundE
Wn:FUNCTION_TABLE_iiifiiii
iWc:__ZN13SpeedTreeWind20AdvanceWithoutUpdateEd
fXh:_ReadOnlyCollection_1_System_Collections_Generic_ICollectionU3CTU3E_Add_m1422506275_gshared
v5g:_DateTime_System_IConvertible_ToDecimal_m1044850612
V4:__ZN9ShaderLab19CommonPropertyNames13StaticCleanupEPv
k8:__Z31scripting_method_get_returntype18ScriptingMethodPtr
kWa:__ZN15SerializeTraitsI12LightmapDataE8TransferI24GenerateTypeTreeTransferEEvRS0_RT_
zeg:_SecurityElement_AddAttribute_m311510562
Gra:__ZN9Scripting5Unity11Collections44NativeDisableParallelForRestrictionAttribute12CleanupProxyEv
rvk:_glStencilOpSeparate__wrapper
SAc:__ZN4Mesh5SetUvEiPKfjj
WTa:__ZN7Texture13SetAnisoLimitENS_20AnisotropicFilteringE
Epd:__ZN20UnityWebRequestProtoI24UnityWebRequestTransport16AtomicRefCounter14RedirectHelper14ResponseHelper15DownloadHandler13UploadHandler18CertificateHandler12HeaderHelper14AsyncOperationED2Ev
cw:__ZN21AnimationClipPlayable22PrepareAnimationEventsEfR13dynamic_arrayI22AnimationClipEventInfoLj0EE
ZCg:_Attribute_IsDefined_m4069052474
Ph:_emscripten_glCompressedTexSubImage2D
gRb:__ZN13GfxDeviceGLES22MemoryBarrierImmediateEyN2gl17MemoryBarrierTypeE
Cia:__ZN6prcoreL26RemapGenericFloatToIntegerI18TexFormatARGBFloat17TexFormatARGB8888EEvPKNS_9InnerInfoE
CVi:_List_1_set_Capacity_m1977188119_gshared
eCc:__Z46GetShaderModelNumericValueFromRequirementsMask18ShaderRequirements
V1c:_cff_ps_has_glyph_names
Uuh:_Dictionary_2_Resize_m3287623642_gshared
eek:_GC_write
bsf:_RC2_Create_m2516417038
OEd:_Graphic_OnPopulateMesh_m767318148
or:__ZN17ConstraintManagerD2Ev
Xhf:_Dictionary_2_Remove_m4193450060_gshared
GTg:_Int64_TryParse_m3606398488
vGi:_Array_InternalArray__set_Item_TisMark_t3471605523_m1299772331_gshared
dKc:__Z44Register_UnityEngine_GUIStyle_SetDefaultFontv
jyb:__Z18Transfer_BlittableI18StreamedBinaryReadILb1EELb1EiEvRK29SerializationCommandArgumentsR31RuntimeSerializationCommandInfo
MD:__ZN9BlobWrite8TransferI22OffsetPtrArrayTransferIKN4math7_float3EEEEvRT_PKc17TransferMetaFlags
mhi:__Z173RuntimeInvoker_Int32_t2950945753_RuntimeObject_Int32_t2950945753_Int32_t2950945753_Int32_t2950945753_RuntimeObject_Int32_t2950945753_SByte_t1669577662_ContextU26_t3937453398PFvvEPK10MethodInfoPvPS4_
hPi:_List_1__ctor_m2576108087_gshared
YQj:__ZN15dense_hashtableINSt3__24pairIK10KeyWrapperINS1_IPK12PropertyInfoP11Il2CppClassEEEjEES9_17ReflectionMapHashIS8_EN14dense_hash_mapIS9_jSD_NS9_14EqualsComparerINS0_8equal_toIS8_EEEENS0_9allocatorISB_EEE9SelectKeyESI_SK_E12maybe_shrinkEv
Qrj:__ZL25UnresolvedVirtualCall_150P12Il2CppObject19Vector2_t2156229523S1_fiPK10MethodInfo
e7i:_X509Certificate_get_DSA_m565099499
Kyb:__Z18Transfer_BlittableI18StreamedBinaryReadILb1EELb1EsEvRK29SerializationCommandArgumentsR31RuntimeSerializationCommandInfo
cJh:_StringBuilder_Remove_m940064945
x2a:__ZN14SafeBinaryRead21TransferSTLStyleArrayI13dynamic_arrayI16SplashScreenLogoLj0EEEEvRT_17TransferMetaFlags
$lb:__ZN13dynamic_arrayIN16GeometryJobTasks15GeometryJobTaskELj0EE18resize_initializedEjRKS1_12ResizePolicy
Xpf:_DESCryptoServiceProvider_GenerateIV_m683687014
aUa:__ZL21SetAnisoLimitEnumImplN7Texture20AnisotropicFilteringEb
eld:__ZN22BaseUnityConnectClient17OnEnterStateReadyEv
H_f:_Text_get_fontSize_m1677872538
SHh:_List_1_System_Collections_IList_get_Item_m995551621_gshared
jpa:__ZN9Scripting11UnityEngine12Experimental9Rendering15ShadowSplitData9InitProxyEv
w0a:__ZN16BlendShapeVertex8TransferI19StreamedBinaryWriteILb0EEEEvRT_
jrc:__Z29Input_CUSTOM_GetMouseButtonUpi
wRg:_Int16_Parse_m138525169
pMj:__ZN6il2cpp6icalls8mscorlib6System8MonoType16InternalGetEventEP20Il2CppReflectionTypeP12Il2CppStringi
Rfj:_UriScheme_t722425697_marshal_pinvoke_back
N3c:_UNITY_tt_face_load_maxp
zrc:__Z46Input_CUSTOM_INTERNAL_set_compositionCursorPosRK13Vector2fIcall
Iv:__ZN7mecanim5human12FullBodyMaskEv
h_b:__ZN13BatchRenderer15ApplyShaderPassER17ShaderPassContextPK18SharedMaterialDataP6ShaderPN9ShaderLab4PassEi13BatchingFlagsbbPKNS7_10GrabPassesEPK22DeviceRenderStateBlock
__a:__ZN19ShaderPropertySheet11ComputeHashEv
CFj:__ZN30dense_hashtable_const_iteratorI10KeyWrapperIPK19Il2CppGenericMethodES4_N6il2cpp8metadata23Il2CppGenericMethodHashEN14dense_hash_setIS4_S7_NS4_14EqualsComparerINS6_26Il2CppGenericMethodCompareEEENSt3__29allocatorIS4_EEE8IdentityESB_SE_EppEv
BZ:__ZN11UnityEngine15CloudWebService20WebRequestRestClient6IsDoneEv
f4i:_X509CertificateCollection_get_Item_m1033426577
Mi:_llvm_fabs_f32
eZ:__ZN11UnityEngine15CloudWebService16SessionContainer16GetJsonDataBlockEjRKN4core12basic_stringIcNS2_20StringStorageDefaultIcEEEERS6_PjSA_
iph:_ASN1_Decode_m1695284166
mbh:_Enum_ToString_m3248653065
IQd:_ChannelServices__cctor_m2475086854
o7:__ZN14SafeBinaryReadD2Ev
vFh:_Enumerator_MoveNext_m3859993671_gshared
jXc:__ZN14SafeBinaryRead21TransferSTLStyleArrayI13dynamic_arrayIN20TextRenderingPrivate8FontImpl13CharacterInfoELj0EEEEvRT_17TransferMetaFlags
_zb:__ZN8Gradient8TransferI18StreamedBinaryReadILb1EEEEvRT_
vug:_Capture__ctor_m3103117740
kgi:__Z113RuntimeInvoker_Void_t1185182177_RuntimeObject_Int64_t3736567304_RuntimeObject_Int64_t3736567304_Int64_t3736567304PFvvEPK10MethodInfoPvPS4_
OFf:_RangeInt_get_end_m4128831787_AdjustorThunk
p1j:__ZN6il2cpp6icalls8mscorlib6System4Type15MakeGenericTypeEP20Il2CppReflectionTypeP11Il2CppArray
mj:_SDL_PauseAudio
IKg:_Hashtable_Clone_m3078962909
yWj:_il2cpp_class_from_type
iNj:__ZN6il2cpp2os4File11GetStdErrorEv
Tzj:_NativeHeaderAttribute__ctor_m457462113
U4:__ZN9ShaderLab19CommonPropertyNames16StaticInitializeEPv
m7e:_Comparer_1__cctor_m2517796511_gshared
nu:__ZN7mecanim9animation18CreateAvatarOutputEPKNS0_14AvatarConstantEbbRNS_6memory9AllocatorE
q8f:_TlsServerCertificateRequest_Update_m2763887540
xZf:_Slider_set_maxValue_m2251404465
qQ:__ZN11AudioSource23VirtualRedirectTransferER24GenerateTypeTreeTransfer
DAc:__ZN7Texture11SetWrapModeE15TextureWrapMode
FOa:__ZN14Texture2DArray23VirtualRedirectTransferER14SafeBinaryRead
oKe:_MissingMemberException__ctor_m1220732369
W0b:__ZNK6Camera21CalculateCanDoShadowsEv
y9j:__ZN6il2cpp2os6Thread12SetStackSizeEj
OTf:_MaskableGraphic_RecalculateMasking_m183336762
$Ki:_Array_InternalArray__get_Item_TisRuntimeObject_m3347010206_gshared
NId:_TypeBuilder_IsSubclassOf_m3458909121
Hrk:dynCall_viffii
hBb:__Z18Transfer_BlittableI18StreamedBinaryReadILb0EELb1EhEvRK29SerializationCommandArgumentsR31RuntimeSerializationCommandInfo
cyg:_X509Certificate__cctor_m198658613
xEf:_PlayableHandle_Equals_m1666612586_AdjustorThunk
iia:__ZN6prcoreL27StretchGenericFloatBilinearI15TexFormatRFloatEEvPKNS_9InnerInfoE
Fee:__ZL139ServicePointManager_t170559685_CustomAttributesCacheGenerator_ServicePointManager_t170559685____CheckCertificateRevocationList_PropertyInfoP21CustomAttributesCache
ybh:_Enum_ToObject_m1628250250
By:__Z24ProcessAnimationMixBeginP35AnimationPlayableEvaluationConstantP32AnimationPlayableEvaluationInputP33AnimationPlayableEvaluationOutput
NTi:_List_1_set_Item_m2057272351_gshared
YXa:__ZN19StreamedBinaryWriteILb0EE21TransferSTLStyleArrayI13dynamic_arrayI8Vector2fLj0EEEEvRT_17TransferMetaFlags
qSa:__Z14PadImageBorderR14ImageReferenceii
yPj:__ZN15dense_hashtableINSt3__24pairIK10KeyWrapperINS1_IPK10MethodInfoP11Il2CppClassEEEjEES9_17ReflectionMapHashIS8_EN14dense_hash_mapIS9_jSD_NS9_14EqualsComparerINS0_8equal_toIS8_EEEENS0_9allocatorISB_EEE9SelectKeyESI_SK_E4findERSA_
MIj:__ZN6il2cpp2vm13MetadataCache28GetFieldDefaultValueForFieldEPK9FieldInfo
phh:_Array_IndexOf_TisUIVertex_t4057497605_m3336763564_gshared
dz:__ZN27AnimationLayerMixerPlayableD2Ev
nAd:_ColorBlock_Equals_m518833916_AdjustorThunk
HZe:_InternalEnumerator_1_System_Collections_IEnumerator_get_Current_m1514266661_AdjustorThunk
pM:__ZN12AudioManager39HandlePendingAudioConfigurationCallbackEv
vma:__ZL43__ManagedRegistrationHelperFunction_Vector3Pv
lk:_emscripten_glIsFramebuffer
Jrh:_RSAManaged_EncryptValue_m799827583
i7b:__ZN12_GLOBAL__N_16qAtan2Eff
pk:_JS_Sound_SetLoopPoints
Nik:__ZN6il2cpp2vm26MetadataAllocGenericMethodEv
ieh:_Array_InternalArray__ICollection_Remove_TisUInt16_t2177724958_m1766181761_gshared
wTb:__ZN19ConstantBuffersGLES12RecordRenderEv
oOc:__ZN9JSONWrite8TransferI10RectOffsetEEvRT_PKc17TransferMetaFlags
hSa:__ZN4crnd12symbol_codec11decode_bitsEj
V$c:_cf2_doFlex
Cjj:_AesManaged_GenerateIV_m1368817386
BL:__ZN4FMOD6System12createReverbEPPNS_6ReverbE
ick:__ZN6il2cpp2vm6String21InitializeEmptyStringEP11Il2CppClass
Wy:__ZN7mecanim19ValueArrayBlendNodeILb1EEEvRKNS_10ValueArrayERKNS_14ValueArrayMaskERS1_RS4_RNS_16ValueArrayWeightEf
G8a:__Z16MarkDependenciesR27GarbageCollectorThreadStatej
uci:_ObjectPool_1_get_countInactive_m526975942_gshared
pjf:_RemotingServices_DisposeIdentity_m2605848806
fha:__ZNK9Transform11GetPositionEv
Ptf:_Bounds_set_size_m4127623202
YPg:_GuidParser_Reset_m2640004655
fzc:__ZN31CanvasBatchIntermediateRenderer11AddSubBatchERK16DrawBuffersRangePK19ShaderPropertySheet
svc:__ZN19RenderEventsContextC2Ei
cX:__Z6simd4fRKf
Tk:_emscripten_glEnable
n$e:_InternalEnumerator_1_System_Collections_IEnumerator_get_Current_m2982675020_gshared
vva:__ZN10TagManager23VirtualRedirectTransferER14SafeBinaryRead
yDe:__ZL51RawImage_t3182918964_CustomAttributesCacheGeneratorP21CustomAttributesCache
Dea:__ZN14PlayableOutput26ClearInvalidSourcePlayableEv
S3b:__Z15InitLightMeshesv
MKd:_MonoCMethod_ToString_m3992577062
KXj:_RaycastHit_get_collider_m1464180279
RTa:__ZN15QualitySettings8TransferI19StreamedBinaryWriteILb0EEEEvRT_
ANc:__Z18Transfer_BlittableI9JSONWriteLb1E11ColorRGBA32EvRK29SerializationCommandArgumentsR31RuntimeSerializationCommandInfo
CPg:_SortKey_GetHashCode_m3547067087
XSf:_LayoutUtility_U3CGetFlexibleHeightU3Em__7_m2991026842
x$c:_cf2_arrstack_init
iLi:_Array_InternalArray__get_Item_TisResourceCacheItem_t51292791_m1306056717_gshared
sui:__Z157RuntimeInvoker_Void_t1185182177_RuntimeObject_RuntimeObject_RuntimeObject_RuntimeObject_RuntimeObject_RuntimeObject_RuntimeObject_RuntimeObject_RuntimeObjectPFvvEPK10MethodInfoPvPS4_
f2:__Z15CleanLogHandler7LogTypePKcz
BNe:_NumberFormatter_NumberToString_m2481532188
_hc:__ZN9ShaderLab19SerializedSubShader8TransferI19StreamedBinaryWriteILb0EEEEvRT_
IXf:_ScrollRect_InternalGetBounds_m599803667
Zra:__ZN9Scripting5Unity11Collections8LowLevel6Unsafe41NativeContainerIsAtomicWriteOnlyAttribute9InitProxyEv
VEb:__ZN6Camera17RemoveImageFilterERK11ImageFilter
Fmb:__ZNSt3__218__insertion_sort_3IR25ValueParameterArraySorterPN20GpuProgramParameters14ValueParameterEEEvT0_S6_T_
tee:__ZL67EditorBrowsableAttribute_t1475454531_CustomAttributesCacheGeneratorP21CustomAttributesCache
OJg:_Comparer__cctor_m3311686689
R_e:_InternalEnumerator_1_get_Current_m3500427238_AdjustorThunk
Fgd:__ZN2UI26InitializeDeviceForOverlayEi
B3:__Z27LogRepeatingStringWithFlagsRKN4core12basic_stringIcNS_20StringStorageDefaultIcEEEE15LogMessageFlagsi
BSh:_UInt64_System_IConvertible_ToSingle_m925613075
zbh:_Enum_IsDefined_m1442314461
iMh:_Thread__cctor_m817723615
wnj:_AudioExtensionManager_RegisterBuiltinDefinitions_m2742744104
iw:__ZN17AnimationPlayable28ComputeNeedsBindingRebuildedEv
nv:__ZN17AnimationPlayable23RequestAllocateBindingsEv
elg:_DecoderReplacementFallbackBuffer_Fallback_m1261056214
wLe:_Binder_get_DefaultBinder_m950908649
YVg:_StreamReader__ctor_m1616861391
b5c:_tt_cmap6_char_index
bmd:__ZN18UnityConnectClient33OnPlayerSessionStateChangedStaticEPS_jyy
Uag:_RSA_ToXmlString_m2922661427
l_:__ZNK11UnityEngine15CloudWebService23WebRequestUploadHandler11GetProgressEv
NOb:__ZN7ApiGLES4LoadE16GfxDeviceLevelGL
bSa:__ZN4crnd12crn_unpacker22decode_color_endpointsEv
Z4j:__ZN15dense_hashtableI10KeyWrapperIP18Il2CppGenericClassES3_N6il2cpp8metadata22Il2CppGenericClassHashEN14dense_hash_setIS3_S6_NS3_14EqualsComparerINS5_25Il2CppGenericClassCompareEEENSt3__29allocatorIS3_EEE8IdentityESA_SD_E15insert_noresizeERKS3_
Wwc:__ZZL31RegisterOtherRendererPropertiesR22GenericPropertyBindingEN30Wrapper_RendererReceiveShadows13GetFloatValueEPv
Gch:_Array_InternalArray__ICollection_Contains_TisSlot_t384495010_m688761886_gshared
GRa:__ZN17SharedTextureDataC2E10MemLabelIdii13TextureFormatjiibb
ewi:__Z114RuntimeInvoker_RuntimeObject_RuntimeObject_Int32_t2950945753_Int32_t2950945753_Int32_t2950945753_Int32_t2950945753PFvvEPK10MethodInfoPvPS4_
YHb:__ZN8Material11SetPassFastEPN9ShaderLab4PassER17ShaderPassContextP6Shaderib
Mld:__ZN11UnityEngine7Connect20BasePersistentValues10SaveValuesER9JSONWrite
A2i:_Collection_1_IsFixedSize_m3748602684_gshared
x5g:_DateTime_System_IConvertible_ToDouble_m2116720007
d1f:_BitConverterLE_GetUIntBytes_m795219058
Gwf:_Display_GetSystemExtImpl_m2808197389
xNh:_WaitHandle_WaitOne_m2577152516
Mof:_SByte_Parse_m2899090751
Aoa:__ZN9Scripting11UnityEngine20ManagedStreamHelpers12CleanupProxyEv
GWe:_ArrayReadOnlyList_1_GetEnumerator_m1835926958_gshared
FBc:__Z14ScaleCurveTimeR17AnimationCurveTplIfEf
aca:__ZN20GlobalCachingManager7DisposeEv
BZb:__Z12SetupLODFadeR9GfxDeviceR17ShaderPassContextf
dOa:__ZNK14PlayableOutput7GetTypeEv
ePc:__ZN9JSONWrite8TransferI13dynamic_arrayI4AABBLj0EEEEvRT_PKc17TransferMetaFlags
F3b:__ZL24CollectForwardObjectsJobP27CollectForwardObjectsHeader
eRc:__ZN8JSONRead21TransferSTLStyleArrayI13dynamic_arrayIdLj0EEEEvRT_17TransferMetaFlags
$5b:__Z13IsNodeVisibleRK9SceneNodeRK4AABBRK22SceneCullingParameters
Shh:_Array_InternalArray__IndexOf_TisLabelFixup_t858502054_m1491765395_gshared
Dmh:_SortKeyBuffer_AppendCJKExtension_m2591091991
efd:__Z57RectTransformUtility_CUSTOM_INTERNAL_CALL_PixelAdjustRectP12Il2CppObjectS0_R5RectTIfE
OKh:_UTF8Encoding_GetByteCount_m4153686982
QAk:_emscripten_glStencilMask__wrapper
$ei:__Z49RuntimeInvoker_Void_t1185182177_Double_t594665363PFvvEPK10MethodInfoPvPS4_
sFj:__ZN15dense_hashtableI10KeyWrapperIPK19Il2CppGenericMethodES4_N6il2cpp8metadata23Il2CppGenericMethodHashEN14dense_hash_setIS4_S7_NS4_14EqualsComparerINS6_26Il2CppGenericMethodCompareEEENSt3__29allocatorIS4_EEE8IdentityESB_SE_EC2ERKSH_j
eAa:__ZN15RenderNodeQueue7CleanupEv
zhe:__ZL66RuntimePlatform_t4159857903_CustomAttributesCacheGenerator_XBOX360P21CustomAttributesCache
fVc:__ZN16NovodexAllocator8allocateEjPKcS1_i
$2b:__Z17PrepareShadowMapsRK11CullResultsRK11ActiveLightRK10MinMaxAABB
X6i:_DeriveBytes_DeriveIV_m973925711
hSg:_Int32_System_IConvertible_ToSByte_m3133688512
Krd:__ZN9Scripting11UnityEngine12Experimental23SubsystemDescriptorBase9InitProxyEv
B3b:__ZN9ShaderLab10GrabPassesD2Ev
GPa:__ZN14Texture2DArray13UploadTextureEv
yTf:_MaskableGraphic_UpdateCull_m2805101913
t4c:_tt_cmap14_done
G6a:__ZN18AwakeFromLoadQueue25RegisterObjectInstanceIDsEv
ANf:_InputField_UpdateLabel_m1837760870
fEa:__ZN14VertexDataInfo12UpdateFormatEj17ShaderChannelMaskS0_RK19VertexStreamsLayoutRK20VertexChannelsLayout
iz:__ZNK27AnimationLayerMixerPlayable11DerivesFromE17ScriptingClassPtr
qYc:__ZN20TextRenderingPrivate19NativeTextGenerator15InsertCharacterEiPj
qLe:_MonoType_get_attributes_m1332507727
thj:_GUIContent_ClearStaticCache_m1205116045
Gfg:_WindowsIdentity_Dispose_m3466258450
qlf:_BinaryCommon__cctor_m2978407547
n0:__GLOBAL__sub_I_Runtime_Burst_0_cpp
E1b:__Z19GetReflectionSampleRK23ReflectionProbesContextRK22ActiveReflectionProbesRK27PerObjectLightCullingOutputRK10RenderNodejP16ReflectionSample
Hwc:__ZN28ReflectionProbeAnchorManager23HandleAnchorDestructionEPK15TransformAccessj
Jod:__ZL65__ManagedRegistrationHelperFunction_UnityWebRequestAsyncOperationPv
cbi:_IndexedSet_1__ctor_m2250384602_gshared
dRh:_UInt16_TryParse_m4139137016
rEc:__Z41MonoBehaviour_Set_Custom_PropUseGUILayoutP12Il2CppObjecth
qna:__ZN9Scripting11UnityEngine15ResourceRequest12CleanupProxyEv
X8j:__ZN6il2cpp2gc16GarbageCollector9FreeFixedEPv
Klg:_Encoding__ctor_m2997749867
oAf:_ManagedStreamHelpers_ManagedStreamSeek_m3158782053
bej:_ExpressionAssertion_Compile_m2166597834
Dnb:__ZN16ScriptingManagerD0Ev
Ugg:_Single_System_IConvertible_ToSByte_m1208276900_AdjustorThunk
$ck:__ZN6il2cpp6icalls8mscorlib6System7Convert24InternalFromBase64StringEP12Il2CppStringb
l3j:__ZN30dense_hashtable_const_iteratorINSt3__24pairIK10KeyWrapperINS1_IPKcS4_EEEiEES6_24NamespaceAndNamePairHashN14dense_hash_mapIS6_iS9_NS6_14EqualsComparerI26NamespaceAndNamePairEqualsEENS0_9allocatorIS8_EEE9SelectKeyESD_SF_EppEv
TGc:__Z44Register_UnityEngine_Component_get_transformv
RE:__ZN12_GLOBAL__N_120ProcessPlayableGraphERN8Animator11AnimatorJobER35AnimationPlayableEvaluationConstantR32AnimationPlayableEvaluationInputR33AnimationPlayableEvaluationOutputPFvS4_R17AnimationPlayableEPFvS4_S6_S8_EPFvS8_S4_S6_S8_fESE_MS9_FvPS3_PS5_PS7_E
kxj:_CanvasRenderer_get_absoluteDepth_m2703237819
LPg:_TextInfo_ToLower_m2744057472
QUb:__ZN17ArchiveFileSystem12MountArchiveEPKcS1_
$Dj:__ZN14dense_hash_mapI10KeyWrapperIP9FieldInfoEiN6il2cpp5utils11PointerHashIS1_EENS3_14EqualsComparerINSt3__28equal_toIS2_EEEENS9_9allocatorINS9_4pairIKS3_iEEEEE15set_deleted_keyERSF_
aAh:_EqualityComparer_1_System_Collections_IEqualityComparer_Equals_m3977314386_gshared
sNc:__Z18Transfer_BlittableI9JSONWriteLb1E8Vector4fEvRK29SerializationCommandArgumentsR31RuntimeSerializationCommandInfo
S5:__Z11RequireTypePKcS0_S0_
RLg:_CCGregorianCalendar_year_from_fixed_m463929682
bbd:__ZN2UI13CanvasManagerD0Ev
y8f:_TlsServerHello_Update_m3935081401
Csf:_Debug_get_unityLogger_m2239795986
oXh:_ReadOnlyCollection_1_System_Collections_IEnumerable_GetEnumerator_m2123446296_gshared
O1f:_MD2Managed_Initialize_m2341076836
M1h:_ReadOnlyCollection_1_System_Collections_IList_Add_m4240023232_gshared
bjb:__ZN9GfxDevice15ImmediateVertexEfff
IVa:__ZNK16LightmapSettings22GetTypeVirtualInternalEv
hLb:__ZN13GfxDeviceGLES15SetStencilStateEPK18DeviceStencilStatei
jEg:_Buffer_BlockCopyInternal_m418318694
fnk:_cycle
Rck:__ZN6il2cpp2vm8Profiler7GCEventE13Il2CppGCEvent
Mgi:__Z76RuntimeInvoker_Void_t1185182177_RuntimeObject_RuntimeFieldHandle_t1871169219PFvvEPK10MethodInfoPvPS4_
Cd:_emscripten_glUniform1iv
Nlb:__ZN13ComputeShader14SetBufferParamEjRKN9ShaderLab16FastPropertyNameE15ComputeBufferIDb
GMh:_Thread_get_ManagedThreadId_m1068113671
Ufb:__ZN16MemoryFileSystemD2Ev
bhi:__Z150RuntimeInvoker_Int32_t2950945753_RuntimeObject_Int32_t2950945753_Int32_t2950945753_RuntimeObject_Int32_t2950945753_Int32_t2950945753_Int32_t2950945753PFvvEPK10MethodInfoPvPS4_
kDg:_BitConverter_DoubleToInt64Bits_m3574395137
u0g:_DateTime_Parse_m3729096069
mPi:_List_1_System_Collections_IList_Add_m1540114404_gshared
mFa:__ZN16GraphicsSettings27SetLightsUseLinearIntensityEb
oFc:__Z37Register_UnityEngine_Camera_get_depthv
GJf:_StackTraceUtility_ExtractStringFromExceptionInternal_m2686726792
Rwc:__ZZN8Renderer15InitializeClassEvEN32FunctorImpl_146kCullSceneChanged4CallEPviR11MessageData
jIe:_StringReader_Read_m3322058819
XQd:_CrossAppDomainChannel_get_ChannelPriority_m3418073750
uQf:_Selectable_StartColorTween_m3618813981
Osd:_BaseInputModule_HandlePointerExitAndEnter_m1705532066
wcc:__Z23ConvertIntegerToTypePtrItEbPvR14SafeBinaryRead
v9g:_Delegate_CombineImpl_m3572135514
Uxc:__Z13RegisterClassI15EditorExtensionEvPKc
CNe:_NumberFormatter_IntegerToString_m1679294587
V_h:_ReadOnlyCollection_1_System_Collections_IList_RemoveAt_m422909114_gshared
DF:__ZN7mecanim5human29HumanGetGoalOrientationOffsetENS0_4GoalE
Td:_emscripten_glStencilFunc
njc:__ZN9ShaderLab20SerializedSubProgram14AddMatrixParamEPKcii15ShaderParamTypei
_d:_glGetActiveUniformBlockName
wej:_Parser_IsIgnoreCase_m2210120858
CIj:__ZN6il2cpp2vm13MetadataCache28GetGenericContainerFromIndexEi
u8a:__ZN27UnloadUnusedAssetsOperationD0Ev
mN:__ZN4FMOD7Channel20set3DConeOrientationEP11FMOD_VECTOR
mn:FUNCTION_TABLE_iiifii
gRe:_AssemblyBuilder_not_supported_m1735277432
P6j:__ZN6il2cpp2vm12GenericClass11SetupEventsEP11Il2CppClass
jZc:_ft_open_face_internal
R4c:_tt_cmap12_get_info
v2j:__ZN6il2cpp2vm15ReboxIReferenceEP14Il2CppIUnknownP11Il2CppClass
Lyj:__ZN6il2cpp6icalls8mscorlib6System7Decimal14decimalCompareEP19il2cpp_decimal_reprS5_
Whf:_Dictionary_2_OnDeserialization_m4209543208_gshared
zdk:__ZThn4_N6il2cpp2vm13CachedCCWBaseINS0_13ManagedObjectEE7ReleaseEv
Nag:_RNGCryptoServiceProvider_GetNonZeroBytes_m1918423726
rqi:__Z100RuntimeInvoker_Void_t1185182177_RuntimeObject_Int32_t2950945753_Int32_t2950945753_UInt16_t2177724958PFvvEPK10MethodInfoPvPS4_
Vxk:_glCopyTexImage2D__wrapper
hIb:__Z18ClearByDrawingQuad13GfxClearFlagsRK10ColorRGBAffjR17ShaderPassContext
Pha:__ZN6prcoreL17RemapGenericFloatI14TexFormatRHalf15TexFormatRFloatEEvPKNS_9InnerInfoE
E0c:_cf2_getBlueValues
uki:__Z155RuntimeInvoker_Void_t1185182177_RuntimeObject_SByte_t1669577662_SByte_t1669577662_Int64U26_t200113976_ObjectU26_t2146539884_SerializationInfoU26_t419328957PFvvEPK10MethodInfoPvPS4_
wea:__ZN15DirectorManager21RebuildStageCallbacksEv
zIb:__ZN19RuntimeSceneManager9LoadSceneERKN4core12basic_stringIcNS0_20StringStorageDefaultIcEEEES6_S6_RK9UnityGUIDiNS_11LoadingModeE
Esf:_Application_Internal_ApplicationQuit_m2936209313
RNb:__ZN7ApiGLES10DrawArraysE16GfxPrimitiveTypejjj
gR:__ZN10SampleClip13LoadBaseSoundEv
Vyg:_SmallXmlParser_SkipWhitespaces_m4243606597
LMg:_CompareInfo_IndexOf_m2631915198
nrb:__ZN14SafeBinaryRead21TransferSTLStyleArrayI13dynamic_arrayI10Matrix4x4fLj0EEEEvRT_17TransferMetaFlags
NEg:_Byte_CompareTo_m4285128861
fud:_TriggerEvent__ctor_m87299207
Prd:__ZN9Scripting11UnityEngine12Experimental27Internal_SubsystemInstances12CleanupProxyEv
CU:__Z57AudioSource_CUSTOM_INTERNAL_CALL_ClearExtensionPropertiesP12Il2CppObjectRK12PropertyName
I6j:__ZN15dense_hashtableINSt3__24pairIK10KeyWrapperIP12Il2CppObjectEN6il2cpp2gc9CachedCCWEEES5_NS7_5utils11PointerHashIS3_EEN14dense_hash_mapIS5_S9_SD_NS5_14EqualsComparerINS0_8equal_toIS4_EEEENS0_9allocatorISA_EEE9SelectKeyESI_SK_E15insert_noresizeERKSA_
pxh:_EqualityComparer_1__cctor_m3962593840_gshared
$Na:__ZN22DeviceMVPMatricesStateC2ER9GfxDevice
tag:_SslClientStream_Finalize_m1251363641
jZb:__ZNK6Camera32ResolveLastTargetToCurrentTargetEv
fJg:_Comparer_Compare_m3984347512
wUj:__ZN6il2cpp2vm10Reflection12HasAttributeEP9FieldInfoP11Il2CppClass
rpa:__ZN9Scripting11UnityEngine12Experimental9Rendering11CullResults9InitProxyEv
ec:invoke_viiifi
hsc:__Z13RegisterClassI6SpriteEvPKc
vMd:_MonoProperty_GetCustomAttributes_m3619796755
hVd:_MethodDictionary_System_Collections_IEnumerable_GetEnumerator_m4169036899
uOh:_TimeSpan_Subtract_m1264203589
vvh:_DefaultComparer_Equals_m3257444875_gshared
hf:_JS_Sound_SetPosition
TIa:__ZN19RenderBufferManager13GetTempBufferEii17DepthBufferFormat19RenderTextureFormatj22RenderTextureReadWrite14VRTextureUsagei23RenderTextureMemoryless
nIj:__ZL13GetSharedInstPK17Il2CppGenericInst
_Da:__Z27ConvertSubMeshesToTrianglesIjEvR13dynamic_arrayI7SubMeshLj0EERS0_IhLj0EE
Hjd:__ZN22BaseUnityConnectClient17SaveSessionValuesEv
UYe:_InternalEnumerator_1_get_Current_m476140818_gshared
I3b:__Z24SetupActiveLightsContextR21ActiveLightingContextRK12ActiveLightsRK11CullResultsP14ShadowMapCacheRK10MinMaxAABB
qlc:__Z38Sprite_CUSTOM_INTERNAL_get_textureRectP12Il2CppObjectP5RectTIfE
iTj:__ZNK15dense_hashtableINSt3__24pairIK10KeyWrapperIPK22Il2CppGenericParameterEPK24MonoGenericParameterInfoEES6_N6il2cpp5utils11PointerHashIS4_EEN14dense_hash_mapIS6_SA_SF_NS6_14EqualsComparerINS0_8equal_toIS5_EEEENS0_9allocatorISB_EEE9SelectKeyESK_SM_E3endEv
Bnc:__ZN9TextAsset7SetTextERKN4core12basic_stringIcNS0_20StringStorageDefaultIcEEEE
Sya:__ZN6Camera8TransferI24GenerateTypeTreeTransferEEvRT_
Ga:invoke_iiiiiiif
Ea:invoke_iiiiiiii
QFi:_Array_InternalArray__set_Item_TisByte_t1134296376_m3104140039_gshared
MEc:__Z56Register_UnityEngine_MonoBehaviour_IsObjectMonoBehaviourv
$Gf:_Rect_ToString_m447614148
z7i:_PKCS12_GetBytes_m415958948
wXb:__ZN8Renderer17PendingAddToSceneEv
RBk:b122
aCk:b125
YBk:b124
bCk:b126
amc:__Z52Register_UnityEngine_RectTransform_INTERNAL_get_rectv
BBf:_Mesh_SetSizedArrayForChannel_m2565120436
C5:__Z21PostprocessStacktracePKcRN4core12basic_stringIcNS1_20StringStorageDefaultIcEEEE
pAf:_ManagedStreamHelpers_ManagedStreamLength_m2930872960
Mlc:__Z43RectTransform_CUSTOM_INTERNAL_get_anchorMinP12Il2CppObjectP13Vector2fIcall
j6i:_BasicConstraintsExtension_Encode_m2009213240
Koc:__Z47Register_UnityEngine_Camera_get_allCamerasCountv
yzd:___clang_call_terminate
Ljd:__ZN22BaseUnityConnectClient20StartEventDispatcherEv
XAc:__ZNSt3__26vectorIj13stl_allocatorIjL18MemLabelIdentifier1ELi16EEE6assignIPKtEENS_9enable_ifIXaasr21__is_forward_iteratorIT_EE5valuesr16is_constructibleIjNS_15iterator_traitsIS9_E9referenceEEE5valueEvE4typeES9_S9_
gE:__ZN7mecanim9animation16EvaluateAvatarIKEPKNS0_14AvatarConstantEPKNS0_11AvatarInputEPNS0_12AvatarOutputEPNS0_12AvatarMemoryEPNS0_15AvatarWorkspaceEb
uA:__ZN26AnimatorControllerPlayable10GetIntegerEiRi
IWb:__ZN12InputManager13InputEndFrameEv
QBf:_Object_get_name_m4211327027
WXj:__ZN6il2cpp2vm6Thread5SetupEP12Il2CppThread
laf:_Enumerator_System_Collections_IDictionaryEnumerator_get_Key_m2500634048_gshared
yPg:_SortKey_Compare_m1705990888
Zzj:_NativeNameAttribute__ctor_m3296876808
kok:___munmap
$f:_localtime_r
XXb:__ZN22RenderingCommandBuffer13GetAndCheckRTE24BuiltinRenderTextureTypeRKN9ShaderLab16FastPropertyNameEPKcPP13RenderTexture
d1:__Z19free_alloc_internalPv10MemLabelId
ot:__ZN9Scripting11UnityEngine10Animations18PositionConstraint9InitProxyEv
cg:_strftime
iJa:__ZN7Texture33SetStoredColorSpaceNoDirtyNoApplyE17TextureColorSpace
AOd:_ResourceSet__ctor_m3618395942
e8g:_Decimal_System_IConvertible_ToDouble_m3125524987_AdjustorThunk
paa:__ZN12FileAccessorD2Ev
nEa:__ZN14VertexDataInfoC2Ev
H8j:__ZN6il2cpp2gc16GarbageCollector14CollectALittleEv
xzc:__ZNK9HPlayable15GetPlayableTypeEv
xzb:__ZL17Transfer_GUIStyleI18StreamedBinaryReadILb1EELb1EEvRK29SerializationCommandArgumentsR31RuntimeSerializationCommandInfo
LUf:_RectMask2D_IsRaycastLocationValid_m1652308696
C3:__ZNSt3__26__treeINS_12__value_typeIPKciEENS_19__map_value_compareIS3_S4_15compare_tstringIS3_ELb1EEENS_9allocatorIS4_EEE21__emplace_unique_implIJNS_4pairIPciEEEEENSD_INS_15__tree_iteratorIS4_PNS_11__tree_nodeIS4_PvEEiEEbEEDpOT_
fMj:__ZN6il2cpp6icalls8mscorlib6SystemL9IsPrivateEPK12PropertyInfo
I7i:_X501_ToString_m1148552872
QHf:_RectTransform_add_reapplyDrivenProperties_m1374850920
Q4:__ZN9shadertag10InitializeEv
WVc:__GLOBAL__sub_I_Modules_Terrain_Public_1_cpp
OTa:__ZN15QualitySettings14QualitySetting8TransferI24GenerateTypeTreeTransferEEvRT_
GGc:__Z44Register_UnityEngine_Object_DestroyImmediatev
L3g:_Convert_ToSingle_m835189399
Kkc:__ZN22BlockMemoryCacheWriter14LockCacheBlockEjPPhS1_
ZSh:_UInt64_ToString_m2177233542
Ks:__ZN9Scripting11UnityEngine21StateMachineBehaviour9InitProxyEv
dRc:__Z22TransferField_NonArrayI8JSONRead27Converter_SimpleNativeClassI8GUIStyleEEvRK23StaticTransferFieldInfoR31RuntimeSerializationCommandInfoRT0_
$pa:__ZN9Scripting11UnityEngine26ExcludeFromPresetAttribute9InitProxyEv
Jg:_llvm_eh_typeid_for
qkf:_RemotingServices_FindInterfaceMethod_m2125212568
HB:__ZNK23AnimationPlayableOutput7GetTypeEv
rZg:_StreamWriter__cctor_m1229272693
ibh:_Enum_System_IConvertible_ToSByte_m779472798
$Oh:_Type_get_IsInterface_m3284996719
OBb:__Z18Transfer_BlittableI18StreamedBinaryReadILb0EELb1E8Vector4fEvRK29SerializationCommandArgumentsR31RuntimeSerializationCommandInfo
nXc:__ZN14SafeBinaryRead21TransferSTLStyleArrayI13dynamic_arrayIN4core17string_with_labelILi35EEELj0EEEEvRT_17TransferMetaFlags
Irj:__ZL25UnresolvedVirtualCall_142P12Il2CppObject17Color_t2555686324faaaPK10MethodInfo
gvh:_Dictionary_2_U3CCopyToU3Em__0_m2023886030_gshared
qAk:_glBindVertexArray__wrapper
lmf:_SerializationInfo__ctor_m2923079689
rMa:__ZN8Material8TransferI14SafeBinaryReadEEvRT_
IQa:__ZN12CubemapArray17UploadToGfxDeviceEv
BRg:_Int32_JumpOverWhite_m208298144
aAi:__Z53RuntimeInvoker_Int32_t2950945753_UIVertex_t4057497605PFvvEPK10MethodInfoPvPS4_
rzk:_emscripten_glGetUniformiv__wrapper
sdk:__ZN6il2cpp2vm13ManagedObject14QueryInterfaceERK10Il2CppGuidPPv
VN:__ZN11AudioSource4StopEb
Omk:_frexp
Rnk:_fscanf
dnb:__ZN18GlslGpuProgramGLESD2Ev
Y9b:__ZN13RenderTexture14SetVolumeDepthEi
IY:__ZN11UnityEngine15CloudWebService14DataErrorEvent12ToJsonStringERN4core12basic_stringIcNS2_20StringStorageDefaultIcEEEEjPKc
Jpi:__Z86RuntimeInvoker_Void_t1185182177_UInt16_t2177724958_SByte_t1669577662_SByte_t1669577662PFvvEPK10MethodInfoPvPS4_
ajc:__Z22LoadGpuProgramFromDataPKhS0_Rj
JRc:__ZN10Matrix4x4f8TransferI8JSONReadEEvRT_
uUf:_PositionAsUV1_ModifyMesh_m4231919476
hKg:_Hashtable__ctor_m1941859523
a1b:__Z26FindForwardLightsForObjectR13dynamic_arrayIhLj0EEPK11CulledLightjRK12ActiveLightsRK10RenderNodePK19ShaderPropertySheetbRK23FindForwardLightsParamsf
bma:__ZL44__ManagedRegistrationHelperFunction_GPUFencePv
qXf:_ScrollRect_set_horizontalScrollbarSpacing_m2209919081
TRb:__ZN25TransformFeedbackSkinning31CleanupTransformFeedbackShadersEv
xPh:_Type_GetTypeCodeInternal_m1968182887
zza:__Z22scripting_object_unbox18ScriptingObjectPtr
sYc:__ZNK20TextRenderingPrivate8FontImpl19GetCharacterAdvanceEjijfPj
xjh:_Array_InternalArray__ICollection_Add_TisUriScheme_t722425697_m3142345403_gshared
Imk:_fmt_u
QXa:__ZN10VertexData8TransferI18StreamedBinaryReadILb0EEEEvRT_
Klk:__ZN6il2cpp8metadata25Il2CppGenericClassCompare7CompareEPK18Il2CppGenericClassS4_
Cfd:__ZN2UI29ResetVRScreenSpaceWarningFlagEv
YLe:_MonoType_get_Assembly_m4290914179
Ljc:__ZN9ShaderLab7ProgramC2E10MemLabelIdi10ShaderType
Hra:__ZN9Scripting5Unity11Collections8LowLevel6Unsafe29NativeSetThreadIndexAttribute9InitProxyEv
Axa:__ZN12BaseRendererD2Ev
Anc:__ZNSt3__26vectorI4PPtrI10MonoScriptE13stl_allocatorIS3_L18MemLabelIdentifier79ELi16EEE6insertENS_11__wrap_iterIPKS3_EERS9_
Vig:_String_LastIndexOf_m95398196
MGi:_Array_InternalArray__set_Item_TisUILineInfo_t4195266810_m2313892078_gshared
tdc:__ZNK21UnityDefaultAllocatorI17LowLevelAllocatorE8ContainsEPKv
Znf:_RuntimeTypeHandle_Equals_m2857439487
Th:_emscripten_get_main_loop_timing
XPd:_SafeHandle_Finalize_m3866180675
NTa:__ZN24GenerateTypeTreeTransfer21TransferSTLStyleArrayINSt3__26vectorIN15QualitySettings14QualitySettingENS1_9allocatorIS4_EEEEEEvRT_17TransferMetaFlags
_Xg:_MemoryStream_ToArray_m3911744835
M9e:_Enumerator_System_Collections_IDictionaryEnumerator_get_Entry_m859540448_AdjustorThunk
k9b:__ZN23ManagedAttributeManager52CallManagedGetParentTypeDisallowingMultipleInclusionE17ScriptingClassPtr
N1a:__Z10AddGUIAxesR13dynamic_arrayI9InputAxisLj0EE
EPh:_Type_GetHashCode_m1947148725
Ski:__Z91RuntimeInvoker_Void_t1185182177_RuntimeObject_RuntimeObject_RuntimeObject_SByte_t1669577662PFvvEPK10MethodInfoPvPS4_
Q9a:__ZNK2UI13RectTransform22GetTypeVirtualInternalEv
cp:getTempRet0
gtd:_BaseRaycaster_OnEnable_m2678466030
Rxf:_UnityEventBase__ctor_m1851535676
RIi:_Array_Sort_TisVector4_t3319028937_m2797285308_gshared
M7f:_HandshakeMessage_Update_m2417837686
$_j:__ZN6il2cpp6icalls8mscorlib6System9ThreadingL21lookup_cached_cultureEP12Il2CppThreadi
mxf:_NetFxCoreExtensions_CreateDelegate_m751211712
F4b:__ZN18DeferredRenderLoopD2Ev
Oxj:_AnimationLayerMixerPlayable__cctor_m4086299972
Asa:__ZNK16TypeTreeIterator4NameEv
P9:__ZN15FileSystemEntry3SetEPKc
DRe:_ConstructorBuilder_Invoke_m3010446651
Gpc:__Z52Register_UnityEngine_Application_set_targetFrameRatev
Zog:_IPv6Address_set_ScopeId_m3907190992
LXh:_ReadOnlyCollection_1_System_Collections_Generic_IListU3CTU3E_Insert_m568455025_gshared
VM:__ZN20SoundChannelInstance15ParameterBuffer5ApplyEPN4FMOD7ChannelE
Nog:_IPv6Address__ctor_m4117281080
f3g:_Convert_ToInt64_m2075293963
pYc:__ZN20TextRenderingPrivate19NativeTextGenerator9InsertTabEv
$qk:_sbrk
XK:__ZL49__ManagedRegistrationHelperFunction_AudioSettingsPv
fld:__ZN11UnityEngine15PlatformWrapper24GetRuntimePlatformStringEv
Di:_glIsEnabled
lRe:_DerivedType__ctor_m1853298054
$pb:__Z25scripting_class_get_image17ScriptingClassPtr
Vfg:_SecurityException__ctor_m836898292
nIh:_List_1_RemoveAt_m2730968292_gshared
v4a:__ZNSt3__26vectorIN4core12basic_stringIcNS1_20StringStorageDefaultIcEEEE13stl_allocatorIS5_L18MemLabelIdentifier13ELi16EEEC2INS_11__wrap_iterIPS5_EEEET_SE_RKS8_PNS_9enable_ifIXaasr21__is_forward_iteratorISE_EE5valuesr16is_constructibleIS5_NS_15iterator_traitsISE_E9referenceEEE5valueEvE4typeE
Hi:_emscripten_glDrawElementsInstanced
qA:__ZN26AnimatorControllerPlayable27SetupStateMachineBehavioursEv
Phe:__ZL79Camera_t4157153871_CustomAttributesCacheGenerator_Camera_RaycastTry_m3913529496P21CustomAttributesCache
IRf:_LayoutGroup_get_preferredWidth_m3816902260
ZHa:__ZN18JobBatchDispatcherD2Ev
L9a:__ZN9Transform17MainThreadCleanupEv
ggk:_GC_clear_hdr_marks
lBk:_emscripten_glCreateShader__wrapper
W_c:_cff_fd_select_get
y_f:_Text_set_resizeTextForBestFit_m4095249125
Wqg:_OidEnumerator_MoveNext_m3138911739
Lyi:__Z53RuntimeInvoker_Boolean_t97287965_Keyframe_t4206410242PFvvEPK10MethodInfoPvPS4_
Si:_emscripten_glGetShaderiv
mO:__ZN4FMOD6System10getVersionEPj
Wbd:__ZN2UI6Canvas23VirtualRedirectTransferER24GenerateTypeTreeTransfer
HYf:_Selectable_set_animationTriggers_m2970345687
lPc:__ZN9JSONWrite8TransferIN4math12int2_storageEEEvRT_PKc17TransferMetaFlags
$Wc:__ZN13TextRendering4Font13AwakeFromLoadE17AwakeFromLoadMode
RMg:_CompareInfo_LastIndexOf_m2688553706
Zhb:__ZN9GfxDevice21ReleaseSharedMeshDataEP14SharedMeshData
Yvd:_MouseState__ctor_m1467839005
mfj:_Uri_IsDomainAddress_m2867513594
w3a:__ZNSt3__27__sort5IRNS_6__lessINS_4pairIPKN5Unity4TypeE7Hash128EES8_EEPS8_EEjT0_SC_SC_SC_SC_T_
YCd:_Dropdown_CreateItem_m2954407740
aih:_Array_InternalArray__IndexOf_TisSingle_t1397266774_m2563096608_gshared
nfk:_GC_unreachable_finalize_mark_proc
VEf:_PlayerConnectionInternal_PollInternal_m3759016321
rsg:_X509Chain_ProcessCrlExtensions_m236234529
Lgk:_maybe_finalize
RCj:__ZN6il2cpp2vm5Class40GetInterfaceInvokeDataFromVTableSlowPathEPK12Il2CppObjectPK11Il2CppClassj
Plc:__Z43RectTransform_CUSTOM_INTERNAL_get_anchorMaxP12Il2CppObjectP13Vector2fIcall
Tvj:_TextGenerator_INTERNAL_CALL_Populate_Internal_cpp_m4171649399
_jf:_RemotingConfiguration_RegisterChannelTemplate_m3105688054
y1g:_Decimal_Parse_m942471224
YBa:__ZN8Material28UpdateHashesOnPropertyChangeEN9ShaderLab16FastPropertyNameE
zoc:__Z53Register_UnityEngine_SortingLayer_GetLayerValueFromIDv
Z0f:_ASN1_GetBytes_m1968380955
Uob:__Z18Transfer_BlittableI14SafeBinaryReadLb1E8Vector4fEvRK29SerializationCommandArgumentsR31RuntimeSerializationCommandInfo
Qqd:__ZN13RuntimeStaticINSt3__26vectorI23UnityVRDeviceDefinition13stl_allocatorIS2_L18MemLabelIdentifier90ELi16EEEELb0EE13StaticDestroyEPv
uQ:__ZN11AudioSource12AddToManagerEv
Xu:__ZN8Animator23VirtualRedirectTransferER19StreamedBinaryWriteILb0EE
bC:__ZN11UnityEngine9Animation32CreateAnimatorGenericBindingsOptERKNS0_20AnimationSetBindingsER9TransformPKN7mecanim9animation14AvatarConstantEPKNS0_21AvatarBindingConstantEbRNS6_6memory9AllocatorER8Animator
q3j:__ZN6il2cpp2vm5Image13ClassFromNameEPK11Il2CppImagePKcS6_
Erk:dynCall_vdddddd
ihc:__ZN24GenerateTypeTreeTransfer21TransferSTLStyleArrayINSt3__26vectorIN9ShaderLab14SerializedPassENS1_9allocatorIS4_EEEEEEvRT_17TransferMetaFlags
q5:__ZL32MarkLevelGameManagerDependenciesR27GarbageCollectorThreadState
ZMb:__ZNK13GfxDeviceGLES26HasActiveRandomWriteTargetEv
YZd:__ZL54_MemberInfo_t3922476713_CustomAttributesCacheGeneratorP21CustomAttributesCache
gwk:_glGetActiveUniformsiv__wrapper
FMa:__ZN14SafeBinaryRead8TransferINSt3__24pairIN9ShaderLab16FastPropertyNameE10ColorRGBAfEEEEvRT_PKc17TransferMetaFlags
VBf:_Mesh_GetIndices_m2873123901
L7:__ZN13MonoBehaviour19SetupScriptingCacheE17ScriptingClassPtrP10MonoScript
lF:__Z20AnimationEventToMonoRK14AnimationEventR18MonoAnimationEvent
Qwc:__ZZN8Renderer15InitializeClassEvEN28FunctorImpl_145kLayerChanged4CallEPviR11MessageData
Mvd:_PointerEventData_get_dragging_m746831934
L1h:_ReadOnlyCollection_1_System_Collections_IEnumerable_GetEnumerator_m2781605075_gshared
kpa:__ZN9Scripting11UnityEngine12Experimental9Rendering15ShadowSplitData12CleanupProxyEv
gea:__ZZN15DirectorManager15InitializeClassEvEN52PreLateUpdateDirectorUpdateAnimationBeginRegistrator7ForwardEv
hch:_Array_get_swapper_TisCustomAttributeNamedArgument_t287865710_m4254011335_gshared
bFd:_Graphic_RegisterDirtyMaterialCallback_m106898453
yhj:_GUILayoutEntry_get_margin_m3174861737
U2j:__ZNK15dense_hashtableINSt3__24pairIK10KeyWrapperINS1_IPKcS4_EEEiEES6_24NamespaceAndNamePairHashN14dense_hash_mapIS6_iS9_NS6_14EqualsComparerI26NamespaceAndNamePairEqualsEENS0_9allocatorIS8_EEE9SelectKeyESD_SF_E13find_positionERS7_
zgc:__ZNSt3__26vectorIN9ShaderLab14SerializedPassENS_9allocatorIS2_EEE8__appendEj
Ofc:__ZNSt3__26vectorIN9ShaderLab20SerializedSubProgram13BufferBindingENS_9allocatorIS3_EEEC2INS_11__wrap_iterIPS3_EEEET_SB_RKS5_PNS_9enable_ifIXaasr21__is_forward_iteratorISB_EE5valuesr16is_constructibleIS3_NS_15iterator_traitsISB_E9referenceEEE5valueEvE4typeE
Ojg:_Encoding_get_ISOLatin1_m2107621369
m0f:_BigInteger_op_Inequality_m2697143438
bje:__ZL89Mathf_t3464937446_CustomAttributesCacheGenerator_Mathf_SmoothDamp_m394423605____maxSpeed4P21CustomAttributesCache
mGb:__ZNK25PathNamePersistentManager30PathIDToFileIdentifierInternalEi
TSa:__ZN9Texture2D23VirtualRedirectTransferER18StreamedBinaryReadILb0EE
y5g:_DateTime_System_IConvertible_ToDouble_m2116720007_AdjustorThunk
WIg:_BitArrayEnumerator__ctor_m2359341397
TDh:_Enumerator_MoveNext_m1177880931_gshared
Fse:__ZL73g_UnityEngine_TextRenderingModule_Assembly_CustomAttributesCacheGeneratorP21CustomAttributesCache
q8:__ZN16ScriptingManager27NativeTypeForScriptingClassE17ScriptingClassPtr
nSh:_UInt64_System_IConvertible_ToDateTime_m3434604642
jPh:_Type_get_IsSerializable_m1040556850
D3c:_get_sfnt_table
Obj:_Parser_ResolveReferences_m1518052352
DUa:__ZN8Renderer20RendererAddedToSceneEv
h6b:__ZL22ScheduleSceneNodesJobsP25ScheduleSceneNodesJobDataj
Kk:_emscripten_set_canvas_size
lNa:__ZN18StreamedBinaryReadILb0EE19TransferSTLStyleMapINSt3__23mapIN9ShaderLab16FastPropertyNameEfNS2_4lessIS5_EENS2_9allocatorINS2_4pairIKS5_fEEEEEEEEvRT_17TransferMetaFlags
eEd:_Graphic_SetVerticesDirty_m2124914069
UMg:_CultureInfo__ctor_m3285927757
xTf:_MaskableGraphic_get_rootCanvasRect_m3492154629
yUc:__ZN9Scripting11UnityEngine9Physics2D9InitProxyEv
IHi:_Array_Resize_TisRaycastResult_t3360306849_m1811054291_gshared
jvc:__ZN12MeshRenderer27PrepareSingleRendererUpdateER13RendererSceneRS_10MemLabelId
fgc:__ZNSt3__26vectorIN9ShaderLab20SerializedSubProgramENS_9allocatorIS2_EEE8__appendEj
q1:__ZN20DynamicHeapAllocatorI17LowLevelAllocatorE8AllocateEji
zhd:__ZN11UnityEngine9Analytics15UserCustomEvent12ToJsonStringER9JSONWrite
Wij:_Locale_GetText_m2427493201
k_b:__ZN20DynamicPropertySheet15SetVectorQueuedERKN9ShaderLab16FastPropertyNameERK8Vector4fN19ShaderPropertySheet8SetFlagsE
rD:__ZN7mecanim9animation22EvaluateAvatarRetargetEPKNS0_14AvatarConstantEPKNS0_11AvatarInputEPNS0_12AvatarOutputEPNS0_12AvatarMemoryEPNS0_15AvatarWorkspaceEb
QGa:__ZN14RenderSettings23VirtualRedirectTransferER19StreamedBinaryWriteILb0EE
JNc:__ZL26Transfer_SimpleNativeClassI9JSONWrite10RectOffsetLb0EEvRK29SerializationCommandArgumentsR31RuntimeSerializationCommandInfo
Hfk:_GC_push_conditional
qhd:__ZN21UnityAnalyticsManager23VirtualRedirectTransferER24GenerateTypeTreeTransfer
u_a:__ZN17GenericDynamicVBO10AllocateVBEjR21DynamicVBOChunkHandle
I7g:_DBNull_ToString_m3638608738
M4j:__ZN30dense_hashtable_const_iteratorI10KeyWrapperIP18Il2CppGenericClassES3_N6il2cpp8metadata22Il2CppGenericClassHashEN14dense_hash_setIS3_S6_NS3_14EqualsComparerINS5_25Il2CppGenericClassCompareEEENSt3__29allocatorIS3_EEE8IdentityESA_SD_EppEv
TIg:_BitArray_Clone_m3537018332
Plf:_ObjectRecord_UnchainFixup_m3191243952
G5i:_TlsStream_get_CanWrite_m16389328
jfd:__Z15GetUIModuleSpecv
NWc:__ZN9Scripting11UnityEngine8UIVertex9InitProxyEv
hl:_glMapBufferRange
LSa:__ZN9Texture2D8TransferI18StreamedBinaryReadILb0EEEEvRT_
irc:__Z31Input_CUSTOM_GetMouseButtonDowni
Mzc:__ZN13PlayableGraph4PlayEv
wab:__ZNK9Transform16GetLocalPositionEv
$Le:_MonoType_get_BaseType_m1098640416
D5a:__ZN13LoadOperation19IntegrateTimeSlicedEi
Z5i:_TlsStream_Read_m3392972801
hNb:__ZN13GfxDeviceGLES22DispatchComputeProgramE12ObjectHandleI18ComputeProgram_TagPvE15ComputeBufferIDj
_Hf:_Transform_get_localToWorldMatrix_m4155710351
MIh:_Latin1Encoding_GetString_m254210343
F7a:__Z17TransformAABBSlowRK4AABBRK10Matrix4x4fRS_
eCg:_Array_combsort_m4052486289
DFg:_Char_System_IConvertible_ToUInt16_m2449138174
jP:__ZN24AudioScriptBufferManager27InitialCompleteDomainReloadEv
Fec:__ZN9ShaderLab21SerializedShaderState8TransferI14SafeBinaryReadEEvRT_
_bh:_Environment_GetWindowsFolderPath_m1738399646
W$c:_cf2_stack_pushInt
jD:__ZN8Animator19FireAnimationEventsERNS_11AnimatorJobE
kKd:_Module_GetCustomAttributes_m76573271
tpf:_CryptoConfig_EncodeOID_m2635914623
gNa:__ZN15SerializeTraitsINSt3__24pairIN4core12basic_stringIcNS2_20StringStorageDefaultIcEEEES6_EEE8TransferI24GenerateTypeTreeTransferEEvRS7_RT_
Pzk:b89
Ozk:b88
pyk:b81
oyk:b80
tSb:__ZN7ApiGLES19CreateSparseTextureEjj14GraphicsFormatiiiiRiS1_S1_
e9:__ZN18ResourceImageGroup7CleanupEv
Cyk:b85
Byk:b84
Nzk:b87
bkg:_String_CharCopy_m3838781968
YVd:_RemotingSurrogateSelector_GetSurrogate_m3900875713
U3f:_CertificateValidationCallback_Invoke_m1014111289
GIa:__ZN8Playable19SetOutputConnectionEPS_i
HCa:__Z20RenderMultipleMeshesRK15RenderNodeQueueRK18RenderMultipleData16VertexInputMasks
Xl:_glDeleteShader
Xha:__ZN6prcoreL17RemapGenericFloatI15TexFormatRGHalf16TexFormatRGFloatEEvPKNS_9InnerInfoE
CIi:_Array_Sort_TisUICharInfo_t75501106_m128665067_gshared
h2c:_otv_GSUB_validate
vbg:_RSAPKCS1SignatureDeformatter_SetHashAlgorithm_m1602190713
abh:_Enum_System_IConvertible_ToByte_m1219166845
Lhf:_Dictionary_2_CopyToCheck_m45332585_gshared
Sjc:__Z27scripting_add_internal_callPKcPKv
QTj:__ZN13Il2CppHashMapINSt3__24pairIPK9EventInfoP11Il2CppClassEEj17ReflectionMapHashIS7_ENS0_8equal_toIS7_EENS0_9allocatorINS1_IK10KeyWrapperIS7_EjEEEEEC2EjRKS9_RKSB_
Hzf:_Input_get_inputString_m1307069105
bIc:__ZN9Scripting11UnityEngine3GUI9InitProxyEv
U9e:_Enumerator_MoveNext_m1556953412_AdjustorThunk
rv:__ZN26AnimatorControllerPlayable18SetLayerAutoWeightEv
tdd:__Z44Register_UnityEngine_Canvas_get_pixelPerfectv
lej:_Literal_GetAnchorInfo_m810577400
ygd:__ZN2UI14CanvasRenderer12SyncMaterialENS0_8SyncFlagE
CZg:_StreamWriter_Write_m1660535366
Hjk:__ZN6il2cpp2vm9Parameter30GetDefaultParameterValueObjectEPK10MethodInfoPK13ParameterInfoPb
NKh:_UTF8Encoding_GetByteCount_m4152118078
Rqh:_KeyPairPersistence__CanSecure_m3516574278
rc:invoke_iiiiiiiii
Bli:__Z95RuntimeInvoker_Void_t1185182177_RuntimeObject_RuntimeObject_Int32_t2950945753_SByte_t1669577662PFvvEPK10MethodInfoPvPS4_
Trf:_MD5CryptoServiceProvider_Dispose_m3502499818
a0i:_Collection_1_System_Collections_IList_get_Item_m2422562729_gshared
EHa:__ZN12LightManager28IsLightTransformDataUpToDateEPK5Light
p4c:_UNITY_tt_face_done_kern
KWe:_ArrayReadOnlyList_1_RemoveAt_m2104218585_gshared
GXa:__ZN12BoneWeights48TransferI24GenerateTypeTreeTransferEEvRT_
$ka:__ZL49__ManagedRegistrationHelperFunction_PreLateUpdatePv
cHb:__Z19scripting_gc_enablev
W3e:_InternalEnumerator_1_get_Current_m2907722321_gshared
AVb:__ZZ23InitPlayerLoopCallbacksvEN41InitializationPlayerUpdateTimeRegistrator7ForwardEv
vCc:__ZN11UTF16StringC2ERKS_10MemLabelId
f5e:_InternalEnumerator_1_get_Current_m3792939945_AdjustorThunk
Ied:__Z55Register_UnityEngine_CanvasRenderer_DisableRectClippingv
tt:__ZN9Scripting11UnityEngine10Animations16ConstraintSource12CleanupProxyEv
vOh:_TimeSpan_Subtract_m1264203589_AdjustorThunk
B_e:_InternalEnumerator_1_System_Collections_IEnumerator_get_Current_m888718134_gshared
whi:__Z175RuntimeInvoker_Void_t1185182177_SByte_t1669577662_SByte_t1669577662_SByte_t1669577662_SByte_t1669577662_SByte_t1669577662_SByte_t1669577662_SByte_t1669577662_SByte_t1669577662PFvvEPK10MethodInfoPvPS4_
Lgh:_Array_compare_TisRaycastResult_t3360306849_m822404090_gshared
IDf:_Object_Destroy_m3118546832
lXh:_ReadOnlyCollection_1_System_Collections_Generic_IListU3CTU3E_set_Item_m519295790_gshared
W5g:_DateTime_FromTicks_m4059645178_AdjustorThunk
HKi:_Array_InternalArray__get_Item_TisClientCertificateType_t1004704908_m2297379651_gshared
NRd:_ConfigHandler_ParseTime_m1787834288
Uic:__ZN9ShaderLab7Program27CreateFromSerializedProgramERKNS_17SerializedProgramE10ShaderTypeiP16PropertyNamesSetPK6Shader
eeh:_Array_InternalArray__ICollection_Remove_TisX509ChainStatus_t133602714_m3635989134_gshared
EPe:_Assembly_Load_m3487507613
AK:__ZNSt3__27__sort4IRNS_6__lessIN4core12basic_stringIcNS2_20StringStorageDefaultIcEEEES6_EEPS6_EEjT0_SA_SA_SA_T_
fsk:dynCall_viiiifii
sSj:__ZN6il2cpp2gc19AppendOnlyGCHashMapINSt3__24pairIPK11Il2CppImageP11Il2CppClassEEP22Il2CppReflectionModule17ReflectionMapHashIS9_ENS2_8equal_toIS9_EEEC2Ev
w6:__Z20GetPersistentManagerv
z7c:_UNITY_TT_Set_Var_Design
O2:__ZN21SystemInfoStringCache16StaticInitializeEPv
kng:_NameObjectCollectionBase_FindFirstMatchedItem_m840305173
MXh:_ReadOnlyCollection_1_System_Collections_Generic_ICollectionU3CTU3E_Remove_m1100818788_gshared
Ifc:__ZNSt3__26vectorIN9ShaderLab20SerializedSubProgram15StructParameterENS_9allocatorIS3_EEE6assignIPS3_EENS_9enable_ifIXaasr21__is_forward_iteratorIT_EE5valuesr16is_constructibleIS3_NS_15iterator_traitsISA_E9referenceEEE5valueEvE4typeESA_SA_
qWh:_Collection_1_IsSynchronized_m2291009199_gshared
Qid:__ZN9Scripting11UnityEngine9Analytics21AnalyticsSessionState12CleanupProxyEv
DEb:__ZNK13MonoBehaviour7GetNameEv
M8a:__ZN19ScriptingInvocation28AdjustArgumentsToMatchMethodEv
jbi:_IndexedSet_1_Contains_m1525966688_gshared
vM:__Z15_CheckFMODError11FMOD_RESULTPKciS1_
S$j:__ZN6il2cpp6icalls8mscorlib6SystemL16ThrowInvalidCastEPK11Il2CppClassS5_
drf:_HMAC_KeySetup_m661741544
g4j:__ZN6il2cpp2vm5Field11SetValueRawEPK10Il2CppTypePvS5_b
AIh:_Latin1Encoding__ctor_m498920120
xVj:__ZN6il2cpp2vm4Type19GetGenericParameterEPK10Il2CppType
dZg:_StreamReader_Peek_m2272511193
lOg:_DateTimeFormatInfo_FillAllDateTimePatterns_m2683124783
Rdd:__Z51Register_UnityEngine_CanvasGroup_get_blocksRaycastsv
pNe:_NumberFormatter_get_IsFloatingSource_m3714711779
UPh:_Type_GetConstructor_m1195697116
rd:_glBeginQuery
lla:__ZL48__ManagedRegistrationHelperFunction_VisibleLightPv
hwj:_Canvas_get_scaleFactor_m3314757802
pXb:__ZN6Camera12RenderStereoENS_10RenderFlagE8CullFlagPNS_24PerformEyeRenderFunctionE
vcb:__ZN20LocalFileSystemPosix10ToAbsoluteEPKc
iGa:__ZN20TierGraphicsSettings8TransferI19StreamedBinaryWriteILb0EEEEvRT_
GBk:b111
L7a:__Z23CollectSceneGameObjectsR13dynamic_arrayIiLj0EE
Eck:__ZN6il2cpp2vm13ComObjectBase16DisconnectObjectEj
Cm:f0
Ink:_getcwd
Tua:__ZN25ThreadsafeLinearAllocatorD2Ev
L6a:__Z21SendMessageToEveryoneRK17MessageIdentifier11MessageData
Kca:__ZN21BillboardBatchManager16StaticInitializeEPv
b1g:_DateTime_AbsoluteDays_m4235097773
j4:__ZN12_GLOBAL__N_138ArchiveRedirectFileSystemStaticDestroyEPv
Hci:__Z74RuntimeInvoker_RuntimeObject_RuntimeObject_RuntimeObject_SByte_t1669577662PFvvEPK10MethodInfoPvPS4_
YBd:_DefaultControls_CreateScrollView_m3842770629
sUc:__ZL55__ManagedRegistrationHelperFunction_PhysicsJobOptions2DPv
FQa:__ZN12CubemapArray34UpdateFileTextureUploadInstructionEP26FileAssetUploadInstructionj
sSb:__Z23CreateSparseTextureGLES9TextureIDii14GraphicsFormati
P2c:_otv_Anchor_validate
SR:__ZN13dynamic_arrayI12SoundChannelLj0EE9push_backERKS0_
zIg:_SynchronizedArrayListWrapper_CopyTo_m4207791406
NLg:_CCMath_mod_m3631663509
tOh:_TimeSpan_Negate_m1889505500_AdjustorThunk
r$h:_ReadOnlyCollection_1_System_Collections_ICollection_CopyTo_m2715087453_gshared
Vfb:__ZN16MemoryFileSystemD0Ev
_ld:__ZN11UnityEngine7Connect20RemoteConfigSettings7SetJSONER8JSONReadb
DWj:_il2cpp_class_get_assemblyname
tBj:__ZN6il2cpp2vm5Class15GetEnumBaseTypeEP11Il2CppClass
f7f:_Context_set_WriteSequenceNumber_m942577065
Wd:_glVertexAttrib4fv
otg:_X509CertificateEnumerator_Reset_m4026698923
_ck:__ZNK6il2cpp5utils13VmStringUtils23CaseInsensitiveComparerclERKNSt3__212basic_stringIcNS3_11char_traitsIcEENS3_9allocatorIcEEEEPKc
ezd:_CanvasScaler_SetScaleFactor_m3006968999
YDi:__Z78RuntimeInvoker_Boolean_t97287965_Navigation_t3049316579_Navigation_t3049316579PFvvEPK10MethodInfoPvPS4_
eRa:__ZNK9Texture2D16GetNpotTexelSizeEv
dNe:_NumberFormatter_Init_m3576155222
tdb:__ZL33FileEntryInfoListToFolderContentsRKN4core12basic_stringIcNS_20StringStorageDefaultIcEEEERK19dynamic_block_arrayI13FileEntryInfoLj32EERNSt3__23setIS3_NSB_4lessIS3_EENSB_9allocatorIS3_EEEE
ISf:_LayoutUtility_GetLayoutProperty_m714717302
avj:_Terminal_NotifyCommandHandlers_m909296863
Mhb:__ZN9GfxDevice22GetDefaultVertexBufferE26GfxDefaultVertexBufferTypej
Mch:_Array_InternalArray__ICollection_Contains_TisInt64_t3736567304_m2911357929_gshared
jIb:__Z17BeginSplashScreenb
m0i:_Collection_1_Remove_m3022471627_gshared
_nk:___fseeko_unlocked
Opa:__ZN9Scripting11UnityEngine12Experimental9Playables21TexturePlayableOutput12CleanupProxyEv
EOe:_Object_ToString_m1740002499
Snk:_sscanf
Nud:_ExecuteEvents_GetEventChain_m2404658789
MHi:_Array_Resize_TisUILineInfo_t4195266810_m3763058392_gshared
Pof:_SByte_ToString_m3584531119_AdjustorThunk
Xhc:__ZN9ShaderLab16SerializedShader8TransferI19StreamedBinaryWriteILb0EEEEvRT_
Clj:_TrackableProperty_GetHashCode_m3407865350
ku:__ZN7mecanim9animation18CreateAvatarMemoryEPKNS0_14AvatarConstantERNS_6memory9AllocatorE
M$f:_ModulusRing__ctor_m2420310199
g1g:_Convert_ToDateTime_m626620011
naf:_Enumerator_System_Collections_IDictionaryEnumerator_get_Key_m2500634048_AdjustorThunk
BE:__ZN7mecanim8skeleton16SkeletonPoseCopyIN4math4trsXENS2_7affineXEEEvPKNS0_13SkeletonPoseTIT_EEPNS5_IT0_EE
WPb:__ZN18GfxFramebufferGLES18GetFramebufferNameERK20GfxRenderTargetSetup
Fna:__ZN9Scripting11UnityEngine9Transform9InitProxyEv
RUj:__ZN6il2cpp2vm14TypeNameParser12ParseVersionERKNSt3__212basic_stringIcNS2_11char_traitsIcEENS2_9allocatorIcEEEERtSB_SB_SB_
WPf:_InputField_MoveDown_m1455948167
wIc:__Z30Event_Get_Custom_PropCharacterP12Il2CppObject
sea:__ZN13PlayableGraph27SchedulePlayableDestructionERK9HPlayable
_1c:_cff_get_mm_var
ivk:_glGetFramebufferAttachmentParameteriv__wrapper
GQd:_ChannelServices_GetCurrentChannelInfo_m3041604116
Ypb:__Z22scripting_array_length17ScriptingArrayPtr
pIe:_SynchronizedReader_Peek_m148942882
qgi:__Z95RuntimeInvoker_Void_t1185182177_RuntimeObject_Int32_t2950945753_Int32_t2950945753_RuntimeObjectPFvvEPK10MethodInfoPvPS4_
PPa:__ZN14SafeBinaryRead20TransferTypelessDataEjPvi
B8j:__ZN15dense_hashtableINSt3__24pairIK10KeyWrapperIPcES3_EES4_N6il2cpp5utils15PassThroughHashIS3_EEN14dense_hash_mapIS4_S3_SA_NS4_14EqualsComparerINS0_8equal_toIS3_EEEENS0_9allocatorIS6_EEE9SelectKeyESF_SH_E3endEv
aCa:__Z19GetActiveColorSpacev
S3c:_UNITY_tt_face_load_kern
GKd:_MonoMethodInfo_GetDeclaringType_m2924452727
A3:__Z6StrCmpPKcS0_
Kjc:__Z21CheckGpuProgramUsable20ShaderGpuProgramType
vuc:__ZN13ProduceHelperI14Texture2DArrayLb0EE7ProduceE10MemLabelId18ObjectCreationMode
pak:__ZN6il2cpp2os9Directory20GetFileSystemEntriesERKNSt3__212basic_stringIcNS2_11char_traitsIcEENS2_9allocatorIcEEEESA_iiPi
SAg:_Array_System_Collections_IList_Add_m1063688101
gYc:__ZN20TextRenderingPrivate19NativeTextGenerator5SetupEv
d3b:__ZNK15SharedLightData24GetFinalShadowResolutionEv
L2a:__ZN12AspectRatios8TransferI18StreamedBinaryReadILb0EEEEvRT_
clc:__ZN10GameObject14CopyPropertiesERS_
_Jc:__Z44Register_UnityEngine_GUIStyle_get_fixedWidthv
Jdh:_Array_InternalArray__ICollection_Remove_TisLink_t544317964_m1280781374_gshared
iDg:_BitConverter_DoubleWordsAreSwapped_m1474345095
NHg:_FixedSizeArrayListWrapper_set_Capacity_m4221053039
tok:_rand
Mvk:_emscripten_glFramebufferRenderbuffer__wrapper
iBc:__ZN13MeshScripting10CreateMeshE21ScriptingObjectOfTypeI4MeshE
Wx:__ZN17AnimationPlayable22PrepareAnimationEventsEfR13dynamic_arrayI22AnimationClipEventInfoLj0EE
Xqb:__ZN14SafeBinaryRead21TransferSTLStyleArrayINSt3__26vectorI17AnimationCurveTplIfE13stl_allocatorIS4_L18MemLabelIdentifier1ELi16EEEEEEvRT_17TransferMetaFlags
qIg:_SynchronizedArrayListWrapper_Contains_m3809499313
w8f:_HandshakeMessage_Compare_m2214647946
Wdh:_Array_InternalArray__ICollection_Remove_TisLabelData_t360167391_m3556246844_gshared
rrf:_HMACSHA256__ctor_m346174875
dvf:_Color_op_Multiply_m2887457390
C5b:__Z22PrepareOptimizedPlanesPK5PlaneiPKN4math7_float4E
$$:__ZN11UnityEngine15CloudWebService17WebFileDownloaderINS0_20WebRequestRestClientENS0_23WebRequestRestHeaderMapEE10InitializeERKN4core12basic_stringIcNS5_20StringStorageDefaultIcEEEE
Ica:__ZN17UniqueIDGenerator15CreatePureIndexEv
Ksc:__Z48InitializeRectTransformAnimationBindingInterfacev
i5a:__ZNSt3__26vectorIN15ResourceManager10DependencyE13stl_allocatorIS2_L18MemLabelIdentifier52ELi16EEE6assignINS_11__wrap_iterIPS2_EEEENS_9enable_ifIXaasr21__is_forward_iteratorIT_EE5valuesr16is_constructibleIS2_NS_15iterator_traitsISC_E9referenceEEE5valueEvE4typeESC_SC_
IAj:__ZN15dense_hashtableINSt3__24pairIK10KeyWrapperIPK22Il2CppGenericParameterEP11Il2CppClassEES6_N6il2cpp5utils11PointerHashIS4_EEN14dense_hash_mapIS6_S9_SE_NS6_14EqualsComparerINS0_8equal_toIS5_EEEENS0_9allocatorISA_EEE9SelectKeyESJ_SL_E14squash_deletedEv
uLa:__ZN9ShaderLabL27GetDesiredRenderTextureDescEPK6Camera
qFi:_Array_InternalArray__Insert_TisMark_t3471605523_m2854535880_gshared
NAc:__ZN4Mesh24UpdateSubMeshVertexRangeEi
YIc:__Z14GUIClipTextureP9Texture2DPhiiii
Jte:__ZL52HumanBone_t2465339518_CustomAttributesCacheGeneratorP21CustomAttributesCache
FVd:_MethodReturnDictionary__cctor_m278392388
$Yb:__ZNK9Transform18TransformDirectionERK8Vector3f
K4i:_SslStreamBase_get_CanWrite_m1622082918
$Ee:__ZL80CanvasScaler_t2767979955_CustomAttributesCacheGenerator_m_ReferencePixelsPerUnitP21CustomAttributesCache
xoh:_PrimalityTests_RabinMillerTest_m1471415870
vDh:_Enumerator_MoveNext_m2114485647_gshared
$Te:_GenericTypeParameterBuilder_GetCustomAttributes_m580748276
xHj:__ZN15dense_hashtableINSt3__24pairIK10KeyWrapperIPK11Il2CppClassEPKcEES6_N6il2cpp5utils11PointerHashIS3_EEN14dense_hash_mapIS6_S9_SE_NS6_14EqualsComparerINS0_8equal_toIS5_EEEENS0_9allocatorISA_EEE9SelectKeyESJ_SL_E12resize_deltaEjj
cqk:__ZNK10__cxxabiv120__si_class_type_info27has_unambiguous_public_baseEPNS_19__dynamic_cast_infoEPvi
R$f:_Kernel_LeftShift_m4140742987
rPe:_Assembly_GetManifestResourceInternal_m1224391897
PCa:__Z30AddDefaultStreamsToMeshBuffersR9GfxDeviceR11MeshBuffersj17ShaderChannelMaskS3_
M3:__ZL16GetInterfaceImpl18UnityInterfaceGUID
Nck:__ZN6il2cpp6icalls8mscorlib6System15MonoCustomAttrs27GetCustomAttributesInternalEP12Il2CppObjectP20Il2CppReflectionTypeb
F1e:_InternalEnumerator_1_get_Current_m1408339225_AdjustorThunk
W7c:_UNITY_TT_Set_MM_Blend
pra:__ZN9Scripting11UnityEngine11Application9InitProxyEv
BIb:__ZN14PreloadManager35WaitForAllAsyncOperationsToCompleteEv
XCj:__ZN13Il2CppHashMapIP9FieldInfoiN6il2cpp5utils11PointerHashIS0_EENSt3__28equal_toIS1_EENS6_9allocatorINS6_4pairIK10KeyWrapperIS1_EiEEEEEC2EjRKS5_RKS8_
rM:__ZL31InitializeAudioScriptingClassesv
uYb:__Z14SortGUIByDepthP10GUIElementS0_
TCf:_PlayerConnection_OnEnable_m4286555589
tF:__ZN12_GLOBAL__N_120ProcessRootMotionMixER33AnimationPlayableEvaluationOutputR35AnimationPlayableEvaluationConstantR32AnimationPlayableEvaluationInputS1_f
Xfj:_UriParser__cctor_m3655686731
ySf:_LayoutRebuilder_U3Cs_RebuildersU3Em__0_m589488547
Xcb:__ZNK20LocalFileSystemPosix21GetAvailableDiskSpaceEPKcRy
wK:__ZNSt3__26__treeIiNS_4lessIiEENS_9allocatorIiEEE7destroyEPNS_11__tree_nodeIiPvEE
xhb:__ZNK9GfxDevice14GetWorldMatrixEv
XKf:_Transform_set_parent_m786917804
Foj:_AudioSampleProvider_InternalSetScriptingPtr_m3742743270
AZf:_Slider_get_value_m739683640
tbb:__Z19scripting_array_new17ScriptingClassPtrjj
T2g:_Convert_ToInt32_m2128774575
LR:__ZN11SoundHandle13CreateChannelEb
ngc:__ZNSt3__26vectorIN9ShaderLab20SerializedSubProgram16TextureParameterENS_9allocatorIS3_EEE6assignIPS3_EENS_9enable_ifIXaasr21__is_forward_iteratorIT_EE5valuesr16is_constructibleIS3_NS_15iterator_traitsISA_E9referenceEEE5valueEvE4typeESA_SA_
_Fj:__ZN13Il2CppHashMapIN6il2cpp5utils13dynamic_arrayIPK10Il2CppTypeLj4EEEPFvvENS0_8metadata19Il2CppSignatureHashENS9_22Il2CppSignatureCompareENSt3__29allocatorINSC_4pairIK10KeyWrapperIS6_ES8_EEEEEC2EjRKSA_RKSB_
_Sj:__ZN15dense_hashtableINSt3__24pairIK10KeyWrapperIPK22Il2CppGenericParameterEPK24MonoGenericParameterInfoEES6_N6il2cpp5utils11PointerHashIS4_EEN14dense_hash_mapIS6_SA_SF_NS6_14EqualsComparerINS0_8equal_toIS5_EEEENS0_9allocatorISB_EEE9SelectKeyESK_SM_E15set_deleted_keyERKSB_
Nof:_SByte_TryParse_m2431806379
oIa:__ZN6prcoreL11inner_clearILj2EEEvPhjjj
$ra:__ZN9Scripting5Unity11Collections8LowLevel6Unsafe24NativeContainerAttribute9InitProxyEv
pqf:_DSACryptoServiceProvider_get_KeySize_m786836990
Hg:_emscripten_exit_fullscreen
SGi:_Array_qsort_TisBoolean_t97287965_TisBoolean_t97287965_m214793583_gshared
ECh:_Enumerator_System_Collections_IEnumerator_Reset_m1564381721_gshared
Qsc:__ZZL31RegisterRectTransformPropertiesR22GenericPropertyBindingEN39Wrapper_RectTransformAnchoredPositiony113GetFloatValueEPv
yOe:_Object_MemberwiseClone_m1474068832
h9j:__ZN6il2cpp6icalls8mscorlib6System6String19InternalAllocateStrEi
jSc:__Z29Transfer_Blittable_ArrayFieldI8JSONRead11QuaternionfEvRT_R9ArrayInfoRK23StaticTransferFieldInfo
Joc:__Z45Register_UnityEngine_Camera_get_targetDisplayv
oxc:__ZNK24RendererAnimationBinding15GenerateBindingERKN4core12basic_stringIcNS0_20StringStorageDefaultIcEEEEbRN11UnityEngine9Animation14GenericBindingE
bpg:_IPv6Address__ctor_m3704187391
CHa:__Z15GetFlareManagerv
ou:__ZN8Animator13GetAvatarRootEv
mjh:_Array_InternalArray__ICollection_Add_TisResourceCacheItem_t51292791_m3851804827_gshared
tmk:___toread
qGb:__ZNSt3__26vectorI10vector_mapIiiNS_4lessIiEE13stl_allocatorINS_4pairIiiEEL18MemLabelIdentifier38ELi16EEES4_IS9_LS7_38ELi16EEE26__swap_out_circular_bufferERNS_14__split_bufferIS9_RSA_EE
n$f:_BigInteger_get_Rng_m3283260184
Fqk:___cxa_is_pointer_type
nJ:__ZN8Animator22ScriptingStringToCRC32ERK11ICallString
vF:__ZN7mecanim9animation16EvaluateAvatarDXEPKNS0_14AvatarConstantEPKNS0_11AvatarInputEPNS0_12AvatarMemoryEPNS0_15AvatarWorkspaceEPNS0_12AvatarOutputE
Hwd:_RaycastResult_ToString_m2678663776_AdjustorThunk
QKi:_Array_InternalArray__get_Item_TisKeyValuePair_2_t2530217319_m2886833132_gshared
Mka:__ZL50__ManagedRegistrationHelperFunction_UnityEventBasePv
oqc:__Z34Transform_CUSTOM_SetAsFirstSiblingP12Il2CppObject
LPf:_InputField_Delete_m3471899192
Mjf:_RemotingConfiguration_get_ProcessId_m2180277012
xY:__ZN11UnityEngine15CloudWebService17SessionEventQueue14ParseEventDataERKN4core12basic_stringIcNS2_20StringStorageDefaultIcEEEE
Hpg:_WebHeaderCollection_Add_m183143026
POb:__ZN13TranslateGLES4InitERK12GraphicsCaps16GfxDeviceLevelGL
nTg:_Int64_System_IConvertible_ToUInt16_m848637338_AdjustorThunk
rid:__Z32CustomEventData_CUSTOM_AddUInt32P12Il2CppObjectP12Il2CppStringj
Ehh:_Array_InternalArray__IndexOf_TisLink_t544317964_m455584088_gshared
VWi:_Enumerator_get_Current_m2282646120_AdjustorThunk
f$h:_ReadOnlyCollection_1_IndexOf_m2539022912_gshared
hEe:__ZL66Selectable_t3250028441_CustomAttributesCacheGenerator_m_TransitionP21CustomAttributesCache
lkk:__ZN6il2cpp2os6Memory12AlignedAllocEjj
nPc:__ZN9JSONWrite8TransferI13dynamic_arrayIN4math12int3_storageELj0EEEEvRT_PKc17TransferMetaFlags
G_f:_Text_set_alignByGeometry_m3828822280
Mdk:__ZN6il2cpp8metadataL7CompareEPK10Il2CppTypeS3_
hmg:_HybridDictionary__ctor_m1681134385
kya:__ZN21ScalableBufferManager11GetInstanceEv
zBb:__Z18Transfer_BlittableI18StreamedBinaryReadILb0EELb1E10ColorRGBAfEvRK29SerializationCommandArgumentsR31RuntimeSerializationCommandInfo
DOh:_TimeSpan_op_LessThan_m1594498345
Umc:__ZL27GetComponentsImplementationILb0ELi0EEbR10GameObjectbRK17CompareParametersRK39GetComponentsImplementation_ReturnValue
pFb:__ZN9Scripting36IsSystemCollectionsGenericDictionaryE17ScriptingClassPtr
nai:_UnityEvent_1_FindMethod_Impl_m322741469_gshared
lLf:_Enumerator_get_Current_m2591725252
J9:__ZL16ReadTypeTreeImplILb0EEbR8TypeTreeRK16TypeTreeIteratorRPKhS6_i
vwg:_Interval_Contains_m110351300_AdjustorThunk
M2g:_Convert_ToInt32_m3048308591
Eu:__ZN25RuntimeAnimatorControllerD2Ev
PUf:_RectMask2D_OnCanvasHierarchyChanged_m3195492255
e7g:_DateTimeOffset_Equals_m3030958070
fHa:__ZNK22BuiltinResourceManager21GetResourceInstanceIDEPKN5Unity4TypeERKN4core12basic_stringIcNS4_20StringStorageDefaultIcEEEE
noc:__Z42Register_UnityEngine_RectOffset_set_bottomv
Ukj:_AnalyticsTracker_BuildParameters_m43920649
RNg:_DateTimeFormatInfo_GetMonthName_m2034512315
z_b:__ZN28LightProbeProxyVolumeContext8CopyFromERKS_
S$h:_ReadOnlyCollection_1_System_Collections_Generic_IListU3CTU3E_Insert_m2489506856_gshared
qxa:__ZN23TransformChangeDispatch32QueueTransformChangeIfHasChangedER18TransformHierarchy
gBf:_Matrix4x4_MultiplyPoint_m1575665487
uRb:__ZN7ApiGLES18DeleteRenderbufferERj
GQb:__ZL23ProgramUniformMatrix4fvPK7ApiGLESjiihPKv
HKb:__ZN7ApiGLES13CreateTextureEjj14GraphicsFormatiiiii
jCg:_Array_new_gap_m262136975
Vfc:__ZN9ShaderLab20SerializedSubProgram15MatrixParameter8TransferI14SafeBinaryReadEEvRT_
Wmc:__ZL27GetComponentsImplementationILb0ELi1EEbR10GameObjectbRK17CompareParametersRK39GetComponentsImplementation_ReturnValue
wsg:_X509Store__ctor_m275383717
GKf:_Transform_INTERNAL_get_position_m1310184257
H6c:_Round_Down_To_Grid
TIj:__ZN6il2cpp2vm13MetadataCache40AddThreadLocalStaticOffsetForFieldLockedEP9FieldInfoiRKNS_2os12FastAutoLockE
Kza:__ZN13RenderTexture7ReleaseEv
IPc:__Z18Transfer_BlittableI8JSONReadLb1EN4math12int3_storageEEvRK29SerializationCommandArgumentsR31RuntimeSerializationCommandInfo
H_a:__ZN10MeshFilter23VirtualRedirectTransferER14SafeBinaryRead
W0a:__ZN12MeshRenderer17MainThreadCleanupEv
xBj:__ZN6il2cpp2vmL10InitLockedEP11Il2CppClassRKNS_2os12FastAutoLockE
gmb:__ZN22CreateGpuProgramOutput12CreateParamsEv
zN:__ZN10ObjectPoolIN4FMOD7ChannelENS0_8ChannelIEE7GetFreeEi
Bs:__ZL62__ManagedRegistrationHelperFunction_AnimatorOverrideControllerPv
d0h:_ReadOnlyCollection_1_System_Collections_IList_Insert_m177536056_gshared
d$e:_InternalEnumerator_1_System_Collections_IEnumerator_get_Current_m548105685_gshared
GOb:__ZNK14GfxContextGLES13GetDefaultFBOEv
kEg:_Byte_System_IConvertible_ToType_m2251112646
PEc:__Z55Register_UnityEngine_MonoBehaviour_StopCoroutineManagedv
Dvi:__Z81RuntimeInvoker_Char_t3634460470_RuntimeObject_Int32_t2950945753_Int16_t2552820387PFvvEPK10MethodInfoPvPS4_
_5g:_DateTime_get_Hour_m4153505178_AdjustorThunk
Qnj:_AudioExtensionManager_WriteExtensionProperties_m3028464154
$eg:_Evidence_Equals_m1478353107
pAc:__Z13GetImagePixelI10ColorRGBAfET_PKhii13TextureFormat15TextureWrapModeS5_ii
tQi:_List_1_System_Collections_IList_set_Item_m1842844683_gshared
qci:_ObjectPool_1__ctor_m2535233435_gshared
aYj:__ZN6il2cpp2vm6Thread49CheckCurrentThreadForInterruptAndThrowIfNecessaryEv
r0g:_Convert_ToChar_m3757390865
uCa:__ZNSt3__23mapIN9ShaderLab16FastPropertyNameEN18UnityPropertySheet11UnityTexEnvENS_4lessIS2_EENS_9allocatorINS_4pairIKS2_S4_EEEEEixERS9_
IKb:__ZNK13TranslateGLES25GetTextureTargetDimensionEj
dZh:_ReadOnlyCollection_1_System_Collections_IList_Remove_m1842121503_gshared
WVg:_File_OpenRead_m2936789020
x5:__ZN9Scripting12LogExceptionE21ScriptingExceptionPtriPKcb
tsi:__Z94RuntimeInvoker_Void_t1185182177_RuntimeObject_PlayableGraph_t3515989261_RuntimeObject_IntPtr_tPFvvEPK10MethodInfoPvPS4_
Ii:_emscripten_glVertexAttrib4f
Vrb:__ZN14SafeBinaryRead21TransferSTLStyleArrayI13dynamic_arrayIN4math12int3_storageELj0EEEEvRT_17TransferMetaFlags
hjc:__ZNSt3__26vectorIN20GpuProgramParameters14ConstantBufferENS_9allocatorIS2_EEE8__appendEj
etg:_X509CertificateCollection_AddRange_m3683116910
gRd:_SinkProviderData__ctor_m1624738837
Zui:__Z88RuntimeInvoker_RuntimeObject_RuntimeObject_SByte_t1669577662_RuntimeObject_RuntimeObjectPFvvEPK10MethodInfoPvPS4_
PQe:_CustomAttributeTypedArgument_Equals_m2261980307
Wz:__ZN7mecanim12statemachine24CreateStateMachineMemoryEPKNS0_20StateMachineConstantERNS_6memory9AllocatorE
sjb:__ZN9GfxDevice18SetGlobalDepthBiasEff
eLj:__ZN6il2cpp6icalls8mscorlib6System8MonoType12get_AssemblyEP20Il2CppReflectionType
Wi:_emscripten_glGetPointerv
GJi:_Dictionary_2_Do_CopyTo_TisKeyValuePair_2_t3842366416_TisRuntimeObject_m1564656153_gshared
cF:__ZN8Animator22ApplyBuiltinRootMotionEv
Tqc:__Z14BezierExtractUfff
ZHb:__Z26ApplyMaterialPassWithCacheRK18SharedMaterialDataR17ShaderPassContextP6ShaderPN9ShaderLab4PassEibPKNS6_10GrabPassesEPNS6_11SubProgramsEPK22DeviceRenderStateBlock
Qhe:__ZL81Camera_t4157153871_CustomAttributesCacheGenerator_Camera_RaycastTry2D_m2460696262P21CustomAttributesCache
vMe:_MulticastDelegate_KPM_m22863605
L2e:_InternalEnumerator_1_get_Current_m1897120917_AdjustorThunk
ULe:_MonoType_ReorderParamArrayArguments_m2458683451
mlf:_FormatterConverter_ToInt16_m4282804414
Gki:__Z81RuntimeInvoker_Void_t1185182177_Int64_t3736567304_RuntimeObject_Int64_t3736567304PFvvEPK10MethodInfoPvPS4_
lxd:_StandaloneInputModule_ProcessTouchPress_m4019232747
SVg:_FileStream__ctor_m3151488352
iCg:_Array_swap_m547389985
vUa:__ZN8Renderer23VirtualRedirectTransferER14SafeBinaryRead
eSh:_UInt32_ToString_m2420423038
uNi:_List_1_System_Collections_IList_Add_m634558835_gshared
uWg:_FileStream_get_Length_m426703983
Yyc:__Z13RegisterClassI10TagManagerEvPKc
HBj:__ZN6il2cpp2vmL15GetBitmapNoInitEP11Il2CppClassPjRjj
YL:__ZN12AudioManager5ResetEv
lhe:__ZL68DisallowMultipleComponent_t1422053217_CustomAttributesCacheGeneratorP21CustomAttributesCache
hia:__ZN6prcoreL17RemapGenericFloatI17TexFormatRGBAHalf15TexFormatRGHalfEEvPKNS_9InnerInfoE
Aak:__ZN6il2cpp6icalls8mscorlib6System11Environment20GetWindowsFolderPathEi
Ky:__ZN7mecanim5human18HumanPoseBlendNodeERNS0_9HumanPoseEPS1_f
_0c:_UNITY_FT_RoundFix
xUc:__ZN9Scripting11UnityEngine19PhysicsJobOptions2D12CleanupProxyEv
ghk:_GC_is_heap_ptr
L8f:_HandshakeMessage_EncodeMessage_m3919107786
jph:_ASN1_DecodeTLV_m1200977460
Yxf:_UnityEventBase_PrepareInvoke_m1785382128
Y0a:__ZNK12MeshRenderer22GetTypeVirtualInternalEv
FFg:_Char_System_IConvertible_ToUInt32_m3901815580
_Vf:_Scrollbar_set_onValueChanged_m346467699
eni:__Z157RuntimeInvoker_Int32_t2950945753_RuntimeObject_Int32_t2950945753_Int32_t2950945753_Int32_t2950945753_SByte_t1669577662_SByte_t1669577662_Int32U26_t1369213839PFvvEPK10MethodInfoPvPS4_
WO:__ZN4FMOD6System17setSoftwareFormatEi17FMOD_SOUND_FORMATii18FMOD_DSP_RESAMPLER
sMa:__ZN14SafeBinaryRead19TransferSTLStyleMapINSt3__23mapIN4core12basic_stringIcNS3_20StringStorageDefaultIcEEEES7_NS1_4lessIS7_EE13stl_allocatorINS1_4pairIKS7_S7_EEL18MemLabelIdentifier1ELi16EEEEEEvRT_17TransferMetaFlags
js:__ZL49__ManagedRegistrationHelperFunction_AimConstraintPv
Cgd:__ZN2UI6Canvas27UpdateEventIndexesRecursiveERi
EY:__ZN11UnityEngine15CloudWebService16SessionContainer21PrepareDataErrorEventERN4core12basic_stringIcNS2_20StringStorageDefaultIcEEEE
Bud:_ExecuteEvents_get_pointerUpHandler_m3515704212
zGg:_ArrayList_set_Item_m2003485935
POd:_SatelliteContractVersionAttribute__ctor_m3630863995
uwd:_MouseButtonEventData_PressedThisFrame_m1060658845
Axb:__Z19TransferField_ArrayI19StreamedBinaryWriteILb0EE27Converter_SimpleNativeClassI8GUIStyleEEvRK23StaticTransferFieldInfoR31RuntimeSerializationCommandInfoRT0_
hYb:__Z27SetClippingPlaneShaderPropsR9GfxDevice
xZh:_ReadOnlyCollection_1_System_Collections_Generic_IListU3CTU3E_RemoveAt_m3969985996_gshared
IEa:__Z28BuildSingleStreamChannelInfoP11ChannelInfo17ShaderChannelMaskS1_
RCf:_PlayerConnection_get_isConnected_m911966057
oFd:_GraphicRegistry_GetGraphicsForCanvas_m4219276355
PMe:_NumberFormatter_FastToDecHex_m699829267
Laj:_PatternCompiler_MakeFlags_m1977119795
wPc:__Z35Transfer_Blittable_FixedBufferFieldI8JSONReadiEvRK29SerializationCommandArgumentsR31RuntimeSerializationCommandInfo
CJj:__ZNSt3__213__vector_baseIN6il2cpp2os19SocketHandleWrapperENS_9allocatorIS3_EEED2Ev
_Zd:__ZL48_Type_t3588564251_CustomAttributesCacheGeneratorP21CustomAttributesCache
cVa:__ZN28ReflectionProbeAnchorManager18RemoveCachedAnchorERK4PPtrI9TransformE
$b:invoke_viiffi
Dac:__ZN13sorted_vectorINSt3__24pairIN4core12basic_stringIcNS2_20StringStorageDefaultIcEEEEPK17MessageIdentifierEEN10vector_mapIS6_S9_NS0_4lessIS6_EENS0_9allocatorISA_EEE13value_compareESF_E10insert_oneERKSA_
JSc:__ZN5Unity9rapidjson13GenericReaderINS0_4UTF8IcEES3_13JSONAllocatorE10ParseFalseILj0ENS0_19GenericStringStreamIS3_EENS0_15GenericDocumentIS3_S4_S4_EEEEvRT0_RT1_
VCa:__ZL13MeshExtractorPv16VertexInputMasksiR11MeshBuffersR16DrawBuffersRangeRiS5_
uQa:__ZNK12CubemapArray20GetRuntimeMemorySizeEv
mOh:_TimeSpan_FromHours_m1109641064
Rgc:__Z14resize_trimmedINSt3__26vectorIN9ShaderLab18SerializedPropertyENS0_9allocatorIS3_EEEEEvRT_j
eHj:__ZN6il2cpp2vm13MetadataCache38GetMethodInfoFromMethodDefinitionIndexEi
mtd:_EventSystem_set_current_m38955169
CEc:__Z39MonoBehaviour_CUSTOM_GetScriptClassNameP12Il2CppObject
fEe:__ZL53Selectable_t3250028441_CustomAttributesCacheGeneratorP21CustomAttributesCache
N9i:_CostDelegate_EndInvoke_m2797921932
EXa:__ZN10VertexData8TransferI24GenerateTypeTreeTransferEEvRT_
W$g:_Double_IsInfinity_m820013146
Qak:__ZN13Il2CppHashMapIPK19Il2CppGenericMethodP10MethodInfoN6il2cpp8metadata23Il2CppGenericMethodHashENS6_26Il2CppGenericMethodCompareENSt3__29allocatorINS9_4pairIK10KeyWrapperIS2_ES4_EEEEEC2EjRKS7_RKS8_
LIf:_Screen_get_dpi_m495672463
MKh:_UTF8Encoding_InternalGetByteCount_m2120178851
a5b:__ZL10CullLightsRK22SceneCullingParametersR11CullResults
R4g:_Convert_ToUInt64_m3170916409
Frd:__ZN9Scripting11UnityEngine12Experimental2XR14ReferencePoint12CleanupProxyEv
bTg:_Int64_System_IConvertible_ToInt16_m4062196970_AdjustorThunk
pMe:_MonoType_GetGenericTypeDefinition_m3201894896
opc:__Z40GetTemporaryCachePathApplicationSpecificv
Uhb:__ZN9GfxDevice16EndAsyncJobFrameEv
Hwi:__Z99RuntimeInvoker_Int32_t2950945753_Ray_t3785851493_RuntimeObject_Single_t1397266774_Int32_t2950945753PFvvEPK10MethodInfoPvPS4_
L3c:_UNITY_tt_face_load_hhea
sSe:_DerivedType_get_Assembly_m2979298667
Uk:___syscall3
Xk:___syscall6
Zk:___syscall4
bSe:_DerivedType_GetMethods_m3787404845
_Vd:_ReturnMessage__ctor_m2352989078
Qgb:__ZNSt3__26__treeINS_12__value_typeIN4core12basic_stringIcNS2_20StringStorageDefaultIcEEEEPN16MemoryFileSystem4NodeEEENS_19__map_value_compareIS6_SA_NS_4lessIS6_EELb1EEE13stl_allocatorISA_L18MemLabelIdentifier55ELi16EEE7destroyEPNS_11__tree_nodeISA_PvEE
uti:__Z67RuntimeInvoker_Boolean_t97287965_TextGenerationSettings_t1351628751PFvvEPK10MethodInfoPvPS4_
E6j:__ZN6il2cpp2vm3RCW14QueryInterfaceILb1EEEP14Il2CppIUnknownP15Il2CppComObjectRK10Il2CppGuid
r6f:_TlsServerCertificateRequest__ctor_m1334974076
kTc:__ZN27PerformanceReportingManager23VirtualRedirectTransferER14SafeBinaryRead
P2g:_Convert_ToInt32_m1613163543
ooa:__ZN9Scripting11UnityEngine9Playables8Playable12CleanupProxyEv
XYh:_ReadOnlyCollection_1_System_Collections_ICollection_CopyTo_m3127175806_gshared
ml:_emscripten_glShaderBinary
zfg:_String_op_Inequality_m215368492
lRh:_UInt16_ToString_m760649087
Pcb:__ZNK20LocalFileSystemPosix6ExistsERK13FileEntryData
Ouf:_Camera_GetAllCameras_m668492922
Edd:__Z58Register_UnityEngine_Canvas_GetETC1SupportedCanvasMaterialv
COh:_TimeSpan_op_Inequality_m2467851530
dAb:__ZN17AnimationCurveTplIfE8TransferI18StreamedBinaryReadILb1EEEEvRT_
HIi:_Array_Sort_TisUIVertex_t4057497605_m3996333845_gshared
CCg:_Swapper_BeginInvoke_m1688449973
Cwf:_Display_get_renderingWidth_m1970428952
Dkj:_U3CTimedTriggerU3Ec__Iterator0_MoveNext_m825792986
Koi:__Z81RuntimeInvoker_Void_t1185182177_RuntimeObject_Int32_t2950945753_Int64_t3736567304PFvvEPK10MethodInfoPvPS4_
lJ:__ZNSt3__26vectorIN4core12basic_stringIcNS1_20StringStorageDefaultIcEEEE13stl_allocatorIS5_L18MemLabelIdentifier1ELi16EEE21__push_back_slow_pathIS5_EEvOT_
ili:__Z86RuntimeInvoker_Boolean_t97287965_Int16_t2552820387_Int16_t2552820387_Int32_t2950945753PFvvEPK10MethodInfoPvPS4_
nbi:_IndexedSet_1_IndexOf_m241693686_gshared
Lkd:__ZN11UnityEngine15PlatformWrapper30GetGraphicsDriverLibraryStringEv
Tnf:_RuntimeMethodHandle_Equals_m3301340296_AdjustorThunk
CSh:_UInt64_System_IConvertible_ToSingle_m925613075_AdjustorThunk
ABb:__Z18Transfer_BlittableI18StreamedBinaryReadILb0EELb0E4AABBEvRK29SerializationCommandArgumentsR31RuntimeSerializationCommandInfo
p5a:__ZN24GenerateTypeTreeTransfer19TransferSTLStyleMapINSt3__28multimapIN4core12basic_stringIcNS3_20StringStorageDefaultIcEEEE4PPtrI6ObjectENS1_4lessIS7_EE13stl_allocatorINS1_4pairIKS7_SA_EEL18MemLabelIdentifier52ELi16EEEEEEvRT_17TransferMetaFlags
Qt:__ZN16MecanimAnimation24DeleteAnimatedPropertiesERP26IAnimatedPropertyEvaluator
Wwj:_CanvasRenderer_SetMaterial_m824577244
XWb:__Z14DrawGUITextureRK5RectTIfEP7Texture11ColorRGBA32P8Materiali
iLa:__ZNK15PlayableMethods18InvokeProcessFrameER18ScriptingObjectPtrRK9HPlayableP18ScriptingFrameDataRK9FrameData
ND:__ZN9BlobWrite8TransferI22OffsetPtrArrayTransferIKN4math7_float4EEEEvRT_PKc17TransferMetaFlags
hLf:_Transform_IsChildOf_m224006092
kKa:__ZN15TextureSettings8TransferI24GenerateTypeTreeTransferEEvRT_
fPc:__ZN9JSONWrite8TransferI4AABBEEvRT_PKc17TransferMetaFlags
Uec:__ZN15dense_hashtableINSt3__24pairIKiN4core17string_with_labelILi1EEEEEi18SInt32HashFunctionN14dense_hash_mapIiS5_S7_NS0_8equal_toIiEE13stl_allocatorIS6_L18MemLabelIdentifier1ELi16EEE9SelectKeyESA_SD_E12expand_arrayEjN21dense_hash_map_traits17integral_constantIbLb0EEE
Trc:__Z13RegisterClassI15QualitySettingsEvPKc
Ar:__ZN13ConstraintJob17ConstraintJobDataD2Ev
Ajj:_Aes__ctor_m178909601
WQa:__ZNK9Texture2D20GetRuntimeMemorySizeEv
bVd:_MethodCall_get_MethodSignature_m2407904958
ISc:__ZN5Unity9rapidjson13GenericReaderINS0_4UTF8IcEES3_13JSONAllocatorE9ParseTrueILj0ENS0_19GenericStringStreamIS3_EENS0_15GenericDocumentIS3_S4_S4_EEEEvRT0_RT1_
vm:_emscripten_glUniform2iv
zka:__ZL46__ManagedRegistrationHelperFunction_ColorGamutPv
EJh:_UnicodeEncoding_CopyChars_m785272451
UYc:_UNITY_FT_Outline_Transform
Jlc:__Z60Register_UnityEngine_Sprites_DataUtility_Internal_GetMinSizev
_Bj:__ZN6il2cpp2vm5Class10GetMethodsEP11Il2CppClassPPv
H0b:__Z30AddDefaultStreamsToMeshBuffersR9GfxDeviceR11MeshBuffersRK16DrawBuffersRange17ShaderChannelMaskS6_
YQb:__ZN7ApiGLES17DeleteFramebufferERN2gl6HandleILNS0_10ObjectTypeE9EEES3_
oTb:__ZN15UniformTFMethod13MapBoneBufferEj
ubd:__ZN2UI14CanvasRendererD2Ev
hLi:_Array_InternalArray__get_Item_TisParameterModifier_t1461694466_m29553316_gshared
tTg:_Int64_CompareTo_m1928360444_AdjustorThunk
UTj:__ZN15dense_hashtableINSt3__24pairIK10KeyWrapperINS1_IPK9EventInfoP11Il2CppClassEEEjEES9_17ReflectionMapHashIS8_EN14dense_hash_mapIS9_jSD_NS9_14EqualsComparerINS0_8equal_toIS8_EEEENS0_9allocatorISB_EEE9SelectKeyESI_SK_E15set_deleted_keyERKSB_
PGb:__Z9SetupArgviPPKc
i3g:_Convert_ToInt64_m2075031821
zkj:_AnalyticsEventTracker_OnDisable_m1553012800
Qyk:_glTexParameteri__wrapper
yQa:__ZN12CubemapArray23VirtualRedirectTransferER24GenerateTypeTreeTransfer
Fka:__ZL49__ManagedRegistrationHelperFunction_RenderTexturePv
oak:__ZN6il2cpp2os9Directory6CreateERKNSt3__212basic_stringIcNS2_11char_traitsIcEENS2_9allocatorIcEEEEPi
nxa:__ZN23TransformChangeDispatch32QueueTransformChangeIfHasChangedERK15TransformAccess
nPe:_Assembly_get_FullName_m293988418
quf:_Camera_get_pixelRect_Injected_m2326986893
GTc:__ZN27PerformanceReportingManager18ActiveSceneChangedEPS_P10UnitySceneS2_
B:tempValue
Xkk:__ZN6il2cpp8metadata24Il2CppGenericContextHash4HashEPK20Il2CppGenericContext
T0e:_InternalEnumerator_1_get_Current_m356936020_AdjustorThunk
FXb:__ZN6Camera21RenderODSWorldTextureERK11CullResultsRK19SharedRendererSceneR17ShaderPassContextNS_10RenderFlagE
ISg:_Int32_ToString_m141394615_AdjustorThunk
_5:__Z29scripting_class_from_fullnamePKcS0_S0_
pVg:_Directory_GetCurrentDirectory_m219218555
Yyg:_SmallXmlParser_UnexpectedEndError_m1914362401
oA:__ZN26AnimatorControllerPlayable18DeallocateBindingsEv
Ilb:__ZN14DelayedDeletorI15dense_hashtableINSt3__24pairIK9TextureIDiEES3_14GfxGenericHashIS3_EN14GfxDoubleCacheIS3_iS7_NS1_8equal_toIS3_EEN31GfxDoubleCacheConcurrencyPolicy11LocklessGetE42GfxDoubleCacheDefaultEmptyDeletedGeneratorIS3_EE9SelectKeyESA_13stl_allocatorIS5_L18MemLabelIdentifier24ELi16EEEEclEv
XR:__ZN11AudioSource19CreateOpenALRolloffEfff
F3c:_UNITY_FT_Stream_ReadAt
Eoj:_AudioSampleProvider_Dispose_m1993565764
BNh:_TimeSpan__ctor_m1896986612_AdjustorThunk
nGj:__ZN15dense_hashtableINSt3__24pairIK10KeyWrapperIN6il2cpp5utils13dynamic_arrayIPK10Il2CppTypeLj4EEEEPFvvEEESA_NS3_8metadata19Il2CppSignatureHashEN14dense_hash_mapISA_SD_SG_NSA_14EqualsComparerINSF_22Il2CppSignatureCompareEEENS0_9allocatorISE_EEE9SelectKeyESK_SM_E9set_valueEPSE_RKSE_
_wg:_ArgumentException__ctor_m1216717135
XFf:_Ray_ToString_m1732834890_AdjustorThunk
VOc:__ZN9JSONWrite8TransferI13dynamic_arrayI5RectTIfELj0EEEEvRT_PKc17TransferMetaFlags
jQi:_List_1_System_Collections_IList_Contains_m3860993176_gshared
DV:__ZN11AudioModule22CreateAudioClipFromWWWEP10IWWWStreamPKcbbi
yuc:__ZN9Texture2DC2E10MemLabelId18ObjectCreationMode
gKb:__Z17DebugStringToFileIA59_cEvRKT_iPKci15LogMessageFlagsiiPFvRK11CppLogEntryE
Ri:_emscripten_glRotatef
pRh:_UInt32_System_IConvertible_ToBoolean_m1763673183_AdjustorThunk
Sxf:_UnityEvent_AddListener_m2276267359
hr:__Z9SetLocalR15TransformAccessRKN4math7_float4Ey
qIa:__ZN6prcoreL11inner_clearILj4EEEvPhjjj
fAj:_NativeTypeAttribute__ctor_m1677513894
N0:__GLOBAL__sub_I_Runtime_SceneManager_0_cpp
Agk:_GC_initialize_offsets
rea:__ZNK8Playable6HandleEv
iOf:_SetPropertyUtility_SetColor_m2229203028
n8:__ZN14MessageHandler28MessageIDToMessageIdentifierEi
hYa:__ZNK11SpriteAtlas20GetRuntimeRenderDataEPK6Sprite
fVg:_FileSystemInfo__ctor_m3035148496
$Rg:_Int32_System_IConvertible_ToDecimal_m2190376994_AdjustorThunk
xma:__ZL43__ManagedRegistrationHelperFunction_Vector4Pv
my:__ZN7mecanim14ValueArrayCopyILb0EEEvPKNS_10ValueArrayEPS1_
DJ:__Z51Register_UnityEngine_Animator_get_hasBoundPlayablesv
Dd:emscriptenWebGLGetUniform
ro:FUNCTION_TABLE_iiiiiiiiiii
Mgj:_GUI_CallWindowDelegate_m3309453386
Y1c:_cff_set_mm_blend
U6b:__ZL10CleanUpJobP20CullingGroupsJobData
bVg:_DirectoryInfo_get_Exists_m3142069876
G_a:__ZN10MeshFilter23VirtualRedirectTransferER24GenerateTypeTreeTransfer
Urc:__Z13RegisterClassI16LightmapSettingsEvPKc
OWb:__ZN13RenderManager15BatchModeUpdateEv
tsg:_X509Chain_get_CertificateAuthorities_m804805415
k1b:__Z14SetupLightmapsRK8Vector4fS1_R17ShaderPassContext
bIf:_Vector2_get_one_m738793577
uAc:__ZNK4Mesh14GetIndexFormatEv
Pid:__ZN9Scripting11UnityEngine9Analytics21AnalyticsSessionState9InitProxyEv
W5j:__ZN14dense_hash_mapI10KeyWrapperIP12Il2CppObjectEN6il2cpp2gc9CachedCCWENS4_5utils11PointerHashIS1_EENS3_14EqualsComparerINSt3__28equal_toIS2_EEEENSB_9allocatorINSB_4pairIKS3_S6_EEEEE13set_empty_keyERSH_
gd:_glVertexAttribIPointer
xzf:_Input_GetAxisRaw_m2316819917
ylc:__ZNK6Sprite10GetPaddingE20SpriteRenderDataMode
jeh:_Array_InternalArray__ICollection_Remove_TisUInt32_t2560061978_m733727733_gshared
gpf:_CryptographicException__ctor_m503735289
OWg:_Stream_EndRead_m1896469262
_ci:__Z93RuntimeInvoker_Boolean_t97287965_Int32_t2950945753_SByte_t1669577662_ExceptionU26_t3600731591PFvvEPK10MethodInfoPvPS4_
o_b:__ZN14qsort_internal5QSortIP15RODataDepthPassi17ROSorterDepthPassEEvT_S4_T0_T1_
o4c:_UNITY_ft_glyphslot_alloc_bitmap
pXh:_ReadOnlyCollection_1_System_Collections_IList_Add_m3642938800_gshared
R9f:_RSASslSignatureDeformatter_SetHashAlgorithm_m895570787
w4:__ZL36TransformAccessArray_InitializeClassPv
R8i:_X509CrlEntry__ctor_m4013514048
Tqi:__Z87RuntimeInvoker_Color_t2555686324_Color_t2555686324_Color_t2555686324_Single_t1397266774PFvvEPK10MethodInfoPvPS4_
c9c:_ft_raster1_render
VFc:__Z47Register_UnityEngine_Mesh_RecalculateBoundsImplv
fib:__ZN9GfxDevice27UpdateComputeSkinPoseBufferEP9GfxBufferP12SkinMeshInfo
mpk:__ZNKSt3__221__basic_string_commonILb1EE20__throw_length_errorEv
syh:_EqualityComparer_1_System_Collections_IEqualityComparer_Equals_m245992594_gshared
Whh:_Array_InternalArray__IndexOf_TisParameterModifier_t1461694466_m1227120810_gshared
GRb:__ZN18GfxFramebufferGLES13ReadbackImageER14ImageReferenceiiiiii
LLc:__ZN5Unity9rapidjson6WriterI16TempBufferWriterNS0_4UTF8IcEES4_13JSONAllocatorE11WriteStringEPKcj
Iia:__ZN6prcoreL12RemapGenericI17TexFormatARGB888815TexFormatRGB565EEvPKNS_9InnerInfoE
iN:__ZN4FMOD7Channel19setReverbPropertiesEPK29FMOD_REVERB_CHANNELPROPERTIES
wlj:_StandardEventPayload_GetParameters_m2672427676
aZg:_StreamReader_Dispose_m156389394
O7:__ZN13MonoBehaviour22GetScriptFullClassNameEv
oyc:__ZN13ProduceHelperI11MonoManagerLb0EE7ProduceE10MemLabelId18ObjectCreationMode
k3i:_RIPEMD160Managed_JJ_m112143231
AZb:__ZN13BatchRendererC2ER15RenderLoopStatsRK15RenderNodeQueuebb
Egb:__ZNK16MemoryFileSystem9EnumerateEPKcP19dynamic_block_arrayI13FileEntryInfoLj32EEbPPv19FileEnumerationFlag
ZEb:__ZN13MonoBehaviour9CallAwakeEv
eIa:__ZN20SphericalHarmonicsL211AddWeightedERKS_f
bgi:__Z82RuntimeInvoker_RuntimeObject_Int64_t3736567304_Int64_t3736567304_Int64_t3736567304PFvvEPK10MethodInfoPvPS4_
Etb:__Z19TransferField_ArrayI17RemapPPtrTransfer27Converter_SimpleNativeClassI8GUIStyleEEvRK23StaticTransferFieldInfoR31RuntimeSerializationCommandInfoRT0_
zMc:__ZN9JSONWrite8TransferI10ColorRGBAfEEvRT_PKc17TransferMetaFlags
fod:__ZN11UnityEngine9Analytics22EventLimitResumedEventC2EjRKN4core12basic_stringIcNS2_20StringStorageDefaultIcEEEEb
h8:__Z25scripting_method_get_name18ScriptingMethodPtr
aag:_SslCipherSuite_ComputeKeys_m661027754
GDf:_Object_set_name_m291480324
S8g:_Decimal_Equals_m2486655999
Cgk:_GC_exit_check
W3h:__ZN16VirtFuncInvoker2Ii19Color32_t2600501292S0_E6InvokeEjP12Il2CppObjectS0_S0_
H1b:__Z34SetupObjectBakedOcclusionInForwardbRK15SharedLightDataRK26SharedLightmapSettingsDataRK15LightmapIndicesR17ShaderPassContext
eqh:_DSAManaged_get_Random_m923751780
A4:__ZL29TransformAccessChangeCallbackPK15TransformAccessj
mMf:_Vector3_set_Item_m1772472431_AdjustorThunk
mvg:_Interpreter_PopulateGroup_m4042796257
Rod:__ZN9Scripting11UnityEngine10Networking18CertificateHandler9InitProxyEv
Ard:__ZN9Scripting11UnityEngine12Experimental2XR13TrackableType9InitProxyEv
KPh:_Type_GetProperty_m3414567179
Y0j:__ZN6il2cpp2vm13LivenessState25FieldCanContainReferencesEP9FieldInfo
Xac:__ZNSt3__26vectorINS_4pairIN4core12basic_stringIcNS2_20StringStorageDefaultIcEEEES6_EE13stl_allocatorIS7_L18MemLabelIdentifier38ELi16EEE6insertENS_11__wrap_iterIPKS7_EERSD_
Eyf:_RenderPipelineManager_DoRenderLoop_Internal_m3799666479
ED:__ZN9BlobWrite8TransferI22OffsetPtrArrayTransferI9OffsetPtrIN7mecanim12statemachine18StateMachineMemoryEEEEEvRT_PKc17TransferMetaFlags
$xc:__Z13RegisterClassI14PlayerSettingsEvPKc
df:_emscripten_glStencilOpSeparate
E0i:_Collection_1_System_Collections_IList_IndexOf_m3894953546_gshared
b7i:_PKCS12_get_Certificates_m26161562
Wmg:_NameObjectCollectionBase_Init_m2525481323
G0b:__ZN15SkyboxGenerator28GetCubemapSkyboxVertexFormatEv
Skb:__ZN19ShaderPropertySheet24SetTextureWithExplicitIDERK23FastTexturePropertyNameP7Texture9TextureID
rGh:_List_1_Insert_m1582252370_gshared
mck:__ZN6il2cpp2vm6String8NewUtf16EPKDsi
dof:_SByte_System_IConvertible_ToByte_m2268214252_AdjustorThunk
X9j:__ZN6il2cpp2os10ThreadImpl12QueueUserAPCEPFvPvES2_
qej:_RegularExpression__ctor_m119502265
uod:__ZN22BaseUnityConnectClient10QueueEventERN11UnityEngine15CloudWebService17CloudServiceEventEPKcjb
BVf:_DelegatePInvokeWrapper_RaycastAllCallback_t1884415901
uZh:_ReadOnlyCollection_1_System_Collections_Generic_ICollectionU3CTU3E_Clear_m522482168_gshared
nUd:_ConstructionCall_InitMethodProperty_m2021094586
WDc:__Z27Texture_CUSTOM_GetDataWidthP12Il2CppObject
a7c:_UNITY_FT_Hypot
gFe:__ZL74CanvasScaler_t2767979955_CustomAttributesCacheGenerator_m_DefaultSpriteDPIP21CustomAttributesCache
vWj:_il2cpp_class_is_abstract
xf:_emscripten_glGetError
DSj:__ZN15dense_hashtableINSt3__24pairIK10KeyWrapperIPK14Il2CppAssemblyEPK22Il2CppMonoAssemblyNameEES6_N6il2cpp5utils11PointerHashIS4_EEN14dense_hash_mapIS6_SA_SF_NS6_14EqualsComparerINS0_8equal_toIS5_EEEENS0_9allocatorISB_EEE9SelectKeyESK_SM_E14squash_deletedEv
Dyg:_SmallXmlParser__ctor_m202236734
kO:__Z14FMOD_FILE_SeekPvjS_
JTf:_MaskableGraphic_OnDisable_m1757789159
rJa:__ZN7TextureC2E10MemLabelId18ObjectCreationMode
yRf:_LayoutGroup__ctor_m2162961217
yid:__Z56Register_UnityEngine_Analytics_CustomEventData_AddStringv
Hfd:__ZZN2UI6Canvas15InitializeClassEvEN39FunctorImpl_1449kCanvasHierarchyChanged4CallEPviR11MessageData
d8b:__ZNK13RenderTexture32CalculateNeedsInvertedProjectionEv
idc:__ZN10systeminfo18GetOperatingSystemEv
Ff:emscriptenWebGLGet
Caa:__Z19CanReplaceComponentRN5Unity9ComponentEPKNS_4TypeEPN4core12basic_stringIcNS5_20StringStorageDefaultIcEEEE
DJe:_UnmanagedMemoryStream_Flush_m1540584491
ZPg:_GuidParser_ParseGuid2_m1914838819
jwc:__ZN12CubemapArray11InitTextureEiii13TextureFormatb
n3d:__ZL70ReliabilityContractAttribute_t502331440_CustomAttributesCacheGeneratorP21CustomAttributesCache
DXe:_InternalEnumerator_1_System_Collections_IEnumerator_get_Current_m55999184_gshared
pEd:_Graphic_get_depth_m815589653
mgj:_Event_set_displayIndex_m1342258734
XRf:_LayoutGroup_SetLayoutInputForAxis_m2458344630
lE:__ZN7mecanim5human13HumanFixTwistEPKNS0_5HumanEPNS_8skeleton13SkeletonPoseTIN4math4trsXEEES9_iiRKf
u1b:__ZL24AssignProjectorQueuesJobP30AssignProjectorQueuesJobHeader
iNd:_ParameterModifier_t1461694466_marshal_pinvoke
yjc:__ZNSt3__26vectorIN9ShaderLab20SerializedSubProgram15StructParameterENS_9allocatorIS3_EEE21__push_back_slow_pathIS3_EEvOT_
iRg:_Int16_System_IConvertible_ToUInt32_m3410279543
ljc:__ZN9ShaderLab20SerializedSubProgram14SetConstBufferEPKci
uNj:__ZN6il2cpp2os4File5CloseEPNS0_10FileHandleEPi
VFj:__ZNSt3__27__sort5IRN6il2cpp5utils11collections13ArrayValueMapIPK10Il2CppType17Il2CppInteropData26InteropDataToTypeConverterNS1_8metadata14Il2CppTypeLessENSA_26Il2CppTypeEqualityComparerEE12SortComparerEPS8_EEjT0_SH_SH_SH_SH_T_
m$c:_cf2_getStdVW
VQh:_UInt16_CompareTo_m2664746316_AdjustorThunk
bhb:__ZN9GfxDevice13SetActiveTierE12GraphicsTier
lRc:__Z29Transfer_Blittable_ArrayFieldI8JSONReadjEvRT_R9ArrayInfoRK23StaticTransferFieldInfo
Igk:_GC_check_finalizer_nested
lg:__setLetterbox
QXf:_ScrollRect_OnScroll_m3861066534
$hf:_Dictionary_2_ToTKey_m224697230_gshared
Rpe:__ZL72FormerlySerializedAsAttribute_t2859083114_CustomAttributesCacheGeneratorP21CustomAttributesCache
xNf:_OnValidateInput_Invoke_m1009124904
fbj:_PatternCompiler_EmitFastRepeat_m3012952683
O$a:__ZNSt3__26vectorI17BlendShapeChannelNS_9allocatorIS1_EEE6assignINS_11__wrap_iterIPS1_EEEENS_9enable_ifIXaasr21__is_forward_iteratorIT_EE5valuesr16is_constructibleIS1_NS_15iterator_traitsISA_E9referenceEEE5valueEvE4typeESA_SA_
hKb:__Z12SetGfxDeviceP9GfxDevice
bdc:__ZN11TimeManager11GetRealtimeEv
GO:__ZN29AudioEffectInternalDefinitionC2EP26UnityAudioEffectDefinitionb
t2h:_ReadOnlyCollection_1_System_Collections_IList_Remove_m2434650390_gshared
mRh:_UInt16_ToString_m3056878594_AdjustorThunk
jwg:_Interval_get_IsSingleton_m3386290029
QVj:__ZNSt3__2plIcNS_11char_traitsIcEENS_9allocatorIcEEEENS_12basic_stringIT_T0_T1_EERKS9_PKS6_
aKf:_Time_get_unscaledDeltaTime_m4270080131
cmd:__ZN18UnityConnectClient27OnPlayerSessionStateChangedEjyy
ePa:_stbir_resize
ihh:_Array_IndexOf_TisCustomAttributeTypedArgument_t2723150157_m3158556463_gshared
Vbh:_Environment_GetOSVersionString_m407782784
Okg:_DecoderExceptionFallback_Equals_m1082173956
T1d:__ZL69Assembly_t_CustomAttributesCacheGenerator_Assembly_GetName_m981771927P21CustomAttributesCache
cla:__ZL59__ManagedRegistrationHelperFunction_AsyncGPUReadbackRequestPv
lje:__ZL93Mesh_t3648964284_CustomAttributesCacheGenerator_Mesh_GetAllocArrayFromChannelImpl_m3084065604P21CustomAttributesCache
Teb:__Z37ReadDirectoryInfo_UnityWebAndUnityRawR12FileAccessorRKN20ArchiveStorageHeader6HeaderERNS1_13DirectoryInfoE
O4:__ZNSt3__26__treeINS_12__value_typeIPKciEENS_19__map_value_compareIS3_S4_15compare_tstringIS3_ELb1EEENS_9allocatorIS4_EEE7destroyEPNS_11__tree_nodeIS4_PvEE
mlh:_Array_InternalArray__Insert_TisIntPtr_t_m189626842_gshared
yrg:_X509Certificate2_get_IssuerName_m1277209535
L2i:_RijndaelManaged_CreateEncryptor_m263736311
l_b:__ZN20DynamicPropertySheet14SetValueQueuedEN9ShaderLab16FastPropertyNameEN19ShaderPropertySheet12PropertyTypeEjNS2_8SetFlagsE
xxf:_InvokableCallList_ClearPersistent_m1904264973
hGb:__ZN25PathNamePersistentManagerD2Ev
K5a:__ZN17PersistentManager48IntegrateObjectAndUnlockIntegrationMutexInternalEi
dha:__ZZ29InitializeSortingGroupManagerPvEN44PostLateUpdateSortingGroupsUpdateRegistrator7ForwardEv
Qye:__ZL55EventTrigger_t1076084509_CustomAttributesCacheGeneratorP21CustomAttributesCache
Sfg:_SecurityElement_SearchForChildByTag_m900466299
zp:__ZN6Object12SetHideFlagsENS_9HideFlagsE
K3g:_Convert_ToSingle_m3227075028
Nvk:_emscripten_glGetFramebufferAttachmentParameteriv__wrapper
t7b:__ZN13RendererScene15InitializeUmbraEv
rGa:__Z28CalculateGlobalMatrixInverse23TransformAccessReadOnly
ZAh:_GenericEqualityComparer_1_Equals_m3457564127_gshared
H$f:_BigInteger_ModInverse_m2426215562
Kkg:_DecoderExceptionFallback__ctor_m4044614564
IJe:_LocalDataStoreSlot__cctor_m644942532
Vkk:__ZN6il2cpp6icalls8mscorlib6System6Object7GetTypeEP12Il2CppObject
fMd:_MonoProperty_CachePropertyInfo_m2968057423
Zod:__ZNK25UnityWebRequestJavaScript18GetDownloadedBytesEv
VFf:_Ray_GetPoint_m1852405345_AdjustorThunk
lIb:__Z21BeginSplashScreenFadev
jpd:__ZN12HeaderHelper14SetUnvalidatedERKN4core12basic_stringIcNS0_20StringStorageDefaultIcEEEES6_b
OM:__ZN4FMOD6SoundI7releaseEv
P0c:_cff_parse_num
vfb:__ZN10MemoryFile9SetLengthEy
Kvb:__ZN5RectTIiE8TransferI24GenerateTypeTreeTransferEEvRT_
pLg:_Exception_get_ClassName_m2428844642
CFb:__Z28scripting_class_is_interface17ScriptingClassPtr
Ch:_glTexStorage2D
XMg:_CultureInfo_ConstructInternalLocaleFromName_m4012802696
VLa:__ZNK9ShaderLab10SubProgram14EnsureCompiledEv
_Ue:_MethodBuilder_GetGenericArguments_m1765425737
p6g:_DateTime_CompareTo_m3687348273
xfk:_GC_push_marked
O6g:_DateTime_ToUniversalTime_m1945318289_AdjustorThunk
y2g:_Convert_ToInt16_m1336719169
Z7:__Z18BuildScriptClassId17ScriptingClassPtr
Bvj:_TextGenerator_Init_m1168488231
ddb:__ZL31DeleteLastPathNameComponentImplRKN4core12basic_stringIcNS_20StringStorageDefaultIcEEEEPKc
H7g:_DBNull_System_IConvertible_ToUInt64_m4072736670
fjd:__ZN18UnityConnectClient15GetCloudServiceEv
orb:__Z29Transfer_Blittable_ArrayFieldI14SafeBinaryRead5RectTIiEEvRT_R9ArrayInfoRK23StaticTransferFieldInfo
S$e:_InternalEnumerator_1_get_Current_m2698009637_gshared
wJj:__ZN6il2cpp2os19SocketHandleWrapperD2Ev
wFb:__ZL28SerializationCommandGroupForRK31TransferFunctionScriptingTraits17ScriptingClassPtr17ScriptingFieldPtrRK20CoreScriptingClasses
xva:__ZN10TagManager32RegisterDefaultTagsAndLayerMasksEv
vNh:_WaitHandle_Dispose_m738127030
emi:__Z50RuntimeInvoker_Double_t594665363_Int32_t2950945753PFvvEPK10MethodInfoPvPS4_
cvi:__Z104RuntimeInvoker_Void_t1185182177_Color_t2555686324_Single_t1397266774_SByte_t1669577662_SByte_t1669577662PFvvEPK10MethodInfoPvPS4_
fFh:_Enumerator_System_Collections_IEnumerator_get_Current_m1540440674_gshared
Ogg:_Single_System_IConvertible_ToInt16_m809233024_AdjustorThunk
Aid:__Z56Register_UnityEngine_Analytics_CustomEventData_AddUInt32v
znk:_fmodf
fla:__ZL47__ManagedRegistrationHelperFunction_CullResultsPv
OOb:__ZN4gles8InitCapsEP7ApiGLESP12GraphicsCapsR16GfxDeviceLevelGL
wPa:__ZN6prcore14BlitImageFloatERK14ImageReferenceRS0_NS0_8BlitModeE
MHa:__Z24CalculateVertexLightDataRK15SharedLightDataR14GfxVertexLight
ki:_glEnable
RQj:__ZN15dense_hashtableINSt3__24pairIK10KeyWrapperINS1_IPK12PropertyInfoP11Il2CppClassEEEjEES9_17ReflectionMapHashIS8_EN14dense_hash_mapIS9_jSD_NS9_14EqualsComparerINS0_8equal_toIS8_EEEENS0_9allocatorISB_EEE9SelectKeyESI_SK_E15insert_noresizeERKSB_
cqa:__ZN9Scripting11UnityEngine33ExcludeFromObjectFactoryAttribute12CleanupProxyEv
RLa:__ZNK9ShaderLab7Program28BeginReadUnsupportedVariantsEv
ita:__ZN12CachedWriter11Align4WriteEv
n4a:__ZNSt3__26vectorIN30RuntimeInitializeOnLoadManager9ClassInfoE13stl_allocatorIS2_L18MemLabelIdentifier13ELi16EEE7reserveEj
LMc:__Z35Transfer_Blittable_FixedBufferFieldI9JSONWriteiEvRK29SerializationCommandArgumentsR31RuntimeSerializationCommandInfo
nBh:_Enumerator__ctor_m1590062855_AdjustorThunk
BTj:__ZN14dense_hash_mapI10KeyWrapperINSt3__24pairIPK10MethodInfoP11Il2CppClassEEEj17ReflectionMapHashIS8_ENS9_14EqualsComparerINS1_8equal_toIS8_EEEENS1_9allocatorINS2_IKS9_jEEEEEC2EjRKSB_RKSF_
gA:__ZN26AnimatorControllerPlayable17ProcessRootMotionEP35AnimationPlayableEvaluationConstantP32AnimationPlayableEvaluationInputP33AnimationPlayableEvaluationOutput
fJe:_UnexceptionalStreamReader_Peek_m1842169584
jkd:__ZN11UnityEngine7Connect15DeviceInfoEvent16CollectExtraInfoEv
Gtf:_Bounds_GetHashCode_m1844059663_AdjustorThunk
xpf:_CryptographicException__ctor_m1422015889
KMf:_Vector4_Equals_m1779210055_AdjustorThunk
T4g:_Convert_ChangeType_m739676612
SUb:__ZN20ArchiveStorageReader10InitializeER15FileSystemEntryyb
Bdk:__ZThn8_N6il2cpp2vm13CachedCCWBaseINS0_13ManagedObjectEE6AddRefEv
jId:_TypeBuilder_CreateType_m3375483507
koh:_ModulusRing_BarrettReduction_m167376748
fif:_RemotingServices_GetRealProxy_m2081098851
Nph:_BlockProcessor_Core_m189015002
Vvk:_emscripten_glScissor__wrapper
vo:FUNCTION_TABLE_viifi
wo:FUNCTION_TABLE_viiff
ayg:_X501__cctor_m1166912714
PZd:__ZL37Type_t_CustomAttributesCacheGeneratorP21CustomAttributesCache
it:__ZN9Scripting11UnityEngine14AnimationState9InitProxyEv
guf:_Bounds_ToString_m4208690781
AUj:__ZN6il2cpp2vm14TypeNameParser5ParseEb
eKe:_Math_Sqrt_m1297338011
qZg:_StreamWriter_Initialize_m3490883444
XPh:_Type_GetGenericArguments_m3500465462
WIj:__ZN15dense_hashtableINSt3__24pairIK10KeyWrapperIP9FieldInfoEiEES5_N6il2cpp5utils11PointerHashIS3_EEN14dense_hash_mapIS5_iSB_NS5_14EqualsComparerINS0_8equal_toIS4_EEEENS0_9allocatorIS7_EEE9SelectKeyESG_SI_E12resize_deltaEjj
Mnd:__ZN23UnityPurchasingSettingsC2Ev
nKd:_Module_IsDefined_m2423524910
WRe:_DerivedType_create_unmanaged_type_m747846525
gve:__ZL60EventType_t3528516131_CustomAttributesCacheGenerator_repaintP21CustomAttributesCache
lAa:__ZN17GPUFenceInternals7ReleaseEv
gEe:__ZL66Selectable_t3250028441_CustomAttributesCacheGenerator_m_NavigationP21CustomAttributesCache
AAc:__ZN17MaterialScripting18CreateWithMaterialE21ScriptingObjectOfTypeI8MaterialEPS1_
e8b:__ZL10RenderFaceR9GfxDeviceR18MaterialStateCacheP13RenderTextureiif
hhh:_Array_IndexOf_TisCustomAttributeNamedArgument_t287865710_m2817957199_gshared
BYh:_ReadOnlyCollection_1_System_Collections_IList_RemoveAt_m1980090087_gshared
q6i:_ExtendedKeyUsageExtension_ToString_m2116504780
R8a:__ZNK5Unity9Component38MarkGameObjectAndComponentDependenciesER27GarbageCollectorThreadState
GUg:_BinaryReader_Read_m3708759962
y8:__ZNK11TypeManager15ClassNameToRTTIEPKcb
Ika:__ZL57__ManagedRegistrationHelperFunction_DefaultExecutionOrderPv
tOb:__ZN9GfxDevice26CreateDefaultVertexBuffersEv
nxk:_emscripten_glVertexAttrib2fv__wrapper
rIe:_SynchronizedReader_ReadToEnd_m2160105378
zah:_Double_System_IConvertible_ToUInt16_m4132603953_AdjustorThunk
gSa:__ZN4crnd12symbol_codec32decode_receive_static_data_modelERNS_25static_huffman_data_modelE
Yuc:__ZN18ScriptingArguments8AddFloatEf
vGd:_Image_set_fillOrigin_m469806249
Zjd:__ZN11UnityEngine15PlatformWrapper16GetVRRenderScaleEv
LNc:__Z18Transfer_BlittableI9JSONWriteLb0EaEvRK29SerializationCommandArgumentsR31RuntimeSerializationCommandInfo
ZX:__ZN11UnityEngine15CloudWebService14DataDispatcher34OnSessionContainerArchivedAndReadyERNS0_16SessionContainerE
MCf:_ConnectionChangeEvent__ctor_m764126802
HNd:_ResolveEventHandler_Invoke_m1337322179
ZDh:_Enumerator_VerifyState_m2621680056_gshared
kfj:_UriParser_InternalRegister_m3643767086
Dec:__ZN14SafeBinaryRead19TransferSTLStyleMapINSt3__23mapIN4core12basic_stringIcNS3_20StringStorageDefaultIcEEEEiNS1_4lessIS7_EENS1_9allocatorINS1_4pairIKS7_iEEEEEEEEvRT_17TransferMetaFlags
E5c:_gray_move_to
D7g:_DBNull_System_IConvertible_ToSingle_m13713620
bGg:_Char_ToLowerInvariant_m1926695830
xYh:_ReadOnlyCollection_1_System_Collections_IList_Contains_m1327645028_gshared
IGd:_Image_GetDrawingDimensions_m3060965396
Zse:__ZL69FontTextureRebuildCallback_t2467502454_CustomAttributesCacheGeneratorP21CustomAttributesCache
oQh:_TypeLoadException__ctor_m1154572625
_Cc:__Z30RegisterValidateMethodCallbackiPF18ScriptingMethodPtrS_17ScriptingClassPtrP6ObjectEPKc
DNa:__ZNSt3__27__sort4IRPFbRKNS_4pairIN9ShaderLab16FastPropertyNameE10ColorRGBAfEES7_EPS5_EEjT0_SC_SC_SC_T_
e7f:_Context_get_WriteSequenceNumber_m1115956887
RJi:_Dictionary_2_Do_ICollectionCopyTo_TisKeyValuePair_2_t2401056908_m1169495264_gshared
DVe:_OpCodes__cctor_m3821715395
tAd:_ContentSizeFitter__ctor_m2349275633
U4c:_tt_cmap_init
cSc:__ZN8JSONRead8TransferI9BoundsIntEEvRT_PKc17TransferMetaFlagsb
mb:invoke_viidi
Ffb:__ZN25SingleBlockMemoryFileData9SetLengthEy
qIi:_Array_Sort_TisOrderBlock_t1585977831_m2922111197_gshared
gEd:_Graphic_OnRectTransformDimensionsChange_m3695755375
fof:_SByte_System_IConvertible_ToChar_m1489191771_AdjustorThunk
EM:__ZN9AudioClip7CleanupEv
Wxc:__Z13RegisterClassI18DelayedCallManagerEvPKc
YZj:__ZNK15dense_hashtableINSt3__24pairIK10KeyWrapperIP11Il2CppClassES4_EES5_N6il2cpp8metadata16SZArrayClassHashEN14dense_hash_mapIS5_S4_SA_NS5_14EqualsComparerINS9_19SZArrayClassCompareEEENS0_9allocatorIS7_EEE9SelectKeyESE_SG_E12test_deletedEj
I2g:_Convert_ToInt16_m1223489986
FQc:__Z18Transfer_BlittableI8JSONReadLb0EdEvRK29SerializationCommandArgumentsR31RuntimeSerializationCommandInfo
wTd:_SynchronizationAttribute_EnterContext_m1660729920
jwj:_Canvas_get_referencePixelsPerUnit_m3420541976
kgj:_Event_get_current_m2393892120
Dmj:_VertexHelper_Clear_m627349662
uKj:__ZN6il2cpp2vm21ThreadPoolCompartment13QueueWorkItemEP17Il2CppAsyncResult
yhb:__ZNK9GfxDevice13GetViewMatrixEv
EJe:_UnmanagedMemoryStream_Dispose_m2681886347
Q7a:__ZN17RemapPPtrTransferC2E24TransferInstructionFlagsb
R1g:_Convert_ToDecimal_m889385228
B9:__ZN8TypeTree8BlobReadERPKhS1_ib
aCg:_Array_Reverse_m3714848183
CCd:_Dropdown_ClearOptions_m4085591601
Gzd:_CanvasUpdateRegistry_InternalRegisterCanvasElementForGraphicRebuild_m3522560454
X5a:__ZN18LoadSceneOperation23GetAllowSceneActivationEv
qya:__ZN6CameraD0Ev
yz:__ZN7mecanim12AndValueMaskILb0EEEvPKNS_14ValueArrayMaskEPS1_
b4a:__ZN14SafeBinaryRead21TransferSTLStyleArrayINSt3__26vectorIi13stl_allocatorIiL18MemLabelIdentifier13ELi16EEEEEEvRT_17TransferMetaFlags
ulg:_EncoderFallback__cctor_m3806755293
FZc:_raccess_guess_apple_double
mQb:__ZL18ProgramUniform1uivPK7ApiGLESjiihPKv
swc:__ZN14Texture2DArray13RebuildMipMapEv
VCj:__ZN13Il2CppHashSetIPK17Il2CppGenericInstN6il2cpp8metadata21Il2CppGenericInstHashENS4_24Il2CppGenericInstCompareENSt3__29allocatorI10KeyWrapperIS2_EEEEC2EjRKS5_RKS6_
mpb:__Z18Transfer_BlittableI14SafeBinaryReadLb1EaEvRK29SerializationCommandArgumentsR31RuntimeSerializationCommandInfo
O8j:__ZN6il2cpp2gc16GarbageCollector14RemoveWeakLinkEPPv
mjc:__ZN9ShaderLab20SerializedSubProgram14AddVectorParamEPKcii15ShaderParamTypei
LPi:_List_1_GetEnumerator_m563931292_gshared
pfd:__ZN2UI14CanvasRenderer12CleanupClassEv
$_g:_Enumerator__ctor_m3362421874
l5j:__ZN6il2cpp2vm6Object3BoxEP11Il2CppClassPv
nYj:__ZN6il2cpp2vm6Thread7SetNameEP12Il2CppThreadP12Il2CppString
sZ:__ZN11UnityEngine15CloudWebService10RestClientINS0_23WebRequestRestHeaderMapEE16SetRequestHeaderERKN4core12basic_stringIcNS4_20StringStorageDefaultIcEEEESA_
g4a:__ZN30RuntimeInitializeOnLoadManager15ClassMethodInfo8TransferI14SafeBinaryReadEEvRT_
fUd:_ConstructionCall_InitDictionary_m2824447813
zW:__ZL22InitializeModule_Audiov
qgb:__ZN16MemoryFileSystem8IsLockedERK13FileEntryData
B$j:__ZN6il2cpp6icalls8mscorlib6System2IO6MonoIO5WriteEiP11Il2CppArrayiiPi
YAf:_Mathf_InverseLerp_m4155825980
cJf:_HitInfo_SendMessage_m1343099429_AdjustorThunk
rji:__Z92RuntimeInvoker_RuntimeObject_RuntimeObject_RuntimeObject_SByte_t1669577662_SByte_t1669577662PFvvEPK10MethodInfoPvPS4_
_k:_emscripten_glBindRenderbuffer
xNi:_List_1_System_Collections_IList_Insert_m1011775503_gshared
xgk:_GC_dirty_init
S3j:__ZN6il2cpp2vm5Image33GetCachedMemoryMappedResourceFileEP24Il2CppReflectionAssembly
h4j:__ZN6il2cpp2vm5Field14GetValueObjectEP9FieldInfoP12Il2CppObject
add:__ZNK2UI6Canvas16GetTargetDisplayEv
xid:__Z63Register_UnityEngine_Analytics_CustomEventData_Internal_Destroyv
dOh:_TimeSpan_CompareTo_m3633415627_AdjustorThunk
TEb:__ZN13MonoBehaviour17RemoveFromManagerEv
kMf:_Vector3_get_Item_m668685504_AdjustorThunk
eza:__ZN12ImageFilters14AddImageFilterERK11ImageFilter
tSd:_Context_NotifyDynamicSinks_m1841702879
Ugj:_GUIUtility_get_pixelsPerPoint_m2369948084
Efg:_WindowsIdentity_System_Runtime_Serialization_IDeserializationCallback_OnDeserialization_m3428853631
e1:__ZN13MemoryManagerC2Ev
K0a:__ZN12SkinMeshInfo10DeallocateEPS_
rXf:_ScrollRect_SetDirty_m214267968
rDi:__Z74RuntimeInvoker_Int32_t2950945753_UIVertex_t4057497605_UIVertex_t4057497605PFvvEPK10MethodInfoPvPS4_
Kfb:__ZN20ArchiveStorageReader28AcquireAndPrefillUnusedBlockEjPNS_11CacheResultE
zDg:_Boolean_System_IConvertible_ToDateTime_m603510836
nwc:__Z12NHxRoughnessIA4_tEvP9Texture2DPT_iiii
oph:_ASN1_get_Value_m1857007406
fX:__Z6simd4iiiii
Dab:__ZN9Transform5ResetEv
N2g:_Decimal_op_Explicit_m1842265407
_vb:__Z22TransferField_NonArrayI24GenerateTypeTreeTransfer16Converter_StringEvRK23StaticTransferFieldInfoR31RuntimeSerializationCommandInfoRT0_
Yka:__ZL47__ManagedRegistrationHelperFunction_FixedUpdatePv
$wj:_CanvasRenderer_SetAlphaTexture_m2009567627
s1c:_UNITY_FT_CMap_New
PYe:_InternalEnumerator_1_get_Current_m4241643334_AdjustorThunk
oHb:__Z17MainLoopKeepalivePv
V2e:_InternalEnumerator_1_get_Current_m1588647567_AdjustorThunk
Emk:_printf_core
z3d:__ZL51GCHandle_t3351438187_CustomAttributesCacheGeneratorP21CustomAttributesCache
ZNf:_InputField_get_caretBlinkRate_m3620074524
zbg:_RSAPKCS1SignatureFormatter_CreateSignature_m3191980616
KLa:__ZN10builtintex16GetDefaultTexEnvE16TextureDimensionb
uSb:__ZL25CheckCopyTextureArgumentsRK7ApiGLESP11GLESTextureS3_
cAk:_glDeleteShader__wrapper
dfa:__ZNK15PlayableMethods18InvokeOnGraphStartER18ScriptingObjectPtrRK9HPlayable
wvb:__Z29Transfer_Blittable_ArrayFieldI24GenerateTypeTreeTransferyEvRT_R9ArrayInfoRK23StaticTransferFieldInfo
yN:__ZN4FMOD7SystemI9playSoundE17FMOD_CHANNELINDEXPNS_5SoundEbPPNS_7ChannelE
wTg:_Int64_GetHashCode_m703091690
dma:__ZL60__ManagedRegistrationHelperFunction_ReflectionProbeBlendInfoPv
xgj:_Event_get_commandName_m4275147343
xz:__ZN27AnimationLayerMixerPlayable17LayerMixerProcessEP35AnimationPlayableEvaluationConstantP32AnimationPlayableEvaluationInputP33AnimationPlayableEvaluationOutputM17AnimationPlayableFvS1_S3_S5_EMS_FvS1_S3_S5_ESA_MS_FvS5_S1_S3_S5_ifE
W1g:_Decimal_op_Implicit_m4256234411
$L:__ZN12AudioManager23VirtualRedirectTransferER18StreamedBinaryReadILb0EE
Vfi:__Z60RuntimeInvoker_RuntimeObject_RuntimeObject_Int16_t2552820387PFvvEPK10MethodInfoPvPS4_
YYg:_StreamReader__ctor_m3941437302
yqc:__Z57Register_UnityEngine_Transform_INTERNAL_get_localRotationv
Nsk:dynCall_viif
Bu:__ZN7mecanim4hand8HandPoseC2Ev
Src:__Z13RegisterClassIN5Unity9ComponentEEvPKc
lIe:_StringReader_ReadLine_m2337102945
ctb:__ZL26Transfer_SimpleNativeClassI17RemapPPtrTransfer8GradientLb0EEvRK29SerializationCommandArgumentsR31RuntimeSerializationCommandInfo
Jie:__ZL49Shader_t4151988712_CustomAttributesCacheGeneratorP21CustomAttributesCache
iB:__ZN17AnimationPlayable26DisconnectNoTopologyChangeEPS_i
YDg:_Boolean_Equals_m2410333903_AdjustorThunk
VTi:_List_1_System_Collections_IList_Contains_m2131605266_gshared
n_:__ZN13UploadHandlerD2Ev
_J:__GLOBAL__sub_I_Modules_AssetBundle_Public_1_cpp
mrk:dynCall_viiiiiffi
uuj:_Hacker__ctor_m518604791
wc:_emscripten_glBlendFuncSeparate
N0i:_Collection_1_Add_m809543251_gshared
H5:__Z20scripting_string_newPKc
vej:_Parser_IsSingleline_m326238187
zJg:_CollectionBase_get_Count_m1708965601
Uqf:_HMAC__ctor_m97939284
DTh:_ValueType_DefaultEquals_m2927252100
qMc:__ZN9JSONWrite12AppendToNodeEPN5Unity9rapidjson12GenericValueINS1_4UTF8IcEE13JSONAllocatorEEPKcRS6_
vph:_ASN1_ToString_m1340204511
Xrg:_X509ChainElementEnumerator_get_Current_m1301774989
zsg:_X509Store_get_Certificates_m2149701265
DPh:_Type_GetField_m2961003358
FAe:__ZL144StandaloneInputModule_t2760469101_CustomAttributesCacheGenerator_StandaloneInputModule_t2760469101____allowActivationOnMobileDevice_PropertyInfoP21CustomAttributesCache
Eqa:__ZN9Scripting11UnityEngine13ComputeBuffer12CleanupProxyEv
$Ih:_StringBuilder_set_Chars_m3548656617
mNj:__ZN6il2cpp2os4File17GetFileAttributesERKNSt3__212basic_stringIcNS2_11char_traitsIcEENS2_9allocatorIcEEEEPi
WE:__ZNSt3__26__sortIRPFbPKN8Animator11AnimatorJobES4_EPS4_EEvT0_S9_T_
wT:__ZN17AudioCustomFilterD2Ev
tAi:__Z56RuntimeInvoker_Void_t1185182177_MonoResource_t4103430009PFvvEPK10MethodInfoPvPS4_
qek:_GC_unpromote_black_lists
VJ:__ZN9Scripting11UnityEngine2XR5Tango9GridIndex9InitProxyEv
qRb:__ZN18GfxFramebufferGLES18ReleaseFramebufferEP17RenderSurfaceBaseP14GfxContextGLES
vPc:__Z18Transfer_BlittableI8JSONReadLb1EiEvRK29SerializationCommandArgumentsR31RuntimeSerializationCommandInfo
R_:__ZN19CloudServiceHandler34HandleSaveFileWebRequestPlayerLoopEv
WA:__ZN7mecanim21ValueArrayReverseCopyEPKNS_18ValueArrayConstantEPKNS_10ValueArrayES2_PS3_PKi
Xqd:__ZL47__ManagedRegistrationHelperFunction_XRNodeStatePv
PS:__Z31GetParentSampleClipFromInstancePN11SoundHandle8InstanceE
vsc:__ZNK28RectTransformPropertyBinding13GetFloatValueERKN11UnityEngine9Animation10BoundCurveE
B8b:__ZN6Camera22StandaloneCustomRenderENS_10RenderFlagEP6ShaderRKN4core12basic_stringIcNS3_20StringStorageDefaultIcEEEEPNS_21PerformRenderFunctionE
Chh:_Array_InternalArray__IndexOf_TisKeyValuePair_2_t2401056908_m4118889689_gshared
f5a:__ZNSt3__26vectorI4PPtrI6ObjectE13stl_allocatorIS3_L18MemLabelIdentifier52ELi16EEE6assignINS_11__wrap_iterIPS3_EEEENS_9enable_ifIXaasr21__is_forward_iteratorIT_EE5valuesr16is_constructibleIS3_NS_15iterator_traitsISD_E9referenceEEE5valueEvE4typeESD_SD_
olk:__ZN6il2cpp2os16ThreadLocalValue8GetValueEPPv
Crg:_X509Certificate2_get_PublicKey_m370665820
MHj:__ZN6il2cpp2vm13MetadataCache14GetGenericInstEPKPK10Il2CppTypej
fU:__ZN13AudioListener17ReadExtensionNameEi
Zc:_glUniform1uiv
Uld:__ZN11UnityEngine7Connect20RemoteConfigSettings35CallConfigUpdatedOnMainThreadStaticEPS1_
ap:setThrew
Eag:_SslClientStream_OnLocalPrivateKeySelection_m1934775249
fwc:__ZL21BuildEmptyCubeTexturePKci11ColorRGBA3217TextureColorSpace
ZEg:_Byte_ToString_m721125428
Gec:__ZN14SafeBinaryRead21TransferSTLStyleArrayINSt3__26vectorIN9ShaderLab20SerializedSubProgramENS1_9allocatorIS4_EEEEEEvRT_17TransferMetaFlags
$hh:_Array_InternalArray__IndexOf_TisX509ChainStatus_t133602714_m48896230_gshared
fdb:__ZN19dynamic_block_arrayI13FileEntryInfoLj32EE4growEj
EPc:__Z15Transfer_StringI8JSONReadLb1EEvRK29SerializationCommandArgumentsR31RuntimeSerializationCommandInfo
s6a:__ZN16LightmapSettings15AppendLightmapsEiRK13dynamic_arrayI12LightmapDataLj0EE
zha:__ZN6prcoreL17RemapGenericFloatI17TexFormatRGBFloat15TexFormatRGHalfEEvPKNS_9InnerInfoE
I3c:_sfnt_load_face
QYc:_UNITY_FT_Render_Glyph_Internal
l0j:__ZNSt3__212basic_stringIDsNS_11char_traitsIDsEENS_9allocatorIDsEEE21__grow_by_and_replaceEjjjjjjPKDs
I1c:_UNITY_ft_service_list_lookup
iJc:__ZN5IMGUI21SelectReceivingWindowER8GUIStateb
irf:_HMAC_Initialize_m3157696427
Gnk:___strchrnul
n2:__ZN13BaseAllocator13TryDeallocateEPv
vqg:_X509SubjectKeyIdentifierExtension__ctor_m2055934916
nLc:__ZN9Scripting19UnityEngineInternal5Input17NativeInputSystem9InitProxyEv
tmj:_Toggle_OnSubmit_m1320104356
Amk:_sprintf
Ujc:__ZN9Scripting25CreateNullExceptionObjectE18ScriptingObjectPtr
xrh:_PrivateKeyInfo_DecodeRSA_m2889346634
jT:__ZN13AudioListener17RemoveFromManagerEv
sd:_glAttachShader
EAd:_ContentSizeFitter_SetLayoutHorizontal_m2833273874
vXh:_ReadOnlyCollection_1_System_Collections_IList_RemoveAt_m134366701_gshared
Txa:__ZNK6Camera19GetProjectionMatrixEv
RCe:__ZL70InputField_t3762917431_CustomAttributesCacheGenerator_m_SelectionColorP21CustomAttributesCache
zOf:_InputField_SetToCustomIfContentTypeIsNot_m2813459946
Che:__ZL70RuntimePlatform_t4159857903_CustomAttributesCacheGenerator_FlashPlayerP21CustomAttributesCache
sQg:_Guid_GetHashCode_m3042133858_AdjustorThunk
ysa:__Z38PreallocateObjectFromPersistentManagerib
uvg:_Interpreter_Backtrack_m2828876822
bRa:__ZNK9Texture2D20GetUnscaledTextureIDEv
vof:_SByte_System_IConvertible_ToType_m4075253447
ysh:_StrongName_get_PublicKey_m1841537984
uyk:_glFenceSync__wrapper
aLf:_Transform_INTERNAL_get_worldToLocalMatrix_m2730237241
bhg:_Single_System_IConvertible_ToUInt64_m3299129161
gRa:__ZNK9Texture2D26CanReuploadDataToGfxDeviceEv
a8d:__ZL63CodeAccessPermission_t2681295399_CustomAttributesCacheGeneratorP21CustomAttributesCache
R6a:__Z29ClearRepeatingLogMessageStatev
g1e:_InternalEnumerator_1_get_Current_m3191242573_gshared
QEg:_Byte_Equals_m1161982810_AdjustorThunk
Yca:__ZN21EnlightenSceneMappingaSERKS_
Bva:__ZN14SafeBinaryRead21TransferSTLStyleArrayI13dynamic_arrayI17SortingLayerEntryLj0EEEEvRT_17TransferMetaFlags
uVc:__ZL48__ManagedRegistrationHelperFunction_MeshColliderPv
iUb:__ZN7ApiGLESD2Ev
_wa:__ZN9Transform47ClearTransformHierarchyAndApplyToSerializedDataEv
TQc:__ZN8JSONRead21TransferSTLStyleArrayINSt3__26vectorI8MonoPPtr13stl_allocatorIS3_L18MemLabelIdentifier1ELi16EEEEEEvRT_17TransferMetaFlags
bQf:_InputField_IsSelectionVisible_m3622592134
HCg:_AssemblyLoadEventHandler_Invoke_m1462077361
wya:__ZN6Camera23VirtualRedirectTransferER19StreamedBinaryWriteILb0EE
btk:dynCall_fidi
pOj:__ZN15dense_hashtableINSt3__24pairIK10KeyWrapperINS1_IPK9FieldInfoP11Il2CppClassEEEjEES9_17ReflectionMapHashIS8_EN14dense_hash_mapIS9_jSD_NS9_14EqualsComparerINS0_8equal_toIS8_EEEENS0_9allocatorISB_EEE9SelectKeyESI_SK_E12resize_deltaEjj
dhj:_GUILayoutEntry__ctor_m2229197035
uBa:__ZN15dense_hashtableINSt3__24pairIKN9ShaderLab7Program23ShaderKeywordSetAndHashEPKNS2_10SubProgramEEES4_NS3_24ShaderKeywordHashFunctorEN14dense_hash_mapIS4_S8_SA_NS0_8equal_toIS4_EE13stl_allocatorIS9_L18MemLabelIdentifier67ELi16EEE9SelectKeyESD_SG_E15insert_noresizeERKS9_
Kpc:__ZNK13MonoBehaviour13GetScriptTypeEv
pJa:__ZN13RenderTexture12SetDimensionE16TextureDimension
qag:_SslClientStream_set_ClientCertSelectionDelegate_m1261530976
Voa:__ZN9Scripting11UnityEngine16GradientColorKey9InitProxyEv
ie:_SDL_FreeRW
ved:__Z34CanvasRenderer_Get_Custom_PropCullP12Il2CppObject
PR:__ZN20SoundChannelInstance8getDelayE14FMOD_DELAYTYPEPjS1_
LBa:__ZNSt3__26vectorIN20GpuProgramParameters15StructParameterENS_9allocatorIS2_EEEC2ERKS5_
UWe:_ArrayReadOnlyList_1_Contains_m232667507_gshared
Jli:__Z77RuntimeInvoker_Boolean_t97287965_IntPtr_t_Int32_t2950945753_SByte_t1669577662PFvvEPK10MethodInfoPvPS4_
FEf:_PlayableHandle_GetPlayableType_m432385838_AdjustorThunk
EXc:__ZNSt3__26vectorIN20TextRenderingPrivate8FontImpl13CharacterInfoE13stl_allocatorIS3_L18MemLabelIdentifier1ELi16EEE8__appendEj
v:tempBigInt
AFi:_Array_InternalArray__Insert_TisKeyframe_t4206410242_m1558638568_gshared
qe:_emscripten_glVertexAttrib1fv
mfc:__ZNSt3__26vectorIN9ShaderLab20SerializedSubProgram12UAVParameterENS_9allocatorIS3_EEE7reserveEj
hqk:__ZSt11__terminatePFvvE
oO:__ZN12AudioManager14systemCallbackEP11FMOD_SYSTEM24FMOD_SYSTEM_CALLBACKTYPEPvS3_
O5h:_Nullable_1_Equals_m4046255732_gshared
v0h:_ReadOnlyCollection_1_System_Collections_Generic_ICollectionU3CTU3E_Clear_m3451551308_gshared
pyd:_BaseMeshEffect_OnEnable_m3291426649
uHa:__ZN16ReflectionProbes16UpdateSampleDataEv
gjf:_TrackingServices_NotifyUnmarshaledObject_m2784831802
_Hg:_ReadOnlyArrayListWrapper_Sort_m2577012511
Nka:__ZL46__ManagedRegistrationHelperFunction_UnityEventPv
FNg:_CultureInfo_GetCultureInfo_m56098747
o5b:__Z20AddActiveLocalLightsR11CullResultsR27LocalLightCullingParametersPPK15SharedLightDataPK8Vector4fRK9IndexListPfRSA_R12ActiveLightsSG_P5RectTIfEP13TargetEyeMask
Cs:__ZL53__ManagedRegistrationHelperFunction_AnimatorStateInfoPv
H1g:_Convert_ToDecimal_m1284148187
hUh:_Collection_1__ctor_m3489157029_gshared
fka:__ZL52__ManagedRegistrationHelperFunction_AndroidJNIHelperPv
i$c:_cf2_getNormalizedVector
Ne:_JS_Sound_Play
f4d:__ZL56_MethodBuilder_t600455149_CustomAttributesCacheGeneratorP21CustomAttributesCache
u1h:_ReadOnlyCollection_1_System_Collections_IList_set_Item_m1538987737_gshared
dec:__ZN9ShaderLab16SerializedShader8TransferI14SafeBinaryReadEEvRT_
GFd:_GridLayoutGroup_set_constraint_m3308895167
yUd:_ConstructionCallDictionary_SetMethodProperty_m3145285304
l1a:__ZN11TimeManagerD2Ev
NXe:_InternalEnumerator_1_System_Collections_IEnumerator_get_Current_m1503522504_gshared
nE:__ZN7mecanim8skeleton13SkeletonAlignEPKNS0_8SkeletonERKN4math7_float4ES7_i
hxc:__ZN19ShaderPropertySheet16SetVectorIndexedEN9ShaderLab16FastPropertyNameEifRK8Vector4fNS_8SetFlagsE
XOh:_Type_get_IsAbstract_m1120089130
qMf:_Vector3_get_normalized_m2454957984_AdjustorThunk
Ufj:_UriFormatException__ctor_m1115096473
LYj:__ZN15dense_hashtableINSt3__24pairIK10KeyWrapperINS1_IP11Il2CppClassjEEES4_EES6_N6il2cpp8metadata14ArrayClassHashEN14dense_hash_mapIS6_S4_SB_NS6_14EqualsComparerINSA_17ArrayClassCompareEEENS0_9allocatorIS8_EEE9SelectKeyESF_SH_E9copy_fromERKSK_j
Nij:_GUIUtility_IsExitGUIException_m3644066650
J$:__ZN11UnityEngine15CloudWebService14DataDispatcher4StopEv
kRg:_Int16_System_IConvertible_ToUInt64_m134975563
ofc:__ZNSt3__26vectorIN9ShaderLab20SerializedSubProgram12UAVParameterENS_9allocatorIS3_EEE8__appendEj
jJc:__ZN5IMGUI9GUIWindow5OnGUIER8GUIState
Kgg:_Single_System_IConvertible_ToDecimal_m325860800_AdjustorThunk
wkh:_Array_InternalArray__ICollection_CopyTo_TisSingle_t1397266774_m455540885_gshared
Nja:__ZN17ScriptingGCHandle7AcquireE18ScriptingObjectPtr25ScriptingGCHandleWeakness
Yni:__Z74RuntimeInvoker_RuntimeObject_RuntimeObject_Int64_t3736567304_RuntimeObjectPFvvEPK10MethodInfoPvPS4_
Yrk:dynCall_iifiii
WOa:__Z21HasAlphaTextureFormat13TextureFormat
lW:__ZN12AudioManager6UpdateEv
QOa:__ZN14ImageReference9BlitImageERKS_NS_8BlitModeE
cv:__ZN8Animator12AddToManagerEv
qtg:_X509Chain__ctor_m2674663382
w0:__GLOBAL__sub_I_Runtime_Core_Callbacks_0_cpp
w0h:_ReadOnlyCollection_1_System_Collections_Generic_IListU3CTU3E_Insert_m1121807192_gshared
NFb:__ZN23CachedSerializationDataD2Ev
A7b:__ZNK25CameraStackRenderingState31CalculateStereoCameraTargetTypeEv
UGa:__ZN14RenderSettings23VirtualRedirectTransferER14SafeBinaryRead
o4e:_InternalEnumerator_1_get_Current_m114240259_gshared
dak:__ZN6il2cpp2os10ThreadImpl15CurrentThreadIdEv
_cg:_SymmetricAlgorithm_get_Key_m3241860519
UQf:_U3CMouseDragOutsideRectU3Ec__Iterator1_Reset_m2233410497
q0:__GLOBAL__sub_I_Runtime_Camera_5_cpp
v7c:_UNITY_tt_face_load_fpgm
Twa:__Z17IsObjectAvailablei
C1a:__ZN12InputManagerD0Ev
FLh:_ExecutionContext_Capture_m681135907
VYe:_InternalEnumerator_1_System_Collections_IEnumerator_get_Current_m2889979481_AdjustorThunk
bpk:_posix_memalign
sph:_ASN1_GetBytes_m3305539297
K7:__ZNK15MonoScriptCache7ReleaseEv
KBj:__ZN6il2cpp2vm5Class13HasReferencesEP11Il2CppClass
ag:_glBindTexture
rnk:_snprintf
Yui:__Z50RuntimeInvoker_RuntimeObject_Resources_t1597885468PFvvEPK10MethodInfoPvPS4_
mxk:_emscripten_glVertexAttrib1fv__wrapper
wxf:_InvokableCallList_RemoveListener_m1769379719
Iwc:__ZN16LevelGameManagerC2E10MemLabelId18ObjectCreationMode
aoj:_AudioExtensionManager_RemoveExtensionFromManager_m442924172
dCf:_MonoBehaviour_Internal_IsInvokingAll_m2820042090
Lvk:_emscripten_glGetProgramInfoLog__wrapper
Vt:__ZN25AnimatedPropertyEvaluator29BindCurveToScriptingObjectPtrERKN13AnimationClip10FloatCurveEj18ScriptingObjectPtrb
Keg:_String_Equals_m1744302937
Awf:_Display__ctor_m501911701
RYh:_ReadOnlyCollection_1_System_Collections_Generic_IListU3CTU3E_Insert_m1020890112_gshared
kKg:_Hashtable__cctor_m4112166779
CBd:_DefaultControls_SetDefaultTextValues_m1943359795
W$b:__Z19SetupMotionMatricesR6CameraR18RPDataMotionVector
Ryj:__ZL7log2_64y
OF:__ZN26AnimatorControllerPlayable18PrepareForPlaybackERN7mecanim6memory9AllocatorE
aG:__ZN8Animator11AnimatorJob11AddPlayableEP17AnimationPlayablef
BFd:_GridLayoutGroup_get_cellSize_m2967185053
g5g:_CurrentSystemTimeZone_GetUtcOffset_m340358963
S6i:_PKCS12_Decrypt_m1280162536
cZe:_InternalEnumerator_1_get_Current_m3081223448_gshared
qgj:_Event_get_isMouse_m1058251071
eEa:__ZN10VertexDataC2ERKS_17ShaderChannelMask10MemLabelId
hJg:_CaseInsensitiveHashCodeProvider_AreEqual_m1790260777
j2c:_otv_JSTF_validate
OBa:__ZN22CreateGpuProgramOutputC2Ev
Lxf:_PersistentCallGroup_Initialize_m4253175514
yDg:_Boolean_System_IConvertible_ToChar_m4279513009_AdjustorThunk
dKg:_Hashtable__ctor_m1763145853
WMe:_NumberFormatter_ScaleOrder_m3813786990
yrh:_PrivateKeyInfo_DecodeDSA_m771724585
owg:_Interval_get_Size_m4163671410_AdjustorThunk
Vtc:__ZN8GUILayer12CleanupClassEv
GRh:_UInt32_System_IConvertible_ToSByte_m1061556466
Pkf:_WellKnownClientTypeEntry__ctor_m2471908952
JBj:__ZN6il2cpp2vm5Class4InitEP11Il2CppClass
ga:invoke_vidi
kOe:_NumberFormatter_FormatRoundtrip_m19342689
tkf:_RemotingServices_CreateClientProxyForContextBound_m783705199
oBc:__ZNK15GUIEventManager15GetEventAtIndexEi
sgd:__ZN2UI14CanvasRenderer17SyncDirtyElementsER8JobFence
e9e:_Enumerator_System_Collections_IEnumerator_get_Current_m3816090481_gshared
_bk:__ZN6il2cpp5utils11StringUtils15StringDuplicateEPKc
dxh:_DefaultComparer_Equals_m2480133610_gshared
eBa:__ZNK9ShaderLab21ShaderRasterStateDesc16ToGfxRasterStateEPK19ShaderPropertySheetS3_R14GfxRasterState
NIi:_Array_Sort_TisVector3_t3722313464_m1915176437_gshared
ylk:__ZN6il2cpp2os9EventImplC2Ebb
TXf:_ScrollRect_OnInitializePotentialDrag_m3139711961
YQi:_List_1_get_Item_m2113769949_gshared
KTf:_MaskableGraphic_OnTransformParentChanged_m329502413
Z3:__Z20IsMatrixBuiltinParamPKcPi
seg:_String_memcpy4_m979367827
DJh:_UnicodeEncoding_GetBytesInternal_m1902824297
Lwc:__ZN8Renderer19PostInitializeClassEv
Zgh:_Array_FindIndex_TisRuntimeObject_m2504082708_gshared
ogd:__ZNSt3__26__treeINS_12__value_typeINS_4pairIKiS3_EEN2UI14DepthSortLayerEEENS_19__map_value_compareIS4_S7_NS_4lessIS4_EELb1EEE13stl_allocatorIS7_L18MemLabelIdentifier1ELi16EEE25__emplace_unique_key_argsIS4_JRKNS_21piecewise_construct_tENS_5tupleIJOS4_EEENSK_IJEEEEEENS2_INS_15__tree_iteratorIS7_PNS_11__tree_nodeIS7_PvEEiEEbEERKT_DpOT0_
J8i:_X509Chain_FindCertificateRoot_m1937726457
VYg:_StreamAsyncResult_get_AsyncWaitHandle_m3390046559
dkd:__ZN11UnityEngine15PlatformWrapper21GetVRPlayAreaGeometryER13dynamic_arrayI8Vector3fLj0EE
Mhk:__ZN6il2cpp6icalls8mscorlib6System8Delegate23CreateDelegate_internalEP20Il2CppReflectionTypeP12Il2CppObjectP22Il2CppReflectionMethodb
faf:_Enumerator_System_Collections_IEnumerator_get_Current_m921113401_AdjustorThunk
eFb:__ZN18DelayedCallManager18CancelCallDelayed2E4PPtrI6ObjectEPF15CallObjectStatePS1_PvES7_
Wua:__ZN25ThreadsafeLinearAllocator10ReallocateEPvji
Dob:__Z18Transfer_BlittableI14SafeBinaryReadLb1E11QuaternionfEvRK29SerializationCommandArgumentsR31RuntimeSerializationCommandInfo
$ga:__ZN18SpriteAtlasManagerD0Ev
vx:__ZN7mecanim9animation10SampleClipERKNS0_12ConstantClipEjPf
mXa:__ZN10Matrix4x4f8TransferI14SafeBinaryReadEEvRT_
upf:_CryptographicUnexpectedOperationException__ctor_m2381988196
YSj:__ZN14dense_hash_mapI10KeyWrapperIPK22Il2CppGenericParameterEPK24MonoGenericParameterInfoN6il2cpp5utils11PointerHashIS2_EENS4_14EqualsComparerINSt3__28equal_toIS3_EEEENSD_9allocatorINSD_4pairIKS4_S7_EEEEE15set_deleted_keyERSJ_
LF:__ZN14AvatarPlayback8StopTimeEv
H$e:_InternalEnumerator_1_System_Collections_IEnumerator_get_Current_m4213507601_gshared
oba:__Z6AppendRKN4core12basic_stringIcNS_20StringStorageDefaultIcEEEEPKc
y5j:__ZN6il2cpp2vm6Object12NullableInitEPhP12Il2CppObjectP11Il2CppClass
_ma:__ZN9Scripting11UnityEngine16TrackedReference12CleanupProxyEv
q_c:__ZN20TextRenderingPrivate19NativeTextGeneratorC2ERK11UTF16StringPNS_8FontImplE11ColorRGBA32ifRK8Vector2fbifiibffbbP13dynamic_arrayIN2UI8UIVertexELj0EE
Fij:_GUIUtility_RemoveCapture_m1294193818
eOb:__ZN7ApiGLES18ClearBufferSubDataEjN2gl12BufferTargetEll
Goc:__Z37Camera_Get_Custom_PropAllCamerasCountv
ZPa:__ZN14Texture2DArray8TransferI18StreamedBinaryReadILb0EEEEvRT_
YJc:__Z38Register_UnityEngine_GUIStyle_get_namev
Z8c:_Split_Cubic
$a:invoke_fiiii
rQf:_InputField_OnSubmit_m3583210804
efj:_Uri_CheckHostName_m2213216182
jxk:_emscripten_glBindRenderbuffer__wrapper
tKi:_Mesh_SetUvsImpl_TisVector2_t2156229523_m3009194955_gshared
D1f:_HMAC_set_Key_m3535779141
PIi:_Array_Sort_TisVector4_t3319028937_TisVector4_t3319028937_m4254533673_gshared
sHg:_ArrayListWrapper_Contains_m2641184447
K8c:_ft_black_render
eli:__Z177RuntimeInvoker_Int32_t2950945753_RuntimeObject_Int32_t2950945753_Int32_t2950945753_RuntimeObject_Int32_t2950945753_EncoderFallbackBufferU26_t2343550713_CharU5BU5DU26_t3299466565PFvvEPK10MethodInfoPvPS4_
itk:dynCall_viiifi
TQb:__ZN18GfxFramebufferGLES20ActiveContextChangedEPP17RenderSurfaceBaseS2_
mlb:__Z19PluginsRenderMarkeri
OI:__ZN10HumanTrait18InitializeBoneNameEv
vfc:__ZNSt3__26vectorIN9ShaderLab20SerializedSubProgram15StructParameterENS_9allocatorIS3_EEE6assignINS_11__wrap_iterIPS3_EEEENS_9enable_ifIXaasr21__is_forward_iteratorIT_EE5valuesr16is_constructibleIS3_NS_15iterator_traitsISC_E9referenceEEE5valueEvE4typeESC_SC_
X3j:__ZNSt3__214__split_bufferIN6il2cpp2vm5Image20EmbeddedResourceDataERNS_9allocatorIS4_EEEC2EjjS7_
Ete:__ZL66SkeletonBone_t4134054672_CustomAttributesCacheGenerator_parentNameP21CustomAttributesCache
kid:__Z69Register_UnityEngine_Analytics_UnityAnalyticsHandler_Internal_Destroyv
Asg:_X509Certificate2Collection_Add_m3151757943
g8e:_Comparer_1__cctor_m951016718_gshared
XWc:__ZN9Scripting11UnityEngine13CharacterInfo9InitProxyEv
lJg:_CaseInsensitiveHashCodeProvider_get_DefaultInvariant_m4264275163
wli:__Z195RuntimeInvoker_Int32_t2950945753_RuntimeObject_Int32_t2950945753_Int32_t2950945753_Int32_t2950945753_RuntimeObject_DecoderFallbackBufferU26_t3866396827_ByteU5BU5DU26_t4057885439_SByte_t1669577662PFvvEPK10MethodInfoPvPS4_
mX:__ZN5physx14PxLightCpuTask12addReferenceEv
zDa:__ZNK15InstancingProps35FillInstanceBufferDispatchConstantsIN10Instancing14RenderLoopArgsEEEvPPvjjRK19ShaderPropertySheetRKT_
Zyi:__Z86RuntimeInvoker_Int32_t2950945753_Color32_t2600501292_Color32_t2600501292_RuntimeObjectPFvvEPK10MethodInfoPvPS4_
AWa:__ZN21EnlightenSceneMapping8TransferI19StreamedBinaryWriteILb0EEEEvRT_
r6j:__ZN6il2cpp2gc16GarbageCollector19InitializeFinalizerEv
YA:__ZN7mecanim8skeleton18CreateSkeletonMaskEjPKNS0_19SkeletonMaskElementERNS_6memory9AllocatorE
IKc:__ZN10GUIManager10DoGUIEventER10InputEventb
wub:__Z35Transfer_Blittable_FixedBufferFieldI24GenerateTypeTreeTransferxEvRK29SerializationCommandArgumentsR31RuntimeSerializationCommandInfo
Z2c:_otv_LangSys_validate
lHf:_RectOffset_get_right_m2294081512
Urj:__ZL25UnresolvedVirtualCall_154P12Il2CppObjectfPK10MethodInfo
YFi:_Array_InternalArray__set_Item_TisLink_t544317964_m1234244240_gshared
B7c:_UNITY_TT_Init_Glyph_Loading
onf:_SerializationInfo_GetBoolean_m1756153320
dQ:__Z32AudioMixerDuckingProcessCallbackP21UnityAudioEffectStatePfS1_jii
GBf:_Mesh_get_uv2_m3615020997
Jvc:__ZN26CustomRenderTextureManagerD2Ev
orc:__Z32Input_Get_Custom_PropInputStringv
_xh:_EqualityComparer_1_System_Collections_IEqualityComparer_Equals_m4172006498_gshared
eM:__ZN12AudioManager8TransferI24GenerateTypeTreeTransferEEvRT_
NAf:_Mathf_Round_m4098141538
sIa:__Z25GetBytesFromTextureFormat13TextureFormat
Y_j:__ZN6il2cpp6icalls8mscorlib6System9Threading6Thread20Thread_free_internalEP12Il2CppThreadi
RIb:__ZNK11PreloadData18GetInstanceIDArrayER13dynamic_arrayIiLj0EE
hye:__ZL64UnityAnalyticsHandler_t3011359618_CustomAttributesCacheGeneratorP21CustomAttributesCache
nng:__KeysEnumerator_get_Current_m2996478063
H8:__Z32scripting_class_get_assemblyname17ScriptingClassPtr
$jd:__ZN11UnityEngine15PlatformWrapper15GetVRDeviceNameEv
Kui:__Z99RuntimeInvoker_Boolean_t97287965_Int32_t2950945753_PointerEventDataU26_t867828220_SByte_t1669577662PFvvEPK10MethodInfoPvPS4_
n_e:_InternalEnumerator_1_get_Current_m2128158355_AdjustorThunk
Iib:__ZN9GfxDevice21RegisterNativeTextureE9TextureIDi16TextureDimension
lEd:_GraphicRegistry__ctor_m1851575309
DAi:__Z52RuntimeInvoker_Void_t1185182177_Keyframe_t4206410242PFvvEPK10MethodInfoPvPS4_
Oik:__ZN6il2cpp6icalls8mscorlib6System10Reflection4Emit11TypeBuilder20create_generic_classEP27Il2CppReflectionTypeBuilder
cRb:__ZNK16UniformCacheGLES6SubmitEjRK13dynamic_arrayIN20GpuProgramParameters14ValueParameterELj0EERKS0_IiLj0EE
Leh:_PlayableHandle_IsPlayableOfType_TisAnimationLayerMixerPlayable_t3631223897_m201603007_gshared
IU:__Z60Register_UnityEngine_AudioListener_GetNumExtensionPropertiesv
Vi:_emscripten_glUniformMatrix4fv
_Yj:__ZN15dense_hashtableINSt3__24pairIK10KeyWrapperINS1_IP11Il2CppClassjEEES4_EES6_N6il2cpp8metadata14ArrayClassHashEN14dense_hash_mapIS6_S4_SB_NS6_14EqualsComparerINSA_17ArrayClassCompareEEENS0_9allocatorIS8_EEE9SelectKeyESF_SH_E13set_empty_keyERKS8_
t$e:_InternalEnumerator_1_get_Current_m3839250771_AdjustorThunk
uBk:b100
JBf:_Mesh_get_colors32_m1253190811
_ek:_GC_stopped_mark
ord:__ZL59__ManagedRegistrationHelperFunction_SubsystemDescriptorBasePv
zsf:_AnimationCurve_Finalize_m2397002729
Q_f:_Text_OnEnable_m616205807
aFi:__Z50RuntimeInvoker_RuntimeObject_ColorTween_t809614380PFvvEPK10MethodInfoPvPS4_
fQf:_InputField_OnFillVBO_m3649106646
Vmf:_SerializationCallbacks__cctor_m1674315180
nHj:__ZNK15dense_hashtableI10KeyWrapperIPK19Il2CppGenericMethodES4_N6il2cpp8metadata23Il2CppGenericMethodHashEN14dense_hash_setIS4_S7_NS4_14EqualsComparerINS6_26Il2CppGenericMethodCompareEEENSt3__29allocatorIS4_EEE8IdentityESB_SE_E23find_position_with_hashERKS4_j
GAa:__ZNSt3__26vectorIN12FlareManager10FlareEntryENS_9allocatorIS2_EEE21__push_back_slow_pathIS2_EEvOT_
jic:__ZN9ShaderLab20SerializedSubProgram16TextureParameter8TransferI19StreamedBinaryWriteILb0EEEEvRT_
Yta:__ZNK7Hash12812PackToUInt32Ev
tIg:_SynchronizedArrayListWrapper_IndexOf_m3642674350
R$:__ZN11UnityEngine15CloudWebService16SessionContainer8AddEventEPNS0_14CloudEventInfoE
Nmb:__Z4TrimRKN4core12basic_stringIcNS_20StringStorageDefaultIcEEEES5_
JJi:_Dictionary_2_Do_ICollectionCopyTo_TisKeyValuePair_2_t3842366416_m1399105608_gshared
Mrg:_X509Certificate2_Import_m4026562329
ibf:_Enumerator_System_Collections_IEnumerator_get_Current_m2763095718_AdjustorThunk
syk:_glGetStringi__wrapper
iXa:__ZN10VertexData8TransferI14SafeBinaryReadEEvRT_
wga:__ZN13RuntimeStaticI12AdsIdHandlerLb0EE16StaticInitializeEPv
Ogk:_GC_malloc_atomic
dQd:_ActivatedClientTypeEntry_ToString_m2494181680
ZBh:_HashSet_1_GetEnumerator_m3346268098_gshared
Bjk:__ZN6il2cpp5utils6Memory13AlignedMallocEjj
xQf:_Selectable_get_animator_m2899312855
K6:__ZL20SortItemByInstanceIDRKN18AwakeFromLoadQueue4ItemES2_
ZLf:_Vector2_op_Multiply_m2347887432
Fng:_TypeConverterAttribute__ctor_m1774069684
hB:__ZNK34AnimationStateMachineMixerPlayable26GetInterruptedPosePlayableEv
Omd:__ZN20UnityConnectSettings8TransferI24GenerateTypeTreeTransferEEvRT_
QD:__ZN34BlobWriteTransferSTLStyleArrayImplI22OffsetPtrArrayTransferIbEEclERS1_17TransferMetaFlagsR9BlobWrite
dvc:__ZZN12MeshRenderer15InitializeClassEvEN29FunctorImpl_205kDidDeleteMesh4CallEPviR11MessageData
yyg:_Byte_ToString_m4063101981
zLe:_MonoType_GetConstructors_m2574682189
vog:_ServicePointManager_FindServicePoint_m4119451290
Hda:__ZL31InitializeRendererUpdateManagerPv
TMd:_ParameterInfo__ctor_m2779026345
qOf:_InputField_set_onValueChange_m1251390545
Gma:__ZN9Scripting11UnityEngine18WaitForFixedUpdate12CleanupProxyEv
Zla:__ZL46__ManagedRegistrationHelperFunction_RectOffsetPv
rNe:_NumberFormatter_get_IsZeroInteger_m2263284741
g5i:_X509Certificate_PEM_m2020851166
glh:_Array_InternalArray__Insert_TisDateTime_t3738529785_m2308632330_gshared
A1a:__ZN11TimeManager8TransferI19StreamedBinaryWriteILb0EEEEvRT_
s8f:_TlsServerCertificateRequest_ProcessAsTls1_m3214041063
t3c:_compare_uni_maps
Qkd:__ZN11UnityEngine15PlatformWrapper27GetGraphicsCapsSupportFlagsEv
KJi:_Dictionary_2_Do_ICollectionCopyTo_TisRuntimeObject_m3695543300_gshared
cyb:__ZN12NativeBufferI16Converter_StringE15SetupForWritingER9ArrayInfo
Woh:_SequentialSearchPrimeGeneratorBase_GenerateSearchBase_m3595783982
$J:__ZN13RuntimeStaticI18AssetBundleManagerLb1EE16StaticInitializeEPv
Muk:___cxa_end_catch__wrapper
iGg:_Char_ToString_m278452217
dYh:_ReadOnlyCollection_1_System_Collections_IList_set_Item_m4047645019_gshared
rrd:__ZL50__ManagedRegistrationHelperFunction_ReferencePointPv
l0f:_BigInteger_op_RightShift_m460065452
H$j:__ZN6il2cpp6icalls8mscorlib6System5Array13ClearInternalEP11Il2CppArrayii
MUf:_RectMask2D_get_rootCanvasRect_m2913509457
y9c:__Z38TextGenerator_Get_Custom_PropLineCountP12Il2CppObject
r4i:_InternalAsyncResult_SetComplete_m963842420
Gjg:_Encoding_GetEncoding_m2801244948
gLc:__ZN11IMGUIModule25GetGUIStyleScriptingClassEv
T5c:_tt_get_interface
v4i:_SslStreamBase_EndRead_m495357226
J_j:__ZN6il2cpp5utils9PathUtils7CombineIcEENSt3__212basic_stringIT_NS3_11char_traitsIS5_EENS3_9allocatorIS5_EEEERKSA_SC_
Qni:__Z64RuntimeInvoker_RuntimeObject_SByte_t1669577662_SByte_t1669577662PFvvEPK10MethodInfoPvPS4_
Szc:__ZN13PlayableGraph21InvalidateMultithreadEv
fij:_GUIScrollGroup_CalcHeight_m3173593443
PSe:_EnumBuilder_GetConstructorImpl_m3068576149
K5:__Z18ConvertUTF16toUTF8PPKtS0_PPhS2_15ConversionFlags
Iak:__ZN6il2cpp2os20PathErrnoToErrorCodeERKNSt3__212basic_stringIcNS1_11char_traitsIcEENS1_9allocatorIcEEEEi
HCe:__ZL68InputField_t3762917431_CustomAttributesCacheGenerator_m_KeyboardTypeP21CustomAttributesCache
dCc:__Z24GetActualTargetFrameRatev
Eyj:__ZL16my_g_bit_nth_msfj
Kcg:_SHA512Managed_Sigma1_m922902398
KWi:_Enumerator_MoveNext_m3662315381_AdjustorThunk
a8f:_TlsClientFinished_ProcessAsTls1_m2429863130
ZYb:__Z23SetupStereoFlareElementP11FlareVertexRK8Vector2fS3_S3_RK11ColorRGBA32RK10Matrix4x4fRK8Vector3fb
XBj:__ZN6il2cpp2vm5Class15GetInstanceSizeEPK11Il2CppClass
sa:invoke_iiiifiiii
HDb:__ZNSt3__224__buffered_inplace_mergeIRN10vector_mapI17ScriptingClassPtrPKN5Unity4TypeENS_4lessIS2_EENS_9allocatorINS_4pairIS2_S6_EEEEE13value_compareENS_11__wrap_iterIPSB_EEEEvT0_SJ_SJ_T_NS_15iterator_traitsISJ_E15difference_typeESN_PNSM_10value_typeE
VLf:_Vector2_Equals_m832062989_AdjustorThunk
Pcf:_ShimEnumerator_MoveNext_m2406150314_gshared
wRb:__ZL19BlitFramebufferImplRN4gles23BlitFramebufferDrawQuadER9GfxDevice9TextureIDRK8Vector4f
SOj:__ZN15dense_hashtableINSt3__24pairIK10KeyWrapperIPK10Il2CppTypeEjEES6_N6il2cpp8metadata14Il2CppTypeHashEN14dense_hash_mapIS6_jSB_NS6_14EqualsComparerINSA_26Il2CppTypeEqualityComparerEEENS0_9allocatorIS8_EEE9SelectKeyESF_SH_E4findERS7_
Wrk:dynCall_viiiiiiiiiiiiii
uZc:_UNITY_FT_List_Add
hwc:__ZN14Texture2DArray11InitTextureEiii13TextureFormatb
c6i:_X509Extension__ctor_m1474351312
n8h:_InvokableCall_1_Invoke_m1524307439_gshared
_Ug:_Directory_CreateDirectoriesInternal_m3735342319
gFc:__Z41Camera_CUSTOM_WorldToScreenPoint_InjectedP12Il2CppObjectRK8Vector3fRS1_
HSf:_LayoutUtility_GetLayoutProperty_m3731360667
NTj:__ZN15dense_hashtableINSt3__24pairIK10KeyWrapperINS1_IPK11Il2CppImageP11Il2CppClassEEEjEES9_17ReflectionMapHashIS8_EN14dense_hash_mapIS9_jSD_NS9_14EqualsComparerINS0_8equal_toIS8_EEEENS0_9allocatorISB_EEE9SelectKeyESI_SK_E14squash_deletedEv
Pcg:_SHAConstants__cctor_m1699027474
s1b:__ZNK6Camera26GetStereoSingleCullEnabledEv
r4a:__Z14resize_trimmedINSt3__26vectorIN4core12basic_stringIcNS2_20StringStorageDefaultIcEEEE13stl_allocatorIS6_L18MemLabelIdentifier13ELi16EEEEEvRT_j
k0:__GLOBAL__sub_I_Runtime_2D_SpriteAtlas_0_cpp
lpb:__Z18Transfer_BlittableI14SafeBinaryReadLb0EaEvRK29SerializationCommandArgumentsR31RuntimeSerializationCommandInfo
mGg:_CharEnumerator_System_Collections_IEnumerator_get_Current_m1328529384
r7g:_DBNull__ctor_m3431698857
ZUa:__ZN4core8hash_setINS_4pairIKiiLb0EEENS_9hash_pairINS_4hashIiEES2_iEENS_10equal_pairINSt3__28equal_toIiEES2_iEEE6insertERKS3_
Jxj:_AnimationLayerMixerPlayable__ctor_m860721801
L7c:_UNITY_FT_List_Iterate
HFg:_Char_System_IConvertible_ToUInt64_m3536560782
uxh:_EqualityComparer_1__cctor_m3452395357_gshared
xXb:__Z20SyncFenceCullResultsR11CullResults
cTb:__ZN15TextureTFMethod20IsBoneCountSupportedEi
Qah:_Double_ToString_m3828879243_AdjustorThunk
Htb:__Z22TransferField_NonArrayI17RemapPPtrTransfer27Converter_SimpleNativeClassI8GUIStyleEEvRK23StaticTransferFieldInfoR31RuntimeSerializationCommandInfoRT0_
NIe:_TextReader_Synchronized_m3004980758
Npd:__ZNK20UnityWebRequestProtoI24UnityWebRequestTransport16AtomicRefCounter14RedirectHelper14ResponseHelper15DownloadHandler13UploadHandler18CertificateHandler12HeaderHelper14AsyncOperationE16GetUploadedBytesEv
Rqc:__ZNK17AnimationCurveTplIfE20EvaluateWithoutCacheEfRf
Sri:__Z67RuntimeInvoker_Boolean_t97287965_Rect_t2360479859_SByte_t1669577662PFvvEPK10MethodInfoPvPS4_
XBa:__ZN19ShaderPropertySheet10SetTextureERK23FastTexturePropertyNameP7Texture
BQe:_CustomAttributeData__ctor_m2966233049
tzd:_CanvasUpdateRegistry_PerformUpdate_m1793997159
s7f:_Context_set_ClientWriteIV_m3405909624
QAc:__ZN4Mesh10SetNormalsEPK8Vector3fj
Ejj:_AesManaged_CreateDecryptor_m692040246
Rbk:__ZNSt3__212basic_stringIDsNS_11char_traitsIDsEENS_9allocatorIDsEEE9__grow_byEjjjjjj
GH:__ZN17AnimationCurveTplIfE8TransferI14SafeBinaryReadEEvRT_
cGi:_Array_InternalArray__set_Item_TisInt16_t2552820387_m2544074754_gshared
KAg:_ArithmeticException__ctor_m3551809662
lbc:__Z29StdTemplateConversionFunctionIybEbPvR14SafeBinaryRead
GTa:__ZNSt3__26vectorIN15QualitySettings14QualitySettingENS_9allocatorIS2_EEE6assignIPS2_EENS_9enable_ifIXaasr21__is_forward_iteratorIT_EE5valuesr16is_constructibleIS2_NS_15iterator_traitsIS9_E9referenceEEE5valueEvE4typeES9_S9_
Yxh:_EqualityComparer_1__cctor_m3995042002_gshared
oHh:_List_1_CheckCollection_m1671972112_gshared
Naf:_Enumerator_System_Collections_IEnumerator_get_Current_m1747693366_gshared
PJh:_UnicodeEncoding_GetPreamble_m3002287178
TVc:__GLOBAL__sub_I_artifacts_WebGL_codegenerator_0_cpp_5477
Inj:_AudioSource_get_spatialize_m3609701298
PEe:__ZL56Toggle_t2735377061_CustomAttributesCacheGenerator_m_IsOnP21CustomAttributesCache
tmb:__ZN20GpuProgramParameters14AddVectorParamEPKcii15ShaderParamTypeiiiP16PropertyNamesSet
Mod:__ZN9Scripting19UnityEngineInternal15WebRequestUtils12CleanupProxyEv
hpd:__ZNK12HeaderHelper3GetERKN4core12basic_stringIcNS0_20StringStorageDefaultIcEEEE
T1a:__ZN9InputAxis8TransferI14SafeBinaryReadEEvRT_
Z6:__ZNK21ExecutionOrderManager30GetCustomAwakeFromLoadQueueForEPKN5Unity4TypeE
god:__Z27RegisterModule_UnityConnectv
_sc:__ZZL31RegisterRectTransformPropertiesR22GenericPropertyBindingEN32Wrapper_RectTransformSizeDeltax013GetFloatValueEPv
YXg:_MemoryStream_Expand_m3554752073
iSj:__ZN6il2cpp2vm10Reflection27GetCustomAttributesCacheForEP25Il2CppReflectionParameter
PIf:_ScriptableObject_CreateInstance_m2611081756
Zkf:_ObjectRecord_get_IsInstanceReady_m2304516395
n4e:_InternalEnumerator_1_System_Collections_IEnumerator_get_Current_m1635397542_gshared
DYg:_Path__cctor_m3273994011
ekj:_AnalyticsEventTracker__ctor_m3064238498
nqk:__ZNSt11logic_errorD2Ev
M5g:_DateTimeUtils_CountRepeat_m3396693018
fUh:_WeakReference_get_Target_m168713953
ywk:_glBindRenderbuffer__wrapper
eP:__ZN10ObjectPoolIN4FMOD12ChannelGroupENS0_13ChannelGroupIEE7SetSizeEi
pjj:_SymmetricTransform_FinalDecrypt_m764004682
jak:__ZN6il2cpp2os10ThreadImpl33UnregisterCurrentThreadForCleanupEv
ZSc:__ZN9Scripting11UnityEngine26ParticleSystemVertexStream9InitProxyEv
$bj:_Parser_ParseGroupingConstruct_m263270497
eod:__ZN11UnityEngine9Analytics22EventLimitReachedEventC2EjyyRKN4core12basic_stringIcNS2_20StringStorageDefaultIcEEEEb
TTj:__ZN14dense_hash_mapI10KeyWrapperINSt3__24pairIPK9EventInfoP11Il2CppClassEEEj17ReflectionMapHashIS8_ENS9_14EqualsComparerINS1_8equal_toIS8_EEEENS1_9allocatorINS2_IKS9_jEEEEE15set_deleted_keyERSH_
Zqb:__Z14resize_trimmedINSt3__26vectorI17AnimationCurveTplIfE13stl_allocatorIS3_L18MemLabelIdentifier1ELi16EEEEEvRT_j
jpc:__Z12GUIDToStringRK9UnityGUID
QMf:_Vector4_op_Division_m264790546
IR:__ZN11SoundHandleC2ERKS_
qv:__ZN17AnimationPlayableC2E18DirectorPlayerType
sNf:_InputField_set_shouldHideMobileInput_m1650743574
rHj:__ZNK6il2cpp5utils11collections13ArrayValueMapIPK10Il2CppType17Il2CppInteropData26InteropDataToTypeConverterNS_8metadata14Il2CppTypeLessENS8_26Il2CppTypeEqualityComparerEE10find_firstERKS5_
tWg:_FileStream_get_CanSeek_m331583577
wr:__ZNSt3__26__sortIR23DependencySortPredicatePN4core4pairIiP9BehaviourLb0EEEEEvT0_S9_T_
xqf:_DSAParameters_t1885824122_marshal_pinvoke_back
RB:__ZN8Animator22OnGraphTopologyChangedEP8Playablei
Loh:_Kernel_MultiplyByDword_m1266935086
Zx:__ZN17AnimationPlayable18DeallocateBindingsEv
nhi:__Z158RuntimeInvoker_Boolean_t97287965_RuntimeObject_Int32U26_t1369213839_Int32_t2950945753_Int32_t2950945753_RuntimeObject_SByte_t1669577662_ContextU26_t3937453398PFvvEPK10MethodInfoPvPS4_
oig:_String_Trim_m3384720403
YGa:__ZN14RenderSettings18TransferDeprecatedI14SafeBinaryReadEEvRT_
Dli:__Z93RuntimeInvoker_Single_t1397266774_SingleU26_t1922108698_Single_t1397266774_Single_t1397266774PFvvEPK10MethodInfoPvPS4_
a0j:__ZN6il2cpp2vm9Exception27RaiseNullReferenceExceptionERKNS_5utils10StringViewIDsEEP19Il2CppSequencePoint
fgj:_Event__ctor_m526447123
Noi:__Z88RuntimeInvoker_RuntimeObject_RuntimeObject_RuntimeObject_RuntimeObject_Int32_t2950945753PFvvEPK10MethodInfoPvPS4_
WPh:_Type_ToString_m3975981286
t2:__ZN12TLSAllocatorI14StackAllocatorE8AllocateEji
Xoj:_ConsumeSampleFramesNativeFunction_BeginInvoke_m342678987
Y7:__ZN16ScriptingManager18GetMonoScriptCacheEi
fVb:__ZN20ArchiveStorageHeader13GetDataOffsetERKNS_6HeaderE
ncj:_ExpressionAssertion__ctor_m2554412824
HCh:_Enumerator_System_Collections_IEnumerator_get_Current_m2237476582_gshared
spb:__Z18Transfer_BlittableI14SafeBinaryReadLb1EyEvRK29SerializationCommandArgumentsR31RuntimeSerializationCommandInfo
gUh:_WeakReference_Finalize_m2841826116
HMe:_NullReferenceException__ctor_m3076065613
mMc:__ZN8JSONRead8TransferIfEEvRT_PKc17TransferMetaFlagsb
TRf:_LayoutGroup_OnDisable_m3483954898
Wic:__ZN9ShaderLab7Program22ComputeSupportsShadowsEv
yqg:_X509SubjectKeyIdentifierExtension_Decode_m1505409124
cjc:__ZL23AddGpuProgramParametersR20GpuProgramParametersRKNSt3__26vectorIN9ShaderLab20SerializedSubProgram15MatrixParameterENS1_9allocatorIS5_EEEERKNS2_INS4_15VectorParameterENS6_ISB_EEEEiiP16PropertyNamesSet
Oha:__ZN6prcoreL17RemapGenericFloatI18TexFormatARGBFloat17TexFormatRGBAHalfEEvPKNS_9InnerInfoE
bkj:_AnalyticsEventParamListContainer__ctor_m1995104893
Thg:_String_System_IConvertible_ToUInt16_m2888090399
IQ:__ZN11AudioSource21ApplyCachedParametersE12SoundChannel
xPe:_Assembly_InternalGetType_m3065345470
xOd:_ResourceSet__ctor_m3356376607
k4d:__ZL56_ParameterInfo_t489405856_CustomAttributesCacheGeneratorP21CustomAttributesCache
aWa:__ZN15SerializeTraitsI33EnlightenTerrainChunksInformationE8TransferI14SafeBinaryReadEEvRS0_RT_
exc:__ZNK32RendererMaterialAnimationBinding9BindValueER6ObjectRKN11UnityEngine9Animation14GenericBindingERNS3_10BoundCurveE
dff:_Transform_1_Invoke_m1731820209_gshared
oCj:__ZN6il2cpp2vm5Class11IsInterfaceEPK11Il2CppClass
qPa:__ZL18stbir__support_onef
khg:_Single_CompareTo_m189772128
$Nc:__Z26Transfer_UnityEngineObjectI9JSONWriteLb0EEvRK29SerializationCommandArgumentsR31RuntimeSerializationCommandInfo
C6e:_DefaultComparer_Compare_m4042058291_gshared
iGd:_Image_set_overrideSprite_m3213596394
YMa:__ZNSt3__26vectorIN4core12basic_stringIcNS1_20StringStorageDefaultIcEEEE13stl_allocatorIS5_L18MemLabelIdentifier1ELi16EEE6assignINS_11__wrap_iterIPS5_EEEENS_9enable_ifIXaasr21__is_forward_iteratorIT_EE5valuesr16is_constructibleIS5_NS_15iterator_traitsISF_E9referenceEEE5valueEvE4typeESF_SF_
lgd:__ZNSt3__27__sort5IRNS_6__lessIN2UI14DepthSortEntryES3_EEPS3_EEjT0_S7_S7_S7_S7_T_
dWg:_FileLoadException_ToString_m2989457882
_nj:_AudioListener_ClearExtensionProperties_m3849891634
$Yc:_UNITY_FT_DivFix
VKi:_Array_InternalArray__get_Item_TisDecimal_t2948259380_m3511003792_gshared
WK:__ZL45__ManagedRegistrationHelperFunction_AudioClipPv
Eeg:_SecurityElement_IsValidAttributeValue_m948345692
twc:__ZN14Texture2DArrayC2E10MemLabelId18ObjectCreationMode
Ba:invoke_vdd
vn:FUNCTION_TABLE_fiii
YIe:_TextWriter_Write_m2252948084
rzc:__Z19RegisterModule_Corev
fad:__ZZ29InitializeTextRenderingModulevEN27cleanupAfterLoadRegistrator7ForwardEv
wz:__ZN27AnimationLayerMixerPlayable24ProcessAnimationLayerMixEP33AnimationPlayableEvaluationOutputP35AnimationPlayableEvaluationConstantP32AnimationPlayableEvaluationInputS1_if
LLg:_CCFixed_FromDateTime_m3894190577
n7b:__Z29PluginsIssueRenderingExtEvent26UnityRenderingExtEventTypePv
Dgi:__Z116RuntimeInvoker_RuntimeObject_RuntimeObject_Int32_t2950945753_RuntimeObject_RuntimeObject_RuntimeObject_RuntimeObjectPFvvEPK10MethodInfoPvPS4_
Elf:_MessageFormatter_ReadMethodCall_m2327590823
Xvc:__Z14RandomRotationP9Texture2DPhiiii
ujh:_Array_InternalArray__ICollection_Add_TisUInt16_t2177724958_m3981262878_gshared
v8g:_Decimal_GetBits_m453754410
WBh:_HashSet_1_Contains_m3173358704_gshared
Xlj:_ToggleEvent__ctor_m834619998
x2f:_PKCS1_Encode_v15_m2077073129
Bnb:__ZN10Instancing11DrawAPIArgsC2ERK19ShaderPropertySheetPK8Vector4fS6_S6_i
kHf:_RectOffset_get_left_m1232181034
KZj:__ZNSt3__214__split_bufferIN6il2cpp8metadata18GenericArrayMethodERNS_9allocatorIS3_EEED2Ev
ij:_JS_WebRequest_SetResponseHandler
bAk:_glDeleteProgram__wrapper
CPa:__ZN6prcoreL18BlitFloatToIntegerERK14ImageReferenceRS0_
G7g:_DBNull_System_IConvertible_ToUInt32_m3784627971
v6f:_ClientSessionCache_Add_m964342678
m$:__ZN11UnityEngine15CloudWebService14RestDownloader17OnCompleteContentEv
JNj:__ZN15dense_hashtableINSt3__24pairIK10KeyWrapperINS1_IPK14Il2CppAssemblyP11Il2CppClassEEEjEES9_17ReflectionMapHashIS8_EN14dense_hash_mapIS9_jSD_NS9_14EqualsComparerINS0_8equal_toIS8_EEEENS0_9allocatorISB_EEE9SelectKeyESI_SK_E15insert_noresizeERKSB_
znb:__ZN10Instancing11DrawAPIArgsC2Ev
TKf:_Transform_get_localScale_m129152068
L8g:_DivideByZeroException__ctor_m3496959969
Na:invoke_viffi
zB:__ZN17AnimationPlayable28UpdateInternalStateRecursiveILi1ELb0EEEvPK35AnimationPlayableEvaluationConstant
F6j:__ZN6il2cpp2gcL10CleanupCCWEPvS1_
Qa:invoke_vifff
Pyk:_glGetVertexAttribiv__wrapper
s6h:_Predicate_1_Invoke_m851618236_gshared
FGb:__ZN20LocalFileSystemWebGL6DeleteER13FileEntryDatab
Oe:_emscripten_glDisableVertexAttribArray
feh:_Array_InternalArray__ICollection_Remove_TisSingle_t1397266774_m3361324455_gshared
Vm:FUNCTION_TABLE_iiiifiiii
gc:invoke_fifffi
lUh:_Collection_1_System_Collections_IList_Add_m2969482770_gshared
xph:_BitConverterLE_GetBytes_m4130646282
MPb:__ZN4gles23ClearCurrentFramebufferEP7ApiGLESbbbRK10ColorRGBAffi
Sz:__ZN7mecanim12statemachine20CreateStateWorkspaceEjjjRNS_6memory9AllocatorE
jai:_UnityEvent_1_Invoke_m3604335408_gshared
Ze:_emscripten_glDeleteObjectARB
ytd:_EventSystem_RaycastComparer_m3685368675
uSa:__Z14DecompressDXT3iiiPKjPj
wki:__Z131RuntimeInvoker_Void_t1185182177_RuntimeObject_RuntimeObject_Int64_t3736567304_ObjectU26_t2146539884_SerializationInfoU26_t419328957PFvvEPK10MethodInfoPvPS4_
lqh:_DSAManaged_CreateSignature_m2233977444
Uxg:_PKCS12_RemoveCertificate_m1421555398
WZf:_Slider_FindSelectableOnLeft_m1667068522
fia:__ZN6prcoreL17RemapGenericFloatI17TexFormatRGBAHalf18TexFormatARGBFloatEEvPKNS_9InnerInfoE
jKc:__Z14GetBuiltinSkini
lVd:_MethodDictionary_get_Item_m1201458851
KW:___cxx_global_var_init_13
ZW:___cxx_global_var_init_10
_W:___cxx_global_var_init_11
il:_JS_SystemInfo_GetBrowserVersionString
V9a:__ZN2UI13RectTransform23VirtualRedirectTransferER14SafeBinaryRead
Igc:__ZNSt3__26vectorIN9ShaderLab20SerializedSubProgramENS_9allocatorIS2_EEE6assignIPS2_EENS_9enable_ifIXaasr21__is_forward_iteratorIT_EE5valuesr16is_constructibleIS2_NS_15iterator_traitsIS9_E9referenceEEE5valueEvE4typeES9_S9_
mQc:__Z18Transfer_BlittableI8JSONReadLb0E8BitFieldEvRK29SerializationCommandArgumentsR31RuntimeSerializationCommandInfo
eeg:_SecurityPermission_set_Flags_m1503445204
QBh:_HashSet_1_CopyTo_m2849056227_gshared
wzb:__ZL17Transfer_GUIStyleI18StreamedBinaryReadILb1EELb0EEvRK29SerializationCommandArgumentsR31RuntimeSerializationCommandInfo
NHc:__ZN9Scripting11UnityEngine15ScrollViewState9InitProxyEv
toh:_ModulusRing_Multiply_m343333088
tte:__ZL76AnimatorTransitionInfo_t2534804151_CustomAttributesCacheGenerator_m_AnyStateP21CustomAttributesCache
Cec:__ZN9ShaderLab14SerializedPass8TransferI14SafeBinaryReadEEvRT_
GJc:__Z71Register_UnityEngine_GUILayoutUtility_INTERNAL_CALL_Internal_MoveWindowv
bU:__ZN12AudioManager16SetListenerPauseEb
o4a:__ZNSt3__26vectorIN30RuntimeInitializeOnLoadManager9ClassInfoE13stl_allocatorIS2_L18MemLabelIdentifier13ELi16EEE6assignINS_11__wrap_iterIPS2_EEEENS_9enable_ifIXaasr21__is_forward_iteratorIT_EE5valuesr16is_constructibleIS2_NS_15iterator_traitsISC_E9referenceEEE5valueEvE4typeESC_SC_
qUc:__ZL50__ManagedRegistrationHelperFunction_ContactPoint2DPv
da:invoke_viiiiiiiiiii
emk:___syscall_ret
V6i:_DeriveBytes_set_Salt_m1400945044
Hvd:_PointerEventData_set_worldNormal_m1888481930
Xcj:_AnchorInfo__ctor_m46784903
b5f:_CipherSuiteCollection_get_Item_m4188309062
z3i:_SslHandshakeHash_HashFinal_m2573455475
oTd:_SynchronizationAttribute_ReleaseLock_m1030353464
LUj:__ZNSt3__212basic_stringIcNS_11char_traitsIcEENS_9allocatorIcEEE6assignINS_11__wrap_iterIPKcEEEENS_9enable_ifIXaasr21__is_forward_iteratorIT_EE5valuesr38__libcpp_string_gets_noexcept_iteratorISC_EE5valueERS5_E4typeESC_SC_
Eid:__Z56Register_UnityEngine_Analytics_CustomEventData_AddDoublev
cYa:__ZN11ChannelInfo8TransferI19StreamedBinaryWriteILb0EEEEvRT_
Ubk:__ZN4utf88internal13validate_nextIPKcEENS0_9utf_errorERT_S5_Rj
QEe:__ZL53ToggleGroup_t123837990_CustomAttributesCacheGeneratorP21CustomAttributesCache
l4d:__ZL59_PropertyBuilder_t1366136710_CustomAttributesCacheGeneratorP21CustomAttributesCache
iQf:_InputField_CreateCursorVerts_m3585916868
nmc:__Z34Register_UnityEngine_Gradient_Initv
BSd:_Context_ToString_m1073616138
eZa:__ZN13ScreenManager23SetIsOrientationEnabledE18EnabledOrientationb
mNf:_InputField_EnforceTextHOverflow_m3400115777
uWc:__ZN9Scripting11UnityEngine12TreeInstance9InitProxyEv
X1a:__ZN9InputAxis8TransferI19StreamedBinaryWriteILb0EEEEvRT_
IRg:__Z33il2cpp_codegen_check_sub_overflowxx
fOf:_InputField_get_caretColor_m2973283772
GUf:_RectMask2D_get_Canvas_m9990042
mMi:_Resources_ConvertObjects_TisRuntimeObject_m1486780300_gshared
pah:_Double_System_IConvertible_ToInt16_m3591921965_AdjustorThunk
_3h:_Comparison_1_Invoke_m2925518770_gshared
zwa:__ZN10GameObject23VirtualRedirectTransferER18StreamedBinaryReadILb0EE
_ij:_SymmetricTransform__ctor_m2693628991
nIe:_ObjectDisposedException__ctor_m1034312941
pg:_glFrontFace
ITf:_MaskUtilities_IsDescendantOrSelf_m2247511982
Kxa:__ZN12BaseRenderer21SetGlobalLayeringDataE18GlobalLayeringDataj
M9c:__Z51Register_UnityEngine_TextGenerator_GetLinesInternalv
Eff:_Enumerator_get_Current_m2250080680_AdjustorThunk
Ofg:_SecurityElement__cctor_m3326869319
Ljj:_AesManaged_set_Key_m767972181
LQg:_Int16_System_IConvertible_ToBoolean_m1656400658_AdjustorThunk
BEg:_Byte_System_IConvertible_ToInt64_m285584218
wha:__ZN6prcoreL17RemapGenericFloatI17TexFormatRGBFloat18TexFormatRGBAFloatEEvPKNS_9InnerInfoE
Pih:_Array_InternalArray__ICollection_Add_TisDictionaryEntry_t3123975638_m665385049_gshared
Lhe:__ZL57BootConfigData_t3818279794_CustomAttributesCacheGeneratorP21CustomAttributesCache
sKe:_MissingMemberException__ctor_m2707802176
Gwc:__ZN28ReflectionProbeAnchorManager10InitializeEv
ewj:_Canvas_get_renderMode_m841659411
tjg:_String_Join_m2050845953
knf:_SerializationInfo_GetValue_m42271953
HS:__ZN9AudioClip11CreateSoundEv
XPa:__ZN29SerializeTraitsForStringTypesIN4core12basic_stringIcNS0_20StringStorageDefaultIcEEEEE8TransferI24GenerateTypeTreeTransferEEvRS4_RT_
fUj:__ZN14dense_hash_mapI10KeyWrapperINSt3__24pairIPK9FieldInfoP11Il2CppClassEEEj17ReflectionMapHashIS8_ENS9_14EqualsComparerINS1_8equal_toIS8_EEEENS1_9allocatorINS2_IKS9_jEEEEEC2EjRKSB_RKSF_
SCf:_PlayerConnection_GetConnectionNativeApi_m3116196780
EPj:__ZNK15dense_hashtableINSt3__24pairIK10KeyWrapperINS1_IPK10MethodInfoP11Il2CppClassEEEjEES9_17ReflectionMapHashIS8_EN14dense_hash_mapIS9_jSD_NS9_14EqualsComparerINS0_8equal_toIS8_EEEENS0_9allocatorISB_EEE9SelectKeyESI_SK_E13find_positionERSA_
und:__ZN11UnityEngine7Connect16PersistentValues13RestoreValuesER8JSONRead
Dad:__ZN9Scripting11UnityEngine8Tilemaps8TileData9InitProxyEv
yQg:_Guid_BaseToString_m3600006650
Eeb:__ZN20ArchiveStorageReader31TryToReadDirectoryFromBlockDataEyPKvj
z2j:__ZN6il2cpp2vmL11GetIdentityEP14Il2CppIUnknown
Dfk:_GC_push_gc_structures
k8f:_TlsServerCertificate_ProcessAsTls1_m819212276
ZJi:_Dictionary_2_Do_ICollectionCopyTo_TisRuntimeObject_m3942192587_gshared
tMj:__ZN6il2cpp6icalls8mscorlib6SystemL8IsPublicEPK9EventInfo
L0f:_PrimalityTests_RabinMillerTest_m2544317101
Q$f:_Kernel_DwordDivMod_m1540317819
FWi:_Enumerator_System_Collections_IEnumerator_get_Current_m1399273671_gshared
zId:_TypeBuilder_GetPropertyImpl_m3104345782
wYa:__ZNSt3__213__stable_sortIRNS_4lessI4PPtrI11SpriteAtlasEEENS_11__wrap_iterIPS4_EEEEvT0_SA_T_NS_15iterator_traitsISA_E15difference_typeEPNSD_10value_typeEi
OTg:_Int64_ToString_m2085073918_AdjustorThunk
_df:_Transform_1_Invoke_m4084479750_gshared
qJd:_FieldInfo_GetFieldOffset_m1356898082
Auf:_Camera_RaycastTry_m3913529496
Fdc:__ZN10BootConfig4Data14InitFromStringEPPKcjS2_
z3:__ZN8keywords6CreateEPKc
Syj:__ZL7log2_32j
vFf:_Quaternion_Inverse_Injected_m4070500351
S:Math_imul
ZXf:_ScrollRect_LateUpdate_m1215231183
Bqa:__ZN9Scripting11UnityEngine11ContextMenu9InitProxyEv
F8f:_TlsServerKeyExchange_Update_m453798279
UTa:__ZN11PlayerPrefs6GetIntERKN4core12basic_stringIcNS0_20StringStorageDefaultIcEEEEi
i5f:_CipherSuiteCollection_System_Collections_IList_IndexOf_m1361500977
P_f:_Text_set_fontStyle_m648756124
u9c:__Z45TextGenerator_CUSTOM_INTERNAL_get_rectExtentsP12Il2CppObjectP5RectTIfE
fK:__ZN9Scripting11UnityEngine18AssetBundleRequest12CleanupProxyEv
l5g:_DateTime__ctor_m2135476686_AdjustorThunk
$Qc:__ZN13GUIStyleState8TransferI8JSONReadEEvRT_
oU:__ZN11AudioSource12SetAudioClipEP9AudioClip
XHf:_RectTransform_GetLocalCorners_m823861473
BIg:_SynchronizedArrayListWrapper_GetEnumerator_m1579424644
OVf:_Scrollbar_get_value_m760470106
z5:__ZN18ScriptingArguments9AddObjectE18ScriptingObjectPtr
Ldd:__Z39CanvasGroup_Get_Custom_PropInteractableP12Il2CppObject
TX:__ZN11UnityEngine15CloudWebService16SessionContainerD2Ev
Xld:__ZL38InitializeUnityConnectScriptingClassesv
X7b:__ZN13ProbeRenderer8ConvolveEbijjb
Qij:_GUIUtility_set_systemCopyBuffer_m608712289
gQb:__ZN17GenericDynamicVBOC2ER9GfxDevice13GfxBufferModejj
DKc:__ZZN10GUIManager14InitGUIManagerEvEN41PreUpdateIMGUISendQueuedEventsRegistrator7ForwardEv
Bpg:_ServicePointManager_get_SecurityProtocol_m966397919
WLg:_CCGregorianCalendar_day_from_fixed_m1674702403
lZ:__ZN11UnityEngine15CloudWebService17SessionEventQueue10PurgeItemsEj
A8b:__ZN6Camera16StandaloneRenderENS_10RenderFlagEP6ShaderRKN4core12basic_stringIcNS3_20StringStorageDefaultIcEEEE
csg:_X509Chain_PrepareForNextCertificate_m3691934993
nwa:__ZN16LevelGameManager23VirtualRedirectTransferER24GenerateTypeTreeTransfer
Qyb:__Z18Transfer_BlittableI18StreamedBinaryReadILb1EELb1EtEvRK29SerializationCommandArgumentsR31RuntimeSerializationCommandInfo
eve:__ZL58EventType_t3528516131_CustomAttributesCacheGenerator_keyUpP21CustomAttributesCache
s6d:__ZL57X509Certificate_t713131622_CustomAttributesCacheGeneratorP21CustomAttributesCache
bYa:__ZN12BoneWeights48TransferI19StreamedBinaryWriteILb0EEEEvRT_
vib:__ZN9GfxDevice20DeallocRenderSurfaceEP17RenderSurfaceBase
zmb:__ZN20GpuProgramParameters36UpdatePrepareValuesMaximumBufferSizeEv
kmh:_SimpleCollator_GetContraction_m2205549079
hMf:_Vector3__ctor_m1719387948_AdjustorThunk
t1f:_ARC4Managed_GenerateKey_m1607343060
ckh:_Array_InternalArray__ICollection_CopyTo_TisDecimal_t2948259380_m2749946216_gshared
X3a:__ZN30RuntimeInitializeOnLoadManager23VirtualRedirectTransferER14SafeBinaryRead
MXc:__ZN20TextRenderingPrivate8FontImpl13CharacterInfo8TransferI18StreamedBinaryReadILb0EEEEvRT_
$vb:__Z29Transfer_Blittable_ArrayFieldI24GenerateTypeTreeTransferfEvRT_R9ArrayInfoRK23StaticTransferFieldInfo
Vxf:_UnityEvent_FindMethod_Impl_m2312362624
bac:__ZN19CustomRenderTexture9AddParentE4PPtrIS_E
Qqb:__ZN8Gradient8TransferI14SafeBinaryReadEEvRT_
Etf:_Vector3_GetHashCode_m2879461828
Zbj:_Parser_ParseSpecial_m1961501104
chg:_Single_System_IConvertible_ToUInt64_m3299129161_AdjustorThunk
XMa:__ZNSt3__26vectorIN4core12basic_stringIcNS1_20StringStorageDefaultIcEEEE13stl_allocatorIS5_L18MemLabelIdentifier1ELi16EEE7reserveEj
aZc:__ZN20TextRenderingPrivate15DynamicFontData36GetFaceForCharacterIfAvailableInFontERKNS_7FontRefERK13dynamic_arrayI4PPtrIN13TextRendering4FontEELj0EEj
gpg:_IPv6Address_AsIPv4Int_m844941024
aPe:_Random__ctor_m3209279193
e9f:_RecordProtocol__cctor_m1280873827
hBf:_Matrix4x4_MultiplyPoint_m1575665487_AdjustorThunk
HPd:_Marshal__cctor_m4007734770
xek:_GC_new_free_list_inner
esh:_SymmetricTransform_Random_m2004892672
cek:_GC_err_printf
$qd:__ZN9Scripting11UnityEngine2XR13InputTracking12CleanupProxyEv
d3f:_RSAManaged_DecryptValue_m1804388365
vXe:_InternalEnumerator_1_System_Collections_IEnumerator_get_Current_m2980550840_AdjustorThunk
qH:__ZN25RuntimeAnimatorController8TransferI14SafeBinaryReadEEvRT_
aRc:__ZN8JSONRead8TransferI10RectOffsetEEvRT_PKc17TransferMetaFlagsb
WY:__ZN9JSONWrite8TransferIN11UnityEngine15CloudWebService14DataErrorEvent15FileErrorDetailEEEvRT_PKc17TransferMetaFlags
ESg:_Int32_Parse_m2087562008
oMd:_MonoProperty_GetAccessors_m412928203
Mbi:_TweenRunner_1_Start_m3757154622_gshared
LN:__ZN12SoundManager20RegisterModifiedClipEP10SampleClip
ojf:_RemotingServices_GetClientChannelSinkChain_m1499550585
yPe:_Assembly_FillName_m1660001542
$3d:__ZL56_EventBuilder_t2558055199_CustomAttributesCacheGeneratorP21CustomAttributesCache
pcg:_SHA384Managed_processBlock_m1272529332
yQ:__ZN11AudioSource4PlayEd
jGg:_Char_ToString_m278452217_AdjustorThunk
WEj:__ZN15dense_hashtableI10KeyWrapperIPK17Il2CppGenericInstES4_N6il2cpp8metadata21Il2CppGenericInstHashEN14dense_hash_setIS4_S7_NS4_14EqualsComparerINS6_24Il2CppGenericInstCompareEEENSt3__29allocatorIS4_EEE8IdentityESB_SE_E13set_empty_keyERKS4_
dei:__Z63RuntimeInvoker_Char_t3634460470_Int16_t2552820387_RuntimeObjectPFvvEPK10MethodInfoPvPS4_
d2g:_Convert_ToDouble_m2924063577
rba:__Z17GetCoreModuleSpecv
VEh:_Enumerator_System_Collections_IEnumerator_get_Current_m3594024719_gshared
YQa:__ZN7Cubemap23VirtualRedirectTransferER18StreamedBinaryReadILb0EE
Wqc:__ZNSt3__27__sort4IRNS_6__lessI11KeyframeTplIfES3_EEPS3_EEjT0_S7_S7_S7_T_
x6c:_Read_CVT
nQ:__ZN11AudioSource23VirtualRedirectTransferER19StreamedBinaryWriteILb0EE
Reb:__ZN12FileAccessor4SeekEx10FileOrigin
bt:__ZN9Scripting11UnityEngine25RuntimeAnimatorController12CleanupProxyEv
Oub:__ZL26Transfer_SimpleNativeClassI24GenerateTypeTreeTransfer17AnimationCurveTplIfELb0EEvRK29SerializationCommandArgumentsR31RuntimeSerializationCommandInfo
u1g:_Convert_ToDecimal_m1783778724
Lcf:_ShimEnumerator_get_Value_m153531060_gshared
pMg:_DateTimeFormatInfo__ctor_m3106345035
_5f:_TlsServerKeyExchange_verifySignature_m3412856769
lxh:_EqualityComparer_1_System_Collections_IEqualityComparer_GetHashCode_m4137147946_gshared
R$i:_Collection_1_System_Collections_ICollection_CopyTo_m5285659_gshared
Wca:__ZN16LightmapSettings20DidChangeActiveSceneEP10UnitySceneS1_
WHe:__ZL59g_AssemblyU2DCSharp_Assembly_CustomAttributesCacheGeneratorP21CustomAttributesCache
HMj:__ZN6il2cpp5utils9PathUtils8BasenameIcEENSt3__212basic_stringIT_NS3_11char_traitsIS5_EENS3_9allocatorIS5_EEEERKSA_
LP:__ZN10AudioMixer11SetupGroupsEv
Gt:__ZN9Scripting11UnityEngine10Animations21AnimationClipPlayable9InitProxyEv
GIc:__Z35Register_UnityEngine_Event_get_typev
yna:__ZN9Scripting11UnityEngine9Rendering18GraphicsDeviceType12CleanupProxyEv
h0j:__ZN6il2cpp2vm9Exception23GetInvalidCastExceptionERKNS_5utils10StringViewIDsEE
duk:_emscripten_glDepthRange__wrapper
wB:__ZN8Animator28BuildControllerPlayableCacheEv
z6:__Z63ThreadAndSerializationSafeCheckGetMonoBehaviourBeingTransferredv
Doa:__ZN9Scripting11UnityEngine12LightmapData9InitProxyEv
jOi:_List_1_set_Item_m4224739467_gshared
IRe:_ConstructorBuilder_get_Name_m2426555260
Arc:__Z37Register_UnityEngine_Input_GetAxisRawv
kmd:__ZN11UnityEngine7Connect13ConfigHandler13ConfigChangedERKN4core12basic_stringIcNS2_20StringStorageDefaultIcEEEEbbi
_bj:_Parser_ParseCharacterClass_m4285351396
x3g:_Convert_ToSByte_m2653418303
LZg:_SyncHashtable__ctor_m2449935938
lQ:__ZN11AudioSource5ResetEv
Bbg:_RSAPKCS1SignatureFormatter_SetKey_m2935054088
lZb:__ZN12ImageFilters27SetSurfaceUseResolvedBufferEP13RenderTextureb
Qnb:__ZN14SafeBinaryRead21TransferSTLStyleArrayI10vector_setI4PPtrI10MonoScriptENSt3__24lessIS4_EE13stl_allocatorIS4_L18MemLabelIdentifier79ELi16EEEEEvRT_17TransferMetaFlags
COa:__ZN14Texture2DArray23VirtualRedirectTransferER18StreamedBinaryReadILb0EE
CKh:_UTF7Encoding_GetByteCount_m209415911
M9a:__ZN2UI13RectTransform13AwakeFromLoadE17AwakeFromLoadMode
Gej:_RegularExpression_Compile_m2385682508
H2b:__ZN14qsort_internal30FindAndMovePivotToLastPositionIP20ShadowCasterSortDatai26ShadowCasterSortDataSorterEEvT_S4_T0_T1_
job:__Z18Transfer_BlittableI14SafeBinaryReadLb1EiEvRK29SerializationCommandArgumentsR31RuntimeSerializationCommandInfo
isg:_X509ExtensionEnumerator_get_Current_m256207749
iPf:_InputField_MoveTextStart_m1087475594
dLg:_EventArgs__cctor_m1889823314
pCg:_Array_Sort_m182264525
ARf:_LayoutGroup_set_padding_m282562135
qQe:_Default_IsArrayAssignable_m953489228
hRh:_UInt16_ToString_m355311020_AdjustorThunk
asf:_RC2__ctor_m1146135664
Fk:_glGetStringi
Mkg:_DecoderExceptionFallback_CreateFallbackBuffer_m1133375601
O4j:__ZNK15dense_hashtableI10KeyWrapperIP18Il2CppGenericClassES3_N6il2cpp8metadata22Il2CppGenericClassHashEN14dense_hash_setIS3_S6_NS3_14EqualsComparerINS5_25Il2CppGenericClassCompareEEENSt3__29allocatorIS3_EEE8IdentityESA_SD_E10test_emptyERK30dense_hashtable_const_iteratorIS3_S3_S6_SF_SA_SD_E
O9e:_Enumerator_get_CurrentKey_m889650866_gshared
sD:__ZN8Animator9WriteStepEy
rza:__ZN9Coroutine16SetCurrentMethodE18ScriptingMethodPtr
f9e:_Enumerator_VerifyCurrent_m829026141_gshared
bAc:__ZN16PropertyAccessorC2Ev
IZi:_Collection_1_ConvertItem_m1743542180_gshared
B9c:__Z38Register_UnityEngine_Font_HasCharacterv
W6b:__Z35IntersectSpherePlaneBoundsOptimizedRKN4math7_float4EPS1_i
Iag:_RNGCryptoServiceProvider__cctor_m3587754670
Vaa:__ZN17TransformInternal21DetachTransformThreadER18TransformHierarchyjj
l7j:__ZN6il2cpp2os5posix15PosixWaitObject13InterruptWaitEv
Bca:__Z22CleanupLODGroupManagerPv
CIc:__Z21Event_CUSTOM_PopEventP12Il2CppObject
ol:_glUniform3fv
ukk:__ZNK6il2cpp8metadata24Il2CppGenericInstCompareclERK10KeyWrapperIPK17Il2CppGenericInstES8_
Dsg:_X509ChainElement_Set_m655180762
mzj:_CustomEventData_AddInt32_m548429697
j1b:__ZNK16LightmapSettings31GetRealtimeLightmapDecodeValuesEv
uP:__ZN5audio5mixer12SetSuspendedERNS0_16AudioMixerMemoryEb
W8a:__ZN17PersistentManager21UnloadNonDirtyStreamsEv
gli:__Z96RuntimeInvoker_Int32_t2950945753_RuntimeObject_Int32_t2950945753_RuntimeObject_Int32_t2950945753PFvvEPK10MethodInfoPvPS4_
ykj:_AnalyticsEventTracker_OnEnable_m1121905268
ffj:_Uri_get_Parser_m3737125102
nwj:_Canvas_get_overrideSorting_m2740418462
fwf:_Debug_LogFormat_m309087137
yEg:_Byte_System_IConvertible_ToInt16_m4136764794_AdjustorThunk
SZa:__ZN12ImageFilters4BlitER17ShaderPassContextP7TextureP13RenderTextureiPK18SharedMaterialDataPKcP6ShaderiNS_9BlitFlagsE11CubemapFaceRK8Vector2fSH_
Rig:_String_LastIndexOf_m3451222878
X9i:_Mark_get_Index_m3048692661
aFe:__ZL69CanvasScaler_t2767979955_CustomAttributesCacheGenerator_m_ScaleFactorP21CustomAttributesCache
vZ:__ZN11UnityEngine15CloudWebService10RestClientINS0_23WebRequestRestHeaderMapEED2Ev
Ll:_emscripten_glDepthMask
rkf:_RemotingServices_CreateClientProxy_m3886727610
iSa:__ZN4crnd25static_huffman_data_model22prepare_decoder_tablesEv
j9f:_RecordProtocol_GetMessage_m2086135164
$ca:__Znaj
BAk:_emscripten_glEnableClientState__wrapper
fpd:__ZN20UnityWebRequestProtoI24UnityWebRequestTransport16AtomicRefCounter14RedirectHelper14ResponseHelper15DownloadHandler13UploadHandler18CertificateHandler12HeaderHelper14AsyncOperationE26Job_ExecuteUnityWebRequestEPS9_
D2:__ZN17MessageIdentifierC2EPKcNS_7OptionsEPKN5Unity4TypeES1_
YBf:_Mesh_SetTriangles_m1523451247
Tgg:_Single_System_IConvertible_ToSByte_m1208276900
RGi:_Array_InternalArray__set_Item_TisVector4_t3319028937_m757305038_gshared
rtc:__ZNSt3__26__treeIPc15compare_tstringIPKcENS_9allocatorIS1_EEE25__emplace_unique_key_argsIS1_JS1_EEENS_4pairINS_15__tree_iteratorIS1_PNS_11__tree_nodeIS1_PvEEiEEbEERKT_DpOT0_
zji:__Z105RuntimeInvoker_Void_t1185182177_RuntimeObject_RuntimeObject_RuntimeObject_RuntimeObject_Int32_t2950945753PFvvEPK10MethodInfoPvPS4_
lgf:_ValueCollection_System_Collections_Generic_ICollectionU3CTValueU3E_Add_m3298059628_gshared
Bei:__Z64RuntimeInvoker_RuntimeObject_Int16_t2552820387_Int16_t2552820387PFvvEPK10MethodInfoPvPS4_
RU:__Z55Register_UnityEngine_AudioSource_get_spatializeInternalv
iK:__ZN14SafeBinaryRead8TransferI14ConstantStringEEvRT_PKc17TransferMetaFlags
oXb:__ZNK6Camera16GetStereoEnabledEv
ioi:__Z72RuntimeInvoker_Int32_t2950945753_TimeSpan_t881159249_TimeSpan_t881159249PFvvEPK10MethodInfoPvPS4_
K9f:_SendRecordAsyncResult_SetComplete_m153213906
JVa:__ZN16LightmapSettings23VirtualRedirectTransferER19StreamedBinaryWriteILb0EE
wwc:__ZN12LightManager15InitializeClassEv
qNh:_WaitHandle__cctor_m4242752477
ILa:__ZN9ShaderLab11shaderprops16GetComputeBufferEPK19ShaderPropertySheetS3_NS_16FastPropertyNameE
uck:__ZN6il2cpp6icalls8mscorlib6System10Reflection10MethodBase31GetMethodFromHandleInternalTypeEii
u8:__ZN23ManagedAttributeManager35CallManagedGetDefaultExecutionOrderE17ScriptingClassPtr
N5:__ZN18ScriptingArgumentsC2Ev
_tf:_Vector3_op_Equality_m4231250055
Yvk:_emscripten_glBlendFuncSeparate__wrapper
dWa:__ZN15SerializeTraitsI13dynamic_arrayI7Hash128Lj0EEE19ResizeSTLStyleArrayERS2_i
IVg:_FileSystemInfo__ctor_m3769019897
DLi:_Array_InternalArray__get_Item_TisContentType_t1787303396_m421427711_gshared
NYb:__ZNK25CameraStackRenderingState27GetStereoImageEffectTextureEb
urf:_HMACSHA384__ctor_m1677515580
v3i:_RIPEMD160Managed_J_m1336489154
lHc:__ZL52__ManagedRegistrationHelperFunction_PlayableDirectorPv
yJj:__ZN6il2cpp6icalls6System6System3Net7Sockets6Socket7ReceiveEiP11Il2CppArrayiiNS4_11SocketFlagsEPi
to:FUNCTION_TABLE_ii
Nva:__ZN10TagManager8TransferI18StreamedBinaryReadILb0EEEEvRT_
BNc:__Z18Transfer_BlittableI9JSONWriteLb0E8BitFieldEvRK29SerializationCommandArgumentsR31RuntimeSerializationCommandInfo
OXg:_MemoryStream_set_Capacity_m1773624579
SYj:__ZNK15dense_hashtableINSt3__24pairIK10KeyWrapperINS1_IP11Il2CppClassjEEES4_EES6_N6il2cpp8metadata14ArrayClassHashEN14dense_hash_mapIS6_S4_SB_NS6_14EqualsComparerINSA_17ArrayClassCompareEEENS0_9allocatorIS8_EEE9SelectKeyESF_SH_E10test_emptyEj
wfc:__ZNSt3__26vectorIN9ShaderLab20SerializedSubProgram15StructParameterENS_9allocatorIS3_EEE8__appendEj
rb:invoke_diiii
Huk:b47
ks:__ZL57__ManagedRegistrationHelperFunction_AnimationClipPlayablePv
nqi:__Z95RuntimeInvoker_Void_t1185182177_RuntimeObject_RuntimeObject_SByte_t1669577662_SByte_t1669577662PFvvEPK10MethodInfoPvPS4_
Ecc:__Z24CreateDirectoryRecursiveRKN4core12basic_stringIcNS_20StringStorageDefaultIcEEEE
vuk:b41
Khc:__ZN9ShaderLab20SerializedSubProgram8TransferI18StreamedBinaryReadILb0EEEEvRT_
suk:b40
pQ:__ZN11AudioSource23VirtualRedirectTransferER17RemapPPtrTransfer
nhe:__ZL54ContextMenu_t1295656858_CustomAttributesCacheGeneratorP21CustomAttributesCache
f4:__ZN13RuntimeStaticI21ScalableBufferManagerLb0EE13StaticDestroyEPv
fcd:__ZN2UI13CanvasManager9AddCanvasEPNS_6CanvasE
IZa:__ZN9Texture3D8TransferI19StreamedBinaryWriteILb0EEEEvRT_
VZb:__ZNK6Camera22CalculateRenderingPathEv
wuk:b42
WOc:__ZN9JSONWrite8TransferI5RectTIfEEEvRT_PKc17TransferMetaFlags
eF:__ZN11UnityEngine9Animation37SetGenericRootTransformPropertyValuesERKNS0_30AnimatorGenericBindingConstantERKN7mecanim10ValueArrayER9Transformbb
LRb:__Z13ConvertMipmap14GraphicsFormatPKvS_Pviiii
hWa:__ZN28EnlightenRendererInformation8TransferI14SafeBinaryReadEEvRT_
RJ:__ZN9Scripting11UnityEngine2XR5Tango24MeshReconstructionServer9InitProxyEv
utb:__ZL12InvokeMethodI17RemapPPtrTransferEvRK29SerializationCommandArgumentsR31RuntimeSerializationCommandInfo
eog:_RemoteCertificateValidationCallback_Invoke_m3086073466
hkg:_StringComparer_Compare_m991165676
j4c:_tt_sbit_decoder_load_image
$Ja:__Z14IsHalfRTFormat19RenderTextureFormat
AQg:_Guid_ToString_m3279186591
ybi:_U3CStartU3Ec__Iterator0_Dispose_m261027331_gshared
NKc:__ZNSt3__24listIN10GUIManager12SortedScriptE11memory_poolIS2_EE6__sortI13OldSortScriptEENS_15__list_iteratorIS2_PvEESA_SA_jRT_
C0i:_Collection_1_System_Collections_IList_Add_m3364892189_gshared
FOi:_List_1_AddEnumerable_m3500350831_gshared
K2f:_PrivateKeyInfo_get_PrivateKey_m3647771102
X_j:__ZN6il2cpp6icalls8mscorlib6System9ThreadingL11ThreadStartEPv
qfa:__ZN15DirectorManager12OnSampleTimeEv
eId:_TypeBuilder_check_not_created_m3652863637
$wd:_StandaloneInputModule_UpdateModule_m450861257
s2h:_ReadOnlyCollection_1_System_Collections_IList_Insert_m2928873627_gshared
Pyh:_EqualityComparer_1__cctor_m314889309_gshared
bta:__ZN12CachedReader10Align4ReadEv
H7i:_X501__cctor_m2428304915
mwj:_Canvas_get_renderOrder_m1489855841
_ei:__Z50RuntimeInvoker_Void_t1185182177_Single_t1397266774PFvvEPK10MethodInfoPvPS4_
hxg:_X501_ToString_m4186311521
vgj:_Event_ToString_m1688862299
Mta:__ZNK9Behaviour22GetTypeVirtualInternalEv
kwf:_Debug_LogErrorFormat_m575266265
VLg:_CCGregorianCalendar_month_from_fixed_m4268992710
Mgh:_Array_compare_TisUICharInfo_t75501106_m1310495481_gshared
Q7b:__Z21GetScriptingArraySize17ScriptingArrayPtr
iXc:__ZN20TextRenderingPrivate8FontImpl8TransferI14SafeBinaryReadEEvRT_
ula:__ZL51__ManagedRegistrationHelperFunction_HideInInspectorPv
ste:__ZL82AnimatorTransitionInfo_t2534804151_CustomAttributesCacheGenerator_m_NormalizedTimeP21CustomAttributesCache
F0h:_ReadOnlyCollection_1_System_Collections_IList_Clear_m4022532825_gshared
Ijg:_Encoding_get_ASCII_m3595602635
fjb:__ZN9GfxDevice17ImmediateTexCoordEifff
CSe:_DerivedType_GetCustomAttributes_m3536779709
k9d:__ZL93Interlocked_t2273387594_CustomAttributesCacheGenerator_Interlocked_CompareExchange_m388540288P21CustomAttributesCache
mId:_MethodBase_get_IsAbstract_m428833029
Nr:__ZN13ConstraintJob23ConstraintComponentDataC2ERK18PositionConstraint
Vtk:_emscripten_glUniform4f__wrapper
kFh:_Enumerator_MoveNext_m2595190390_AdjustorThunk
iih:_Array_InternalArray__IndexOf_TisColor32_t2600501292_m3783551884_gshared
Y$b:__ZNK6Camera16GetProjectionFarEv
gr:__Z24InverseTransformRotationRK23TransformAccessReadOnlyRKN4math7_float4E
VTc:__ZN11UnityEngine9Analytics16StartupTimeEvent23SetSplashScreenTimeInfoEyyy
H8i:_X509Chain_Build_m2469702749
sQ:__ZN11AudioSource6UpdateEv
wod:__Z31GetPerformanceReportingSettingsv
eOa:__ZNK14PlayableOutput11DerivesFromE17ScriptingClassPtr
jQa:__ZN7Texture34CreateFileTextureUploadInstructionE18TextureUploadFlagsj
hTd:__ZN25GenericVirtActionInvoker06InvokeEPK10MethodInfoP12Il2CppObject
AWd:__ZL64SerializableAttribute_t1992588303_CustomAttributesCacheGeneratorP21CustomAttributesCache
yfb:__ZN25SingleBlockMemoryFileDataC2E10MemLabelIdPvjb
gG:__ZN8Animator8TransferI14SafeBinaryReadEEvRT_
saa:__Z23AsyncReadForceCloseFileRKN4core12basic_stringIcNS_20StringStorageDefaultIcEEEE
gW:__ZN16BaseVideoTexture19UpdateVideoTexturesEv
nLd:_MonoField_GetValue_m3124733531
v7a:__ZNK16LightmapSettings23HasLightProbeTetrahedraEv
NWa:__ZN6Sprite23VirtualRedirectTransferER19StreamedBinaryWriteILb0EE
Rlc:__ZN2UI13RectTransform12SetAnchorMaxERK8Vector2f
cZj:__ZN14dense_hash_mapI10KeyWrapperIP11Il2CppClassES2_N6il2cpp8metadata16SZArrayClassHashENS3_14EqualsComparerINS5_19SZArrayClassCompareEEENSt3__29allocatorINSA_4pairIKS3_S2_EEEEE13set_empty_keyERSD_
Otd:_EventTrigger_Execute_m2453060771
H3h:_Comparison_1_Invoke_m517083441_gshared
GOj:__ZNK15dense_hashtableINSt3__24pairIK10KeyWrapperINS1_IPK9FieldInfoP11Il2CppClassEEEjEES9_17ReflectionMapHashIS8_EN14dense_hash_mapIS9_jSD_NS9_14EqualsComparerINS0_8equal_toIS8_EEEENS0_9allocatorISB_EEE9SelectKeyESI_SK_E5beginEv
E9j:__ZN6il2cpp2os6Thread15CurrentThreadIdEv
fE:__ZN15SerializeTraitsIN4math4trsXEE8TransferI8BlobSizeEEvRS1_RT_
sPb:__ZN14DataBufferGLES11CopySubDataEPKS_jjj
ee:_emscripten_glVertexPointer
UMj:__ZN6il2cpp2vm7Runtime47RaiseExecutionEngineExceptionIfMethodIsNotFoundEPK10MethodInfo
Daj:_PatternCompiler_GetMachineFactory_m3758869886
m3b:__Z17GetFrustumPortionPK8Vector3fffPS_
W1j:__ZN15dense_hashtableINSt3__24pairIK10KeyWrapperIP14Il2CppIUnknownEjEES5_N6il2cpp5utils11PointerHashIS3_EEN14dense_hash_mapIS5_jSB_NS5_14EqualsComparerINS0_8equal_toIS4_EEEENS0_9allocatorIS7_EEE9SelectKeyESG_SI_E14squash_deletedEv
dud:_EventTrigger_OnCancel_m585099428
Lhj:_GUILayoutEntry_ApplyOptions_m1741659338
_nf:_RuntimeTypeHandle_Equals_m2857439487_AdjustorThunk
Chb:__ZNK9GfxDevice27GetPlatformAdjustedViewportEv
gXf:_ScrollRect_get_rectTransform_m2442061719
zZh:_ReadOnlyCollection_1_System_Collections_Generic_IListU3CTU3E_set_Item_m88350439_gshared
c9:__ZNSt3__26vectorINS_4pairIiiEE13stl_allocatorIS2_L18MemLabelIdentifier38ELi16EEE6insertENS_11__wrap_iterIPKS2_EEOS2_
bfa:__ZNSt3__26__treeINS_12__value_typeIPvsEENS_19__map_value_compareIS2_S3_NS_4lessIS2_EELb1EEE13stl_allocatorIS3_L18MemLabelIdentifier86ELi16EEE25__emplace_unique_key_argsIS2_JNS_4pairIS2_sEEEEENSD_INS_15__tree_iteratorIS3_PNS_11__tree_nodeIS3_S2_EEiEEbEERKT_DpOT0_
vlj:_StandardEventPayload_IsRequiredDataValid_m361738930
ldj:_Reference_Compile_m4195878675
Juj:_InputBuffer_remove_onCommandSent_m3139499669
Y$h:_ReadOnlyCollection_1_System_Collections_ICollection_CopyTo_m2672196987_gshared
eAc:__ZN16StreamedResource8TransferI24GenerateTypeTreeTransferEEvRT_
wHf:_RectTransform_get_anchorMin_m2928307238
uGg:_ArrayList__ctor_m3828927650
iDa:__ZN10Matrix3x3f15InvertTransposeEv
Xhj:_GUILayoutGroup_SetHorizontal_m996475327
Ohj:_GUILayoutEntry__cctor_m663865902
JWb:__Z11IsBatchmodev
PDh:_Enumerator_System_Collections_IEnumerator_get_Current_m713684915_gshared
Wrb:__Z29Transfer_Blittable_ArrayFieldI14SafeBinaryRead8Vector3fEvRT_R9ArrayInfoRK23StaticTransferFieldInfo
ZXc:__ZN20TextRenderingPrivate8FontImpl18ResetCachedTextureEv
wLj:__ZN6il2cpp6icalls8mscorlib6SystemL16GetFieldFromTypeINS_5utils10functional6FilterINSt3__212basic_stringIcNS7_11char_traitsIcEENS7_9allocatorIcEEEENS4_13VmStringUtils21CaseSensitiveComparerEEEEEP21Il2CppReflectionFieldP11Il2CppClassSK_iRKT_
Bqg:_X509KeyUsageExtension_Decode_m3150759625
ffk:_GC_print_finalization_stats
Cij:_GUITargetAttribute_GetGUITargetAttrValue_m2954410352
umc:__Z53Register_UnityEngine_Behaviour_get_isActiveAndEnabledv
xCg:_SimpleEnumerator_get_Current_m72361444
Iq:__ZNSt3__26vectorIN4core12basic_stringIcNS1_20StringStorageDefaultIcEEEENS_9allocatorIS5_EEE8__appendEj
rW:__ZN13ProduceHelperI10SampleClipLb0EE7ProduceE10MemLabelId18ObjectCreationMode
H2a:__ZN26PlayerSettingsSplashScreen8TransferI17RemapPPtrTransferEEvRT_
pph:_ASN1_set_Value_m2803403806
DLj:__ZN6il2cpp6icalls8mscorlib6SystemL17CollectTypeFieldsINS_5utils10functional10TrueFilterEEEvP11Il2CppClassPKS7_iRNSt3__26vectorIP9FieldInfoNSB_9allocatorISE_EEEERKT_
pnc:__Z13GetTagManagerv
$zg:_Hashtable__ctor_m1815022027
$Kh:_UTF8Encoding_GetChars_m1433288684
dF:__ZN11UnityEngine9Animation37HasGenericRootTransformPropertyValuesERKNS0_30AnimatorGenericBindingConstantEb
RX:__ZN11UnityEngine15CloudWebService17CloudJobSchedulerD0Ev
EWe:_ArrayReadOnlyList_1_Contains_m381552673_gshared
pTc:__ZN11UnityEngine9Analytics26PerformanceReportingConfig13ConfigChangedERKN4core12basic_stringIcNS2_20StringStorageDefaultIcEEEER8JSONRead
Wei:__Z96RuntimeInvoker_Boolean_t97287965_RuntimeObject_RuntimeObject_Int32_t2950945753_Int32_t2950945753PFvvEPK10MethodInfoPvPS4_
nhh:_Array_IndexOf_TisUICharInfo_t75501106_m3198896198_gshared
ibd:__ZNK2UI11CanvasGroup22GetTypeVirtualInternalEv
A7f:_Context_get_Current_m2853615040
YKc:__Z21CleanupGlobalGUIStatev
RPh:_Type_IsContextfulImpl_m3693603908
HEh:_Enumerator_VerifyState_m2873941769_gshared
rBb:__Z18Transfer_BlittableI18StreamedBinaryReadILb0EELb1EN4math12int3_storageEEvRK29SerializationCommandArgumentsR31RuntimeSerializationCommandInfo
$Tb:__ZN22VertexDeclarationCache5ClearEv
Fpf:_CspParameters__ctor_m3852972821
Uac:__ZN17PersistentManager12SetPathRemapERKN4core12basic_stringIcNS0_20StringStorageDefaultIcEEEES6_
Ny:__Z27ProcessRootMotionEmptyMixerP35AnimationPlayableEvaluationConstantP32AnimationPlayableEvaluationInputP33AnimationPlayableEvaluationOutput
T4b:__ZN6Camera24PrepareCullingParametersERK23CameraCullingParameters13RenderingPathR11CullResults
c5b:__Z20CullReflectionProbesR8JobFenceRK22SceneCullingParametersRK23ReflectionProbesContextPKjjPjS9_
j6a:__ZN19RuntimeSceneManager22EndIntegrateMainThreadEP10UnitySceneNS_11LoadingModeE
BIi:_Array_Sort_TisUICharInfo_t75501106_m3474449559_gshared
Vwg:_Buffer_BlockCopy_m2884209081
Abj:_QuickSearch_GetShiftDistance_m2542665852
bLi:_Array_InternalArray__get_Item_TisCustomAttributeTypedArgument_t2723150157_m2639399822_gshared
Dnh:_BigInteger_GenerateRandom_m3141592944
Svb:__Z29Transfer_Blittable_ArrayFieldI24GenerateTypeTreeTransfer4AABBEvRT_R9ArrayInfoRK23StaticTransferFieldInfo
KHc:__ZN9Scripting11UnityEngine12StylePainter12CleanupProxyEv
twg:_Interval_Contains_m1454846757
mEd:_Graphic_CacheCanvas_m1120385152
oI:__ZN26AnimatorOverrideController15InitializeClassEv
OHc:__ZN9Scripting11UnityEngine15ScrollViewState12CleanupProxyEv
vOf:_InputField_set_contentType_m1277230266
amk:_emscripten_GetProcAddress
Ca:invoke_fiiifii
vnk:_modff
gIa:__ZN20SphericalHarmonicsL219AddDirectionalLightERKN4math7_float3ERKNS0_7_float4E
hfa:__Z26ScheduleJobForEachInternalR8JobFencePFvPvjES1_iPFvS1_E11JobPriority
fWb:__ZZ23InitPlayerLoopCallbacksvEN41PostLateUpdateProfilerEndFrameRegistrator7ForwardEv
Vjc:__ZN9Scripting18RaiseMonoExceptionEPKcz
azc:__ZN10GameObject17WillHandleMessageERK17MessageIdentifier
Meg:_StrongNamePublicKeyBlob_Equals_m3655422942
Jfg:_SecurityContext__ctor_m1730177197
rxj:_RectTransformUtility_GetTransposed_m3952754222
fxc:__ZN9ShaderLab16FastPropertyName15InitBy28BitHashEj
FNi:_List_1_System_Collections_IList_set_Item_m4182383657_gshared
cii:__Z96RuntimeInvoker_Void_t1185182177_Int32_t2950945753_Single_t1397266774_RuntimeObject_RuntimeObjectPFvvEPK10MethodInfoPvPS4_
P8e:_Enumerator_System_Collections_IDictionaryEnumerator_get_Key_m195047678_AdjustorThunk
lwj:_Canvas_get_pixelPerfect_m333060872
G$a:__ZN17PackedFloatVector12UnpackFloatsEPfiiii
WB:__ZN17AnimationPlayable28UpdateInternalStateRecursiveILi3ELb0EEEvPK35AnimationPlayableEvaluationConstant
$Mb:__ZN13GfxDeviceGLES21DestroyComputeProgramER12ObjectHandleI18ComputeProgram_TagPvE
Feh:_Enumerable_Any_TisRuntimeObject_m3853239423_gshared
Zaj:_PatternCompiler_EmitIfDefined_m2075050865
k8g:_Decimal_System_IConvertible_ToInt64_m1446427516_AdjustorThunk
Fca:__ZN17UniqueIDGenerator16DestroyPureIndexEj
CMe:_NotImplementedException__ctor_m3095902440
I8:__ZL21AppendNestedClassName17ScriptingClassPtrRN4core17string_with_labelILi1EEE
dfc:__ZN14SafeBinaryRead21TransferSTLStyleArrayINSt3__26vectorIN9ShaderLab20SerializedSubProgram12UAVParameterENS1_9allocatorIS5_EEEEEEvRT_17TransferMetaFlags
AZj:__ZN6il2cpp8metadata13ArrayMetadata20SetupArrayInterfacesEP11Il2CppClassRKNS_2os12FastAutoLockE
BOf:_InputField_set_inputType_m424695295
OY:__ZN24TextDOMTransferWriteBaseI9JSONWriteE12PushMetaFlagEi
QPc:__Z18Transfer_BlittableI8JSONReadLb1E10ColorRGBAfEvRK29SerializationCommandArgumentsR31RuntimeSerializationCommandInfo
qia:__ZN6prcoreL26RemapGenericIntegerToFloatI17TexFormatARGB888815TexFormatRFloatEEvPKNS_9InnerInfoE
XKj:__ZN6il2cpp2vm10ThreadPool10InitializeEv
$Qi:_List_1__ctor_m808270210_gshared
VUj:__ZN6il2cpp2vm17TypeNameParseInfoD2Ev
DBh:_PrimeHelper_ToPrime_m3704362632_gshared
fN:__ZN4FMOD7Channel7setModeEj
U7g:_Decimal_System_IConvertible_ToType_m2919262279
dMf:_Vector2_get_right_m1027081661
GUa:__ZNK8Renderer8GetLayerEv
LYg:_Stream_Close_m771352034
L6e:__ZN21InterfaceFuncInvoker1Ii19TimeSpan_t881159249E6InvokeEjP11Il2CppClassP12Il2CppObjectS0_
DHa:__ZN12FlareManager11DeleteFlareEi
f$b:__ZNK6Camera20GetReplacementShaderEv
YTi:_List_1_System_Collections_IList_Remove_m4226673807_gshared
yjk:__ZNSt3__26__treeINS_12__value_typeINS_12basic_stringIcNS_11char_traitsIcEENS_9allocatorIcEEEEPFvvEEENS_19__map_value_compareIS7_SA_NS_4lessIS7_EELb1EEENS5_ISA_EEE4findIS7_EENS_15__tree_iteratorISA_PNS_11__tree_nodeISA_PvEEiEERKT_
gPa:__ZL23stbir__calculate_memoryP11stbir__info
Bvg:_Interpreter_Close_m126356671
zVc:__ZN9Scripting11UnityEngine14SphereCollider12CleanupProxyEv
a_a:__ZNK6Camera18GetRenderRectangleEv
d5j:__ZN6il2cpp8metadata15GenericMetadata7InflateEPK19Il2CppGenericMethodPK20Il2CppGenericContext
bTc:__ZN9Scripting11UnityEngine22ParticleCollisionEvent9InitProxyEv
sYa:__ZN13sorted_vectorIN4core12basic_stringIcNS0_20StringStorageDefaultIcEEEENSt3__24lessIS4_EE13stl_allocatorIS4_L18MemLabelIdentifier81ELi16EEE4findIS4_EENS5_11__wrap_iterIPS4_EERKT_
Zxc:__Z13RegisterClassI30RuntimeInitializeOnLoadManagerEvPKc
Rbj:_Parser_HandleExplicitNumericGroups_m1412234891
BLi:_Array_InternalArray__get_Item_TisRaycastHit2D_t2279581989_m2440275162_gshared
QQe:_CustomAttributeNamedArgument_Equals_m1414002036
vQc:__ZL26Transfer_SimpleNativeClassI8JSONRead10RectOffsetLb1EEvRK29SerializationCommandArgumentsR31RuntimeSerializationCommandInfo
Tdd:__Z44CanvasRenderer_CUSTOM_INTERNAL_CALL_SetColorP12Il2CppObjectRK10ColorRGBAf
qDa:__Z26TransformVerticesInnerLoopILb1ELb1ELb1EEvPhRK10Matrix4x4fRK10Matrix3x3fjPKhiS8_ii25GfxTransformVerticesFlagsj
cDh:_Enumerator_System_Collections_IEnumerator_Reset_m959124362_AdjustorThunk
m_b:__ZNK20DynamicPropertySheet18FindQueuedPropertyEN9ShaderLab16FastPropertyNameEN19ShaderPropertySheet12PropertyTypeE
Ebh:_Enum_ToObject_m121831801
CGd:_Image_get_hasBorder_m3423344180
hid:__Z48UnityAnalyticsHandler_CUSTOM_SendCustomEventNameP12Il2CppObjectP12Il2CppString
Zpc:__ZN9Transform16SetLocalRotationERK11Quaternionf
ama:__ZL49__ManagedRegistrationHelperFunction_CommandBufferPv
fXb:__ZN13RenderManager37RenderCamerasWithScriptableRenderLoopEi
CNh:_TimeSpan__ctor_m3689759052
CMb:__ZN13GfxDeviceGLES22ReleaseThreadOwnershipEv
rEi:__Z37RuntimeInvoker_Enumerator_t3123848928PFvvEPK10MethodInfoPvPS4_
K5j:__ZN6il2cpp2os19ReleaseSocketHandleEj
wV:__ZN11AudioModule16GetDSPSampleRateEv
VNf:_InputField_get_characterValidation_m4196664041
UOh:_Type_get_Attributes_m58528356
Vyf:_SpriteBone_t303320096_marshal_pinvoke
mxg:_Array_GetUpperBound_m4018715963
o9i:_X509Store__ctor_m2736551756
nsc:__Z13RegisterClassI9TextAssetEvPKc
e7j:__ZN6il2cpp2os5posix15PosixWaitObjectC2ENS2_4TypeE
kZb:__ZN6Camera21PostMultiCustomRenderENS_10RenderFlagEb
hFi:_Array_InternalArray__Insert_TisMonoResource_t4103430009_m1997865927_gshared
Hcg:_SHA512Managed_HashFinal_m2173184560
BSb:__ZN12_GLOBAL__N_112UploadImagesEP7ApiGLESjji14GraphicsFormatPKhjS2_iiii16TextureUsageModePh
pJb:__ZN23ShaderVariantCollection13WarmupShadersEv
ttc:__ZN13ProduceHelperI9TransformLb0EE7ProduceE10MemLabelId18ObjectCreationMode
p8:__Z25GetCommonScriptingClassesv
T6a:__Z27scripting_gc_collect_unsafei
k2f:_MD5SHA1_HashFinal_m4115488658
BV:__ZN11AudioModule20SuspendVideoTexturesEv
Rih:_Array_InternalArray__ICollection_Add_TisKeyValuePair_2_t71524366_m3468275433_gshared
Uad:__ZN9Scripting11UnityEngine9CSSLayout6Native9InitProxyEv
GU:__Z59Register_UnityEngine_AudioExtensionManager_GetAudioListenerv
ivb:__Z26Transfer_UnityEngineObjectI24GenerateTypeTreeTransferLb0EEvRK29SerializationCommandArgumentsR31RuntimeSerializationCommandInfo
b2g:_Convert_ToDouble_m278900635
d1c:_UNITY_FT_GlyphLoader_CheckPoints
ywf:_DebugLogHandler_LogException_m302830419
RPf:_InputField_LineDownCharacterPosition_m2798128425
S9e:_Enumerator_System_Collections_IDictionaryEnumerator_get_Value_m684446183_AdjustorThunk
LHa:__ZN15SharedLightData7PrecalcEv
Wxa:__ZN10Matrix4x4fmLERKS_
iGf:_Vector2__ctor_m3970636864
rxa:__ZN17TransformInternal12InitLocalTRSE15TransformAccessRKN4math7_float3ERKNS1_7_float4ES4_
Lyb:__Z35Transfer_Blittable_FixedBufferFieldI18StreamedBinaryReadILb1EEsEvRK29SerializationCommandArgumentsR31RuntimeSerializationCommandInfo
ach:_Environment_InternalGetFolderPath_m468390978
Wkd:__ZN11UnityEngine15PlatformWrapper18GetOperatingSystemEv
sgg:_SecurityFrame_ToString_m339310712
f_d:__ZL62ParamArrayAttribute_t3664765590_CustomAttributesCacheGeneratorP21CustomAttributesCache
ZQc:__ZN8GUIStyle8TransferI8JSONReadEEvRT_
Cxd:_TouchInputModule_ProcessTouchPress_m3504077560
VYf:_Selectable_IsInteractable_m2611421038
J0c:_FT_MSB
dyk:_emscripten_glReadPixels__wrapper
UBh:_HashSet_1_Add_m1971460364_gshared
Mjk:__ZN6il2cpp6icalls8mscorlib4Mono8Security12Cryptography18KeyPairPersistence10_CanSecureEP12Il2CppString
Wch:_Array_InternalArray__ICollection_Contains_TisParameterModifier_t1461694466_m1000453323_gshared
Mth:_Dictionary_2_System_Collections_ICollection_CopyTo_m4047192178_gshared
pNj:__ZN6il2cpp2os4File11GetFileStatERKNSt3__212basic_stringIcNS2_11char_traitsIcEENS2_9allocatorIcEEEEPNS0_8FileStatEPi
Jhd:__ZN14UnityAnalytics22HandleCustomEventLimitERN11UnityEngine9Analytics15UserCustomEventE
stc:__ZN9TransformC2E10MemLabelId18ObjectCreationMode
fLb:__ZN13GfxDeviceGLES14SetRasterStateEPK17DeviceRasterState
DPe:_Assembly_ToString_m2053237013
dBf:_Vector4_Equals_m1779210055
U2c:_otv_Coverage_get_count
jNd:_ParameterModifier_t1461694466_marshal_pinvoke_back
rsa:__ZN14SafeBinaryRead11EndTransferEv
_zh:_EqualityComparer_1__cctor_m2741186979_gshared
UQ:__ZN20SoundChannelInstance19set3DMinMaxDistanceEff
ubh:_Enum_System_IConvertible_ToUInt16_m4216751959
hTb:__ZN21UniformBufferTFMethod13MapBoneBufferEj
Fuj:_StringExtension_Anagram_m968226828
klh:_Array_InternalArray__Insert_TisInt32_t2950945753_m4073217122_gshared
Lag:_RNGCryptoServiceProvider_RngClose_m3915778345
z_g:_SortedList_Remove_m2784369438
URa:__ZN4crnd12crn_unpacker10unpack_dxnEPPhjjj
a9:__ZN14SerializedFileD2Ev
vIc:__Z30Event_Get_Custom_PropModifiersP12Il2CppObject
uw:__ZN7mecanim9animation16CreateClipOutputEPKNS0_4ClipERNS_6memory9AllocatorE
wUf:_RawImage_get_mainTexture_m2396337033
BNj:__ZN6il2cpp2vm10Reflection17GetAssemblyObjectEPK14Il2CppAssembly
FDb:__ZNSt3__218__stable_sort_moveIRN10vector_mapI17ScriptingClassPtrPKN5Unity4TypeENS_4lessIS2_EENS_9allocatorINS_4pairIS2_S6_EEEEE13value_compareENS_11__wrap_iterIPSB_EEEEvT0_SJ_T_NS_15iterator_traitsISJ_E15difference_typeEPNSM_10value_typeE
Udc:__ZN6Shader21AwakeFromLoadThreadedEv
Aha:__ZN6prcoreL17RemapGenericFloatI17TexFormatRGBFloat17TexFormatRGBAHalfEEvPKNS_9InnerInfoE
ynh:_BigInteger__ctor_m3991350270
cpc:__Z58Register_UnityEngine_PlayerConnectionInternal_PollInternalv
TLf:_Vector2_GetHashCode_m3916089713_AdjustorThunk
$kk:__ZN6il2cpp2os9SemaphoreC2Eii
Wpb:__ZNSt3__26vectorI8MonoPPtr13stl_allocatorIS1_L18MemLabelIdentifier1ELi16EEE8__appendEj
NZb:__ZN14qsort_internal30FindAndMovePivotToLastPositionIP17RODataReplacementi19ROSorterReplacementEEvT_S4_T0_T1_
sTb:__ZN15UniformTFMethod20IsBoneCountSupportedEi
iTh:_UnauthorizedAccessException__ctor_m246605039
dwc:__Z12BuildTextureIA4_tPFvP9Texture2DPS0_iiiiEES2_PKcii13TextureFormatRKT0_17TextureColorSpaceb
qsk:dynCall_viidi
rbf:_KeyCollection__ctor_m1356492051_gshared
Y5:__ZN24ScriptingMethodFiltering17FilterOnSignatureENS_18MethodSearchFilterE
Dhd:__ZNSt3__26__treeINS_12__value_typeIN4core12basic_stringIcNS2_20StringStorageDefaultIcEEEEN11UnityEngine9Analytics15UserCustomEvent11CustomValueEEENS_19__map_value_compareIS6_SB_NS_4lessIS6_EELb1EEE13stl_allocatorISB_L18MemLabelIdentifier6ELi16EEE7destroyEPNS_11__tree_nodeISB_PvEE
f0c:_cf2_arrstack_finalize
d8i:_X509Certificate_VerifySignature_m3538124832
PYg:_StreamAsyncResult_SetComplete_m1102187093
Ouc:__ZN13MonoBehaviour19HandleNotificationsEPviR11MessageData
fHf:_RectOffset_Init_m2028508611
Alk:__ZN6il2cpp2os9EventImpl5ResetEv
B3f:_Alert__ctor_m3135936936
cTg:_Int64_System_IConvertible_ToInt32_m772105781
Z4i:_TlsClientSettings__ctor_m3220697265
CRj:__ZNK15dense_hashtableINSt3__24pairIK10KeyWrapperINS1_IPK9EventInfoP11Il2CppClassEEEjEES9_17ReflectionMapHashIS8_EN14dense_hash_mapIS9_jSD_NS9_14EqualsComparerINS0_8equal_toIS8_EEEENS0_9allocatorISB_EEE9SelectKeyESI_SK_E23find_position_with_hashERSA_j
nrd:__ZL45__ManagedRegistrationHelperFunction_SubsystemPv
ath:_Dictionary_2_make_pair_m2250450206_gshared
zIh:_ForwardingDecoder_GetChars_m4228908854
Wvg:_InterpreterFactory_get_GroupCount_m2226373271
Zuk:b53
Wuk:b50
Xuk:b51
avk:b56
bvk:b57
_uk:b54
$uk:b55
Gs:__ZL45__ManagedRegistrationHelperFunction_HumanBonePv
smh:_SimpleCollator_IsSafe_m310268646
gyg:_X509Certificate_get_RawData_m2387471414
Fwk:_glDetachShader__wrapper
ECg:_ArrayTypeMismatchException__ctor_m3375008173
_cf:_Transform_1_BeginInvoke_m1757796657_gshared
Uoa:__ZN9Scripting11UnityEngine7Hash12812CleanupProxyEv
duc:__ZN10GameObject12CleanupClassEv
Ehb:__ZN9GfxDevice25SetShaderPropertiesSharedERK19ShaderPropertySheet
Tnd:__ZN11UnityEngine7Connect20RemoteConfigSettingsC2ERKN4core12basic_stringIcNS2_20StringStorageDefaultIcEEEEPFvPS1_E18ScriptingObjectPtr
oyd:_BaseMeshEffect_get_graphic_m1852367505
mJg:_CaseInsensitiveHashCodeProvider_GetHashCode_m2168170016
Ykb:__ZN18AsyncUploadManager19AsyncResourceUploadER9GfxDeviceii9TextureID
_pa:__ZN9Scripting11UnityEngine12Experimental18GlobalIllumination11LightDataGI12CleanupProxyEv
Juc:__ZL25InitializeDefaultMaterialv
qHd:_PropertyBuilder_GetCustomAttributes_m3798356764
nNd:_PropertyInfo_get_MemberType_m2794839864
klj:_EventTrigger_RemoveRule_m1596811726
L7e:_Comparer_1_System_Collections_IComparer_Compare_m4179495191_gshared
c8a:__ZN17PersistentManager12UnloadStreamERKN4core12basic_stringIcNS0_20StringStorageDefaultIcEEEEb
pfb:__ZN10MemoryFile4ReadEyyPvPy
GFi:_Array_InternalArray__Insert_TisUICharInfo_t75501106_m2924156520_gshared
Hih:_MonoProperty_GetterAdapterFrame_TisRuntimeObject_TisRuntimeObject_m458718082_gshared
YHi:_Array_Sort_TisInt32_t2950945753_TisInt32_t2950945753_m3955828611_gshared
_Wj:_il2cpp_unity_liveness_calculation_from_statics
Uxi:__Z70RuntimeInvoker_Boolean_t97287965_CharU26_t1697032762_Int16_t2552820387PFvvEPK10MethodInfoPvPS4_
eA:__ZNK26AnimatorControllerPlayable11DerivesFromE17ScriptingClassPtr
$4e:_InternalEnumerator_1_System_Collections_IEnumerator_get_Current_m2649471526_gshared
sVa:__ZN8Renderer8TransferI17RemapPPtrTransferEEvRT_
b8b:__ZN13RenderTexture16SetSRGBReadWriteEb
DPa:__ZN6prcore16BlitFuncInfoSIMD19BlitFuncExecuteSIMDEPKNS_9InnerInfoEPKv
mpd:__ZN20UnityWebRequestProtoI24UnityWebRequestTransport16AtomicRefCounter14RedirectHelper14ResponseHelper15DownloadHandler13UploadHandler18CertificateHandler12HeaderHelper14AsyncOperationE9DoRequestEv
L8e:_Enumerator_System_Collections_IDictionaryEnumerator_get_Entry_m522483686_gshared
vrh:_PrivateKeyInfo_RemoveLeadingZero_m3921889925
jMh:_Thread_get_CurrentContext_m1695017876
n8b:__Z24LookRotationToQuaternionRK8Vector3fS1_P11Quaternionf
l8b:__ZN16ReflectionProbes9GetCameraEv
Z2b:__Z23CalculateLightOcclusionRK17LightProbeContextRK29LightProbeSamplingCoordinatesi
Zic:__ZL18IsGpuProgramUsable20ShaderGpuProgramTypePK6Shader
Icd:__ZN2UI6Canvas17SetSortingLayerIDEi
b7j:__ZN6il2cpp2vm11MethodStack23CleanupForCurrentThreadEv
M4g:_Convert_ToUInt64_m388601487
RFa:__ZN20TierGraphicsSettings8TransferI24GenerateTypeTreeTransferEEvRT_
xGj:__ZN15dense_hashtableINSt3__24pairIK10KeyWrapperIN6il2cpp5utils13dynamic_arrayIPK10Il2CppTypeLj4EEEEPFvvEEESA_NS3_8metadata19Il2CppSignatureHashEN14dense_hash_mapISA_SD_SG_NSA_14EqualsComparerINSF_22Il2CppSignatureCompareEEENS0_9allocatorISE_EEE9SelectKeyESK_SM_E16reset_thresholdsEv
mKf:_TouchScreenKeyboard_get_text_m1797464608
tNa:__ZN18UnityPropertySheet8TransferI19StreamedBinaryWriteILb0EEEEvRT_
ct:__ZN9Scripting11UnityEngine27AnimatorControllerParameter9InitProxyEv
fga:__ZNSt3__26__treeINS_12__value_typeIiN11TypeManager18TypeCallbackStructEEENS_19__map_value_compareIiS4_NS_4lessIiEELb1EEENS_9allocatorIS4_EEE7destroyEPNS_11__tree_nodeIS4_PvEE
rBa:__ZN9ShaderLab32FindBestMatchingShaderKeywordSetERK16ShaderKeywordSetRK13dynamic_arrayIS0_Lj0EEPS5_
Hzc:__ZNK14PlayableOutput23GetSourcePlayableUnsafeEv
Rjd:__ZN11UnityEngine7Connect17XRDeviceInfoEventD0Ev
q5d:__ZL60SoapTypeAttribute_t1750930817_CustomAttributesCacheGeneratorP21CustomAttributesCache
iQe:_Binder_ConvertArgs_m2124461494
sdc:__ZN21UnityDefaultAllocatorI17LowLevelAllocatorE10DeallocateEPv
Hyk:b86
MH:__ZN15PackedIntVector8TransferI14SafeBinaryReadEEvRT_
fMf:_Vector3__ctor_m3353183577_AdjustorThunk
FZe:_InternalEnumerator_1_System_Collections_IEnumerator_get_Current_m1514266661_gshared
j2f:_MD5SHA1_Initialize_m675470944
Cjh:_Array_InternalArray__ICollection_Add_TisKeyframe_t4206410242_m442111799_gshared
BRi:_List_1_CheckMatch_m3263549496_gshared
gFf:_PropertyNameUtils_PropertyNameFromString_Injected_m1259736140
mT:__ZN13AudioListener8DoUpdateEv
vLc:__ZN5Unity9rapidjson13GenericReaderINS0_4UTF8IcEES3_13JSONAllocatorE9ParseTrueILj1ENS0_25GenericInsituStringStreamIS3_EENS0_15GenericDocumentIS3_S4_S4_EEEEvRT0_RT1_
$Je:__Z13bankers_roundd
w2a:__ZN14SafeBinaryRead8TransferI5RectTIfEEEvRT_PKc17TransferMetaFlags
qi:_emscripten_glGenFramebuffers
aga:__ZN17BaseObjectManager16StaticInitializeEPv
Una:__ZN9Scripting11UnityEngine9Profiling8Profiler12CleanupProxyEv
RNc:__Z18Transfer_BlittableI9JSONWriteLb0EyEvRK29SerializationCommandArgumentsR31RuntimeSerializationCommandInfo
FKa:__ZN13RenderTexture15ThreadedCleanupEv
nrg:_X509BasicConstraintsExtension__ctor_m3721156175
zQa:__ZN12CubemapArray23VirtualRedirectTransferER14SafeBinaryRead
xw:__ZN21AnimationClipPlayable16ProcessHumanPassEPK35AnimationPlayableEvaluationConstantPK32AnimationPlayableEvaluationInputP33AnimationPlayableEvaluationOutput
iVg:_Path_GetFileName_m1354558116
VDc:__Z51Register_UnityEngine_QualitySettings_set_vSyncCountv
Cvk:_emscripten_glUniform3i__wrapper
Pmh:_SimpleCollator_IsPrefix_m3581642267
PGf:_Rect_Contains_m1232228501_AdjustorThunk
Vlc:__Z43RectTransform_CUSTOM_INTERNAL_set_sizeDeltaP12Il2CppObjectRK13Vector2fIcall
lTg:_Int64_System_IConvertible_ToType_m3223988955_AdjustorThunk
R2j:__ZN15dense_hashtableINSt3__24pairIK10KeyWrapperINS1_IPKcS4_EEEiEES6_24NamespaceAndNamePairHashN14dense_hash_mapIS6_iS9_NS6_14EqualsComparerI26NamespaceAndNamePairEqualsEENS0_9allocatorIS8_EEE9SelectKeyESD_SF_E6insertERKS8_
fua:__ZN24GenerateTypeTreeTransfer18BeginArrayTransferEPKcS1_Ri17TransferMetaFlags
zLi:_Array_InternalArray__get_Item_TisPlayableBinding_t354260709_m3837494573_gshared
pm:___syscall51
Ajg:_String_CreateString_m4016935005
maj:_MatchCollection_get_FullList_m1829231879
tm:___syscall54
uBg:_Array_GetValue_m2528415604
cLf:_Transform_INTERNAL_CALL_TransformPoint_m4261269221
wQg:_Guid_AppendShort_m791023083
XRi:_List_1__ctor_m4212503576_gshared
J7c:_ft_var_get_item_delta
ZIg:_BitArrayEnumerator_MoveNext_m3806676766
e1c:_cff_builder_add_point1
_3j:__ZN6il2cpp2vm5Image21GetCachedResourceDataEPK11Il2CppImageRKNSt3__212basic_stringIcNS5_11char_traitsIcEENS5_9allocatorIcEEEE
Eob:__Z18Transfer_BlittableI14SafeBinaryReadLb0E10ColorRGBAfEvRK29SerializationCommandArgumentsR31RuntimeSerializationCommandInfo
za:invoke_iiiiiiiiii
vU:__ZN11AudioSource25GetNumExtensionPropertiesEv
Okh:_Array_InternalArray__ICollection_CopyTo_TisUILineInfo_t4195266810_m104406798_gshared
Wsc:__ZZL31RegisterRectTransformPropertiesR22GenericPropertyBindingEN32Wrapper_RectTransformAnchorMaxx013GetFloatValueEPv
lwf:_Debug_LogErrorFormat_m3558239521
iEd:_Graphic_get_canvas_m3320066409
oPf:_InputField_ActivateInputFieldInternal_m3360893886
I2i:_RijndaelManagedTransform__ctor_m1033522223
Acc:__ZN10FileSystem19SetCurrentDirectoryERKN4core12basic_stringIcNS0_20StringStorageDefaultIcEEEE
vvf:_Component_get_gameObject_m442555142
cKe:_Math_Log_m2526073084
ytc:__ZN23TransformChangeDispatch24RemovePermanentInterestsE15TransformAccessPKN5Unity4TypeE
VEc:__Z47Register_UnityEngine_Coroutine_ReleaseCoroutinev
EL:__ZN15AudioReverbZone13SetFMODValuesEv
h7:__ZN14SafeBinaryRead4InitERK16TypeTreeIteratorxx24TransferInstructionFlags10MemLabelId
K2:__ZL19StaticDestroyShaderPv
$d:_glRenderbufferStorageMultisample
qB:__ZN23AnimationPlayableOutput17SetTargetAnimatorEP8Animator
p0b:__ZN22MotionVectorRenderLoopD2Ev
Bsf:_Debug_LogException_m2207318968
nte:__ZL76AnimatorTransitionInfo_t2534804151_CustomAttributesCacheGenerator_m_FullPathP21CustomAttributesCache
Lih:_Array_InternalArray__ICollection_Add_TisClientCertificateType_t1004704908_m2622721177_gshared
VH:__ZN17PackedFloatVector8TransferI18StreamedBinaryReadILb0EEEEvRT_
ZQa:__ZN7Cubemap23VirtualRedirectTransferER17RemapPPtrTransfer
ZGc:__Z37Register_UnityEngine_Screen_get_widthv
jzj:_UnityAnalyticsHandler_SendCustomEvent_m1223269116
Bfj:_Uri_get_Authority_m3816772302
Nkc:__ZN22BlockMemoryCacheWriter11GetPathNameEv
j0f:_BigInteger_op_Division_m3713793389
fKf:_Touch_get_position_m3109777936
rMd:_ParameterInfo__ctor_m3269320476
oug:_X509SubjectKeyIdentifierExtension_FromHexChars_m3244835916
dhg:_Single_CompareTo_m2785801815
wSh:_UInt64_System_IConvertible_ToInt32_m949522652_AdjustorThunk
O6i:_PKCS12_MAC_m3355614022
Yo:stackAlloc
Bfb:__ZN25SingleBlockMemoryFileData4LockEPPv
hzk:_glProgramParameteri__wrapper
Znc:__Z32RectOffset_Get_Custom_PropBottomP12Il2CppObject
hwf:_Debug_LogError_m2850623458
zqj:__ZL24UnresolvedVirtualCall_79P12Il2CppObjectPK10MethodInfo
hec:__ZNSt3__26__treeINS_12__value_typeIN4core12basic_stringIcNS2_20StringStorageDefaultIcEEEE4PPtrI7TextureEEENS_19__map_value_compareIS6_SA_NS_4lessIS6_EELb1EEENS_9allocatorISA_EEE7destroyEPNS_11__tree_nodeISA_PvEE
Mni:__Z69RuntimeInvoker_UInt64_t4134040092_Int32_t2950945753_SByte_t1669577662PFvvEPK10MethodInfoPvPS4_
Hnk:_stat
yBa:__ZN9ShaderLab10SubProgram7CompileEv
jHd:_PropertyBuilder_get_CanRead_m3783190070
g9:__ZN14SerializedFile14SerializedTypeD2Ev
Npa:__ZN9Scripting11UnityEngine12Experimental9Playables21TexturePlayableOutput9InitProxyEv
a5f:_CipherSuiteCollection_System_Collections_IList_get_Item_m2175128671
pya:__ZN6CameraD2Ev
sFc:__Z50Register_UnityEngine_Camera_get_pixelRect_Injectedv
la:invoke_iiiiiiiiiiii
P5g:_DateTime_System_IConvertible_ToType_m1242864300_AdjustorThunk
j4e:_InternalEnumerator_1_get_Current_m2446410893_AdjustorThunk
aDa:__Z29CalculateDefaultChannelsToAdd17ShaderChannelMaskS_
lCg:_Array_Sort_m870838517
fUb:__ZNSt3__26__treeI20DeviceBlendStateGLES14MemoryCompLessI16DeviceBlendStateENS_9allocatorIS1_EEE7destroyEPNS_11__tree_nodeIS1_PvEE
Xwj:_CanvasRenderer_SetMaterial_m633746949
OP:__ZN10AudioMixer12RebindOutputEv
oZj:__ZNK15dense_hashtableINSt3__24pairIK10KeyWrapperIP11Il2CppClassES4_EES5_N6il2cpp8metadata16SZArrayClassHashEN14dense_hash_mapIS5_S4_SA_NS5_14EqualsComparerINS9_19SZArrayClassCompareEEENS0_9allocatorIS7_EEE9SelectKeyESE_SG_E5beginEv
sSf:_LayoutRebuilder_PerformLayoutControl_m4241054021
CBj:__ZN6il2cpp2vm17SetupFieldsLockedEP11Il2CppClassRKNS_2os12FastAutoLockE
usf:_AnimationCurve__ctor_m1565662948
hQ:__ZN11AudioSourceD0Ev
bRb:__ZN18GlslGpuProgramGLES13SwitchProgramEj
RUb:__ZN20ArchiveStorageReaderC2E10MemLabelId
uei:__Z132RuntimeInvoker_Int32_t2950945753_RuntimeObject_Int32_t2950945753_Int32_t2950945753_RuntimeObject_Int32_t2950945753_Int32_t2950945753PFvvEPK10MethodInfoPvPS4_
jgb:__ZN16MemoryFileSystem4NameEv
JDc:__Z13SetCopyBufferRKN4core12basic_stringIcNS_20StringStorageDefaultIcEEEE
q5i:_TlsException__ctor_m818940807
qyg:_X509CertificateEnumerator_System_Collections_IEnumerator_get_Current_m418791713
Vgd:__ZN14UnityAnalyticsD2Ev
Omc:__Z42ScriptingGetComponentsOfTypeFromGameObjectRK26ScriptingGetComponentsArgs
zne:__ZL73ArgumentCache_t2187958399_CustomAttributesCacheGenerator_m_ObjectArgumentP21CustomAttributesCache
mte:__ZL65AnimatorTransitionInfo_t2534804151_CustomAttributesCacheGeneratorP21CustomAttributesCache
eJi:_Array_swap_TisRaycastResult_t3360306849_TisRaycastResult_t3360306849_m3400922624_gshared
GVc:__ZN9Scripting11UnityEngine21ControllerColliderHit9InitProxyEv
Epf:_CspParameters__ctor_m2741097571
QNa:__ZNSt3__27__sort4IRPFbRKNS_4pairIN9ShaderLab16FastPropertyNameEN18UnityPropertySheet11UnityTexEnvEEES8_EPS6_EEjT0_SD_SD_SD_T_
d0c:_cf2_hintmap_build
OJf:_Texture_get_width_m888163864
Cmc:__Z11StringToIntRKN4core16basic_string_refIcEE
a9c:_Line_Up
ge:_emscripten_glBufferSubData
cjg:_String_ReplaceUnchecked_m1381393810
Q6e:_DefaultComparer_Compare_m3278268937_gshared
Sp:__Z17CalculateGlobalRS23TransformAccessReadOnly
K9c:__Z56Register_UnityEngine_TextGenerator_GetCharactersInternalv
jik:__ZNSt3__210__list_impIPN6il2cpp5utils10MemoryPool6RegionENS_9allocatorIS5_EEE5clearEv
lGb:__ZNK25PathNamePersistentManager24PathIDToPathNameInternalEi
ecb:__ZNK12HandlerChain7ToLocalERK13FileEntryDataRN4core12basic_stringIcNS3_20StringStorageDefaultIcEEEERyS9_
_8a:__ZN22MemoryCacherReadBlocks14LockCacheBlockEjPPhS1_
JUj:__ZN6il2cpp2vm14TypeNameParser17ParseAssemblyNameEv
ZZa:__ZNK9GfxDevice26GetSinglePassStereoEyeMaskEv
vwf:_DebugLogHandler_Internal_Log_m4175774469
Zbk:__ZN4utf88internal15increase_safelyIPKcEENS0_9utf_errorERT_S5_
nGg:_CharEnumerator_get_Current_m525608209
ftd:__Z21ArrayElementTypeCheckP11Il2CppArrayPv
nyk:_emscripten_glTexSubImage2D__wrapper
yWa:__ZN18StreamedBinaryReadILb0EE21TransferSTLStyleArrayI13dynamic_arrayI33EnlightenTerrainChunksInformationLj0EEEEvRT_17TransferMetaFlags
Q$d:__ZL69DebuggerBrowsableAttribute_t1026244177_CustomAttributesCacheGeneratorP21CustomAttributesCache
Ala:__ZL48__ManagedRegistrationHelperFunction_LightmapDataPv
zpk:__ZNSt3__212basic_stringIcNS_11char_traitsIcEENS_9allocatorIcEEE6appendEjc
vDb:__Z13TransferFieldI18StreamedBinaryReadILb0EELb0E16Converter_StringEvRK23StaticTransferFieldInfoR31RuntimeSerializationCommandInfoRT1_
Cdd:__Z42Register_UnityEngine_Canvas_get_rootCanvasv
Tpb:__Z14resize_trimmedINSt3__26vectorI8MonoPPtr13stl_allocatorIS2_L18MemLabelIdentifier1ELi16EEEEEvRT_j
Pe:_TTF_RenderText_Solid
DHh:_List_1__ctor_m3947764094_gshared
aYc:__ZN20TextRenderingPrivate21TextMeshGeneratorImpl5FlushEv
sej:_Parser_IsIgnorePatternWhitespace_m2107132682
Ghd:__ZN14UnityAnalytics15Internal_CreateE18ScriptingObjectPtr
mog:_HttpRequestCreator_Create_m400548686
Und:__ZN11UnityEngine7Connect16PersistentValuesC2Ev
Q1h:_ReadOnlyCollection_1_System_Collections_IList_Insert_m134149130_gshared
vNc:__Z18Transfer_BlittableI9JSONWriteLb0E5RectTIiEEvRK29SerializationCommandArgumentsR31RuntimeSerializationCommandInfo
Cnh:_BigInteger_get_Rng_m4216817480
Mdh:_Array_InternalArray__ICollection_Remove_TisDateTime_t3738529785_m2250893026_gshared
RKb:__Z15IsIEEE754Format14GraphicsFormat
D9:__ZL12CreateStringPjR13dynamic_arrayIcLj0EEPKc
Btb:__Z19TransferField_ArrayI17RemapPPtrTransfer27Converter_UnityEngineObjectEvRK23StaticTransferFieldInfoR31RuntimeSerializationCommandInfoRT0_
YJg:_KeyNotFoundException__ctor_m541499307
ifh:_SetPropertyUtility_SetStruct_TisSpriteState_t1362986479_m665096788_gshared
Qei:__Z61RuntimeInvoker_Single_t1397266774_RuntimeObject_RuntimeObjectPFvvEPK10MethodInfoPvPS4_
Sdh:_Array_InternalArray__ICollection_Remove_TisIntPtr_t_m3807208150_gshared
Bqi:__Z71RuntimeInvoker_Void_t1185182177_Vector3_t3722313464_Vector3_t3722313464PFvvEPK10MethodInfoPvPS4_
J0e:_InternalEnumerator_1_get_Current_m2316281569_AdjustorThunk
_0g:_DateTime__ctor_m1095105629
gMb:__ZN13GfxDeviceGLES15UploadTexture2DE9TextureID16TextureDimensionPKhiii14GraphicsFormati18TextureUploadFlags16TextureUsageMode
hgj:_Event_Cleanup_m2477919477
FO:__ZN4FMOD6System9createDSPEP20FMOD_DSP_DESCRIPTIONPPNS_3DSPE
B9d:__ZL87Thread_t2300836069_CustomAttributesCacheGenerator_Thread_GetCompressedStack_m2923422412P21CustomAttributesCache
lag:_SslClientStream_get_ClientCertificates_m998716871
PM:__ZN4FMOD8ChannelI11EndCallbackEv
TJc:__ZN8GUIStyle14SetDefaultFontEPN13TextRendering4FontE
ATa:__ZN15QualitySettings23VirtualRedirectTransferER24GenerateTypeTreeTransfer
$lf:_ObjectReader_ReadValue_m3145979203
gK:__ZN9Scripting11UnityEngine24AssetBundleCreateRequest9InitProxyEv
dzd:_CanvasScaler_OnDisable_m3424669401
HEc:__Z59Register_UnityEngine_MonoBehaviour_Internal_CancelInvokeAllv
HDe:__ZL68Scrollbar_t1494447233_CustomAttributesCacheGenerator_m_NumberOfStepsP21CustomAttributesCache
MEj:__ZN30dense_hashtable_const_iteratorINSt3__24pairIK10KeyWrapperIPK19Il2CppGenericMethodEPK26Il2CppGenericMethodIndicesEES6_N6il2cpp8metadata23Il2CppGenericMethodHashEN14dense_hash_mapIS6_SA_SE_NS6_14EqualsComparerINSD_26Il2CppGenericMethodCompareEEENS0_9allocatorISB_EEE9SelectKeyESI_SK_EppEv
_Yc:_UNITY_FT_Request_Metrics
M1j:__ZN6il2cpp6icalls8mscorlib6System10Reflection10MonoMethod29get_IsGenericMethodDefinitionEP22Il2CppReflectionMethod
kYj:__ZN6il2cpp2vm6Thread21AllocThreadStaticDataEi
gEa:__ZL12CopyChannelsj17ShaderChannelMaskRA4_K10StreamInfoRA12_K11ChannelInfoPKhS3_S7_Ph
kQe:_Default_SelectMethod_m469311730
Czf:_Input_get_mousePosition_m1616496925
fbk:__ZN30dense_hashtable_const_iteratorINSt3__24pairIK10KeyWrapperIPK19Il2CppGenericMethodEP10MethodInfoEES6_N6il2cpp8metadata23Il2CppGenericMethodHashEN14dense_hash_mapIS6_S9_SD_NS6_14EqualsComparerINSC_26Il2CppGenericMethodCompareEEENS0_9allocatorISA_EEE9SelectKeyESH_SJ_EppEv
fSh:_UInt32_ToString_m2066897296_AdjustorThunk
F9a:__ZN24GenerateTypeTreeTransfer19TransferSTLStyleMapINSt3__23mapI4PPtrI6ShaderEN4core12basic_stringIcNS6_20StringStorageDefaultIcEEEENS1_4lessIS5_EENS1_9allocatorINS1_4pairIKS5_SA_EEEEEEEEvRT_17TransferMetaFlags
nKg:_Enumerator_Reset_m4274366540
UMc:__Z18Transfer_BlittableI9JSONWriteLb0E8Vector3fEvRK29SerializationCommandArgumentsR31RuntimeSerializationCommandInfo
Of:_emscripten_glUniform4i
dDf:_PlayerConnection_RegisterDisconnection_m2618599213
_e:_emscripten_glUniform4f
wj:___unlock
S4i:_TlsCipherSuite_ComputeServerRecordMAC_m3941098609
c2c:_otv_validate
Wac:__ZN13sorted_vectorINSt3__24pairIN4core12basic_stringIcNS2_20StringStorageDefaultIcEEEES6_EEN10vector_mapIS6_S6_27compare_tstring_insensitiveIS6_E13stl_allocatorIS7_L18MemLabelIdentifier38ELi16EEE13value_compareESD_E9erase_oneIS6_EEjRKT_
aeg:_X509Certificate_Equals_m3784196370
HVi:_List_1__ctor_m3376067838_gshared
SQ:__ZN20SoundChannelInstance19setReverbPropertiesEP29FMOD_REVERB_CHANNELPROPERTIES
NEh:_Enumerator_MoveNext_m1446151600_gshared
Qbg:_SHA1Internal_ProcessFinalBlock_m1403775421
hXi:_Queue_1_System_Collections_ICollection_CopyTo_m3452613063_gshared
Lqc:__Z40Register_UnityEngine_Transform_IsChildOfv
njf:_RemotingServices_GetOrCreateClientIdentity_m648299611
l6e:_InternalEnumerator_1_get_Current_m2356858238_AdjustorThunk
Poc:__Z45Register_UnityEngine_Display_GetSystemExtImplv
Lrh:_RSAManaged_ImportParameters_m1844641996
S8e:_Enumerator_System_Collections_IDictionaryEnumerator_get_Value_m3325938730_AdjustorThunk
yx:__ZN7mecanim9animation23TransformValuesFromClipEiiiRKNS_10ValueArrayERKNS0_10ClipOutputERKNS0_12ClipBindingsERS1_RNS_14ValueArrayMaskEb
lFa:__ZN14SafeBinaryRead21TransferSTLStyleArrayI13dynamic_arrayI21PlatformShaderDefinesLj0EEEEvRT_17TransferMetaFlags
HUc:__GLOBAL__sub_I_Runtime_Dynamics_0_cpp
Igf:_ValueCollection_System_Collections_ICollection_get_SyncRoot_m1114275063_gshared
Pyj:__ZL17log2withScale_128yyi
mQg:_Guid_Equals_m1866984197
ahd:__ZN14UnityAnalytics19ConfigChangedStaticEPS_RKN4core12basic_stringIcNS1_20StringStorageDefaultIcEEEER8JSONReadb
ZOe:_PlatformNotSupportedException__ctor_m1787918017
Sda:__ZN13RuntimeStaticI15DirectorManagerLb0EE16StaticInitializeEPv
M_h:_ReadOnlyCollection_1_System_Collections_ICollection_CopyTo_m2643246984_gshared
w1a:__ZN11TimeManager6UpdateEv
DFh:_Enumerator_System_Collections_IEnumerator_get_Current_m209407522_gshared
Yyd:_CanvasScaler_get_fallbackScreenDPI_m2811935689
Er:__ZNK16ParentConstraint18GetTranslationAxisEv
qMg:_DateTimeFormatInfo_ReadOnly_m890935083
mRf:_LayoutElement_set_preferredHeight_m1999633022
Onk:_fflush
m7a:__ZN17LightProbeContext4InitERK16LightmapSettingsRK14RenderSettings
O3b:__ZN18DeferredRenderLoop14RenderLightingER21ActiveLightingContextP13RenderTexture9TextureIDPS3_iRK8Vector4fRK14LightingLayersR10MinMaxAABBb12ObjectHandleI17RenderSurface_TagP17RenderSurfaceBaseE
IIf:_SceneManager_Internal_ActiveSceneChanged_m3676176255
oah:_Double_System_IConvertible_ToInt16_m3591921965
hZa:__ZN9Texture3DD2Ev
NUh:_Collection_1_set_Item_m4280581817_gshared
o0g:_Convert_ToChar_m2796006345
FFi:_Array_InternalArray__Insert_TisContentType_t1787303396_m3566390691_gshared
bca:__ZN5CacheD2Ev
DHg:_ArrayListWrapper_GetEnumerator_m2336495952
t6b:__Z34ProcessIndexListIsNodeVisibleStep2RK22SceneCullingParametersPK9SceneNodePK4AABBR9IndexList
dEb:__ZN10MonoScriptD2Ev
soa:__ZN9Scripting11UnityEngine10Networking16PlayerConnection16PlayerConnection12CleanupProxyEv
LTb:__ZN19ConstantBuffersGLES8UpdateCBE5CbKeyPKvj
vnj:_AudioSource_get_spatializeInternal_m2117549793
krc:__Z39Input_CUSTOM_INTERNAL_get_mousePositionP8Vector3f
umf:_SerializationCallbacks_GetMethodsByAttribute_m2095490433
I4c:_tt_cmap13_char_next
Pye:__ZL117EventSystem_t1003666588_CustomAttributesCacheGenerator_EventSystem_t1003666588____lastSelectedGameObject_PropertyInfoP21CustomAttributesCache
BWb:__ZN9ShaderLab4Pass16SetupPassOptionsEv
ch:_JS_Sound_ReleaseInstance
CXj:_il2cpp_type_equals
QPg:_Guid_CheckArray_m921056615
ARd:_ConfigHandler_ReadLifetine_m208994800
kaf:_Enumerator_System_Collections_IDictionaryEnumerator_get_Entry_m3417028588_AdjustorThunk
l_j:__ZN6il2cpp6icalls8mscorlib6System7Runtime15InteropServices7Marshal19copy_from_unmanagedEiiP11Il2CppArrayi
uQh:_UInt16_System_IConvertible_ToByte_m3185614807_AdjustorThunk
tGf:_Rect_get_max_m350137314_AdjustorThunk
Dm:FUNCTION_TABLE_diddi
K$j:__ZN6il2cpp6icalls8mscorlib6System5Array8FastCopyEP11Il2CppArrayiS5_ii
zbd:__ZNK2UI14CanvasRenderer22GetTypeVirtualInternalEv
moc:__Z42Register_UnityEngine_RectOffset_get_bottomv
pnk:_newlocale
Irb:__ZN9BoundsInt8TransferI14SafeBinaryReadEEvRT_
G$b:__Z20DoDeferredRenderLoopRK17RenderLoopContextR13dynamic_arrayI16RenderObjectDataLj0EES5_RK11CullResultsRP13RenderTextureSB_Pb
qwk:_emscripten_glUniform1f__wrapper
vrk:dynCall_di
t6a:__ZN21EnlightenSceneMapping6AppendEiRKS_
gxf:_BaseInvokableCall_AllowInvoke_m878393606
CMc:__Z28RegisterModule_JSONSerializev
rjd:__ZThn1168_N18UnityConnectClientD1Ev
oUc:__ZL57__ManagedRegistrationHelperFunction_CachedContactPoints2DPv
$9a:__ZN2UI13RectTransform8TransferI14SafeBinaryReadEEvRT_
NNc:__Z35Transfer_Blittable_FixedBufferFieldI9JSONWriteaEvRK29SerializationCommandArgumentsR31RuntimeSerializationCommandInfo
vtf:_Behaviour_get_enabled_m753527255
lpc:__Z20IsHumanControllingUsv
v1:__ZNK20DynamicHeapAllocatorI17LowLevelAllocatorE10GetPtrSizeEPKv
r0d:__ZL51TextInfo_t3810425522_CustomAttributesCacheGeneratorP21CustomAttributesCache
xmc:__ZN10systeminfo21GetPersistentDataPathEv
qjd:__ZThn1168_N18UnityConnectClient18OnAdsIdRequestDoneERKN4core12basic_stringIcNS0_20StringStorageDefaultIcEEEEbS6_
FLb:__ZN13GfxDeviceGLES17DestroyGpuProgramEPK10GpuProgram
DGi:_Array_InternalArray__set_Item_TisRaycastResult_t3360306849_m730888808_gshared
bob:__Z44InitializeTransferFunctionScriptingTraitsForI18StreamedBinaryReadILb0EEEvR31TransferFunctionScriptingTraits
_1b:__ZNSt3__218__insertion_sort_3IR23CompareReflectionProbesP31RuntimeReflectionProbeBlendInfoEEvT0_S5_T_
Ltb:__ZN12NativeBufferI27Converter_SimpleNativeClassI8GradientEE15SetupForWritingER9ArrayInfo
ioh:_Kernel_RightShift_m2207393597
Mga:__ZNSt3__213__stable_sortIRNS_4lessIN4core12basic_stringIcNS2_20StringStorageDefaultIcEEEEEENS_11__wrap_iterIPS6_EEEEvT0_SC_T_NS_15iterator_traitsISC_E15difference_typeEPNSF_10value_typeEi
FGe:__ZL48Shadow_t773074319_CustomAttributesCacheGeneratorP21CustomAttributesCache
N2:__ZN12_GLOBAL__N_113StaticDestroyEPv
mJc:__ZNK8GUIStyle4DrawER8GUIStateRK5RectTIfER10GUIContentbbbb
aBk:_glUnmapBuffer__wrapper
uRc:__ZN8JSONRead21TransferSTLStyleArrayINSt3__26vectorI8Gradient13stl_allocatorIS3_L18MemLabelIdentifier1ELi16EEEEEEvRT_17TransferMetaFlags
x3a:__ZNSt3__218__insertion_sort_3IRNS_6__lessINS_4pairIPKN5Unity4TypeE7Hash128EES8_EEPS8_EEvT0_SC_T_
rOf:_InputField_set_onValueChanged_m3658917578
tvb:__ZN10RectOffset8TransferI24GenerateTypeTreeTransferEEvRT_
vUg:_BinaryReader__ctor_m2266204403
fqa:__ZN9Scripting11UnityEngine6Events14UnityEventBase9InitProxyEv
uDh:_Enumerator_VerifyState_m3047769867_AdjustorThunk
Fub:__Z18Transfer_BlittableI24GenerateTypeTreeTransferLb1E5RectTIiEEvRK29SerializationCommandArgumentsR31RuntimeSerializationCommandInfo
uaj:_Enumerator_System_Collections_IEnumerator_Reset_m24787251
Kbd:__ZN2UI13CanvasManager19RemoveDirtyRendererEPNS_6CanvasEPNS_14CanvasRendererE
rmk:_isspace
jkf:_BinaryFormatter__ctor_m2620705134
Ikd:__ZN11UnityEngine15PlatformWrapper25GetGraphicsRendererStringEv
sKh:_UTF7Encoding_InternalGetBytes_m797138468
Rsc:__ZZL31RegisterRectTransformPropertiesR22GenericPropertyBindingEN39Wrapper_RectTransformAnchoredPositiony113SetFloatValueEPvf
Z$:__ZN11UnityEngine15CloudWebService17WebFileDownloaderINS0_20WebRequestRestClientENS0_23WebRequestRestHeaderMapEED2Ev
Nb:invoke_vi
hM:__ZN12AudioManager8InitFMODE15FMOD_OUTPUTTYPE
Pyg:_SmallXmlParser_HandleWhitespaces_m549588711
Lb:invoke_vd
Lya:__ZNK6Camera19GetStereoViewMatrixE15StereoscopicEye
iaj:_Regex_get_RightToLeft_m2317867572
Daa:__ZNK10GameObject8IsActiveEv
QGc:__Z34Component_Get_Custom_PropTransformP12Il2CppObject
axe:__ZL67g_UnityEngine_PhysicsModule_Assembly_CustomAttributesCacheGeneratorP21CustomAttributesCache
UQb:__ZN18GfxFramebufferGLES23SetupDefaultFramebufferEPP17RenderSurfaceBaseS2_N2gl6HandleILNS3_10ObjectTypeE9EEE
PBd:_DefaultControls_CreateDropdown_m3286664171
bZa:__ZN13ScreenManager18RequestOrientationE17ScreenOrientation
$Bj:__ZN6il2cpp2vm5Class12SetupMethodsEP11Il2CppClass
iCc:__Z39DeleteLastPathNameComponentWithAnySlashRKN4core12basic_stringIcNS_20StringStorageDefaultIcEEEE
BKc:__ZN10GUIManager14InitGUIManagerEv
WQh:_UInt16_Equals_m642257745
WAg:_Array_System_Collections_IList_IndexOf_m3301661616
NPe:_AssemblyFileVersionAttribute__ctor_m3720707642
NOd:_RuntimeResourceSet_CloneDisposableObjectIfPossible_m2725520898
XJc:__Z37Register_UnityEngine_GUIStyle_Cleanupv
Ka:invoke_iiifii
CFc:__Z26Mesh_CUSTOM_SetIndicesImplP12Il2CppObjecti16GfxPrimitiveTypeP11Il2CppArrayihi
jZf:_SliderEvent__ctor_m3149452941
_xg:_DeriveBytes__cctor_m1212925033
yEd:_Graphic_OnDisable_m1097930217
nMj:__ZN6il2cpp6icalls8mscorlib6System8MonoType13IsPointerImplEP20Il2CppReflectionType
Pi:_emscripten_glFramebufferRenderbuffer
W4b:__ZN19CullingGroupManager17CullAndSendEventsERK22SceneCullingParametersiRK13CullingOutputRK8JobFence
exa:__ZN9Transform30EnsureTransformHierarchyExistsEv
ROh:_Type_FilterName_impl_m2651733559
PV:__ZN11AudioModule26SetDefaultMicrophoneDriverEPv
Dpc:__Z46Register_UnityEngine_Application_get_isPlayingv
lDc:__ZN13MonoBehaviour13StopCoroutineEPKc
Iac:__ZNSt3__26vectorINS_4pairIN4core12basic_stringIcNS2_20StringStorageDefaultIcEEEEPK17MessageIdentifierEENS_9allocatorISA_EEE12__move_rangeEPSA_SE_SE_
OZb:__ZN14qsort_internal17MedianOfThreeSwapIP17RODataReplacement19ROSorterReplacementEEvT_S4_S4_T0_
cig:_String_Split_m3646115398
jHf:_RectOffset_ToString_m2007443979
RAj:__ZNK15dense_hashtableINSt3__24pairIK10KeyWrapperIPK22Il2CppGenericParameterEP11Il2CppClassEES6_N6il2cpp5utils11PointerHashIS4_EEN14dense_hash_mapIS6_S9_SE_NS6_14EqualsComparerINS0_8equal_toIS5_EEEENS0_9allocatorISA_EEE9SelectKeyESJ_SL_E3endEv
hCc:__ZN17TransformInternal36OnScaleChangedCalculateTransformTypeE15TransformAccess
Kdb:__ZN17ArchiveFileSystem10ToAbsoluteEPKc
Vxc:__Z13RegisterClassI11PreloadDataEvPKc
kFc:__Z35Camera_CUSTOM_RaycastTry2D_InjectedP12Il2CppObjectRK3Rayfi
sld:__ZN19UnityConnectService15GetPlayerUserIdEv
_hh:_Array_InternalArray__IndexOf_TisSByte_t1669577662_m4156538463_gshared
EC:__ZN7mecanim6CRCKeyENS_7eStringE
roc:__ZL12SetPrefValueRKN4core12basic_stringIcNS_20StringStorageDefaultIcEEEERK9PrefValue
kac:__Z21GetBackgroundJobQueuev
MZa:__ZN19ShaderPropertySheet20ReservePropertyCountEj
Fbk:__ZN6il2cpp5utils11StringUtils6PrintfEPKcz
EZj:__ZNSt3__26vectorIN6il2cpp8metadata18GenericArrayMethodENS_9allocatorIS3_EEE7reserveEj
ZNa:__ZN15NameToObjectMapI6ShaderNSt3__23mapI4PPtrIS0_EN4core12basic_stringIcNS5_20StringStorageDefaultIcEEEENS1_4lessIS4_EENS1_9allocatorINS1_4pairIKS4_S9_EEEEEENS1_8multimapIS9_S4_NSA_IS9_EENSC_INSD_IKS9_S4_EEEEEEE4FindERSK_
WPa:__ZN24GenerateTypeTreeTransfer21TransferResourceImageE19ActiveResourceImagePKcR13StreamingInfoPvjiPKN5Unity4TypeE
OIi:_Array_Sort_TisVector3_t3722313464_m1030213405_gshared
p5j:__ZN6il2cpp2vm6Object5CloneEP12Il2CppObject
Kjk:__ZN6il2cpp6icalls8mscorlib6System9Threading5Mutex20CreateMutex_internalEbP12Il2CppStringPb
fne:__ZL47Time_t2420636075_CustomAttributesCacheGeneratorP21CustomAttributesCache
Jvf:_Coroutine_Finalize_m1957108547
Yij:_KeyBuilder_Key_m2503211157
xGa:__ZNSt3__212__deque_baseI18ReflectionProbeJobNS_9allocatorIS1_EEED2Ev
ZB:__ZN11UnityEngine9Animation27DestroyAnimationSetBindingsEPNS0_20AnimationSetBindingsERN7mecanim6memory9AllocatorE
Vec:__ZN15dense_hashtableINSt3__24pairIKiN4core17string_with_labelILi1EEEEEi18SInt32HashFunctionN14dense_hash_mapIiS5_S7_NS0_8equal_toIiEE13stl_allocatorIS6_L18MemLabelIdentifier1ELi16EEE9SelectKeyESA_SD_E13set_empty_keyERKS6_
yvf:_Component_GetComponentInChildren_m388868270
dBh:_GenericEqualityComparer_1_Equals_m1705889345_gshared
wI:__ZN8Animator12CleanupClassEv
cog:_FtpWebRequest__cctor_m699542155
mEg:_Byte_System_IConvertible_ToBoolean_m2888023769
u4j:__GLOBAL__sub_I_GenericMetadata_cpp
bng:_NameObjectCollectionBase_GetEnumerator_m3677320185
T5b:__Z24CalculateSpotLightBoundsffRK10Matrix4x4fR15SpotLightBounds
HJa:__ZNK13RenderTexture21GetShadowSamplingModeEv
GX:__ZN23CloudWebServicesManager23VirtualRedirectTransferER14SafeBinaryRead
Yxg:_PKCS12_AddCertificate_m3857004455
Skf:_WellKnownClientTypeEntry_ToString_m1119458503
sFb:__Z19ShouldTransferFieldR32SerializationCommandQueueBuilder17ScriptingClassPtriR18TransferField_InfoRK20CoreScriptingClasses
JEc:__Z48Register_UnityEngine_MonoBehaviour_InvokeDelayedv
tfg:_SecurityElement_IsValidText_m1346599242
onb:__ZN26SinglePassStereoSupportExt21SetStereoMatrixCommonE21MonoOrStereoscopicEye24BuiltinShaderMatrixParamRK10Matrix4x4f
pP:__ZN5audio5mixer22UpdateAudioMixerMemoryERKNS0_18AudioMixerConstantERNS0_16AudioMixerMemoryEfPN4FMOD6SystemEf
ZVc:__ZL21InitializeCachedStripPv
Msh:_Dictionary_2_System_Collections_Generic_ICollectionU3CSystem_Collections_Generic_KeyValuePairU3CTKeyU2CTValueU3EU3E_Add_m3652125112_gshared
C9b:__ZN19CustomRenderTexture16GetRenderTextureEv
__j:__ZN6il2cpp6icalls8mscorlib6System9Threading6Thread23GetCachedCurrentCultureEP12Il2CppThread
Nxa:__ZNK6Camera22GetWorldToCameraMatrixEv
T6j:__ZN6il2cpp2vm12GenericClass11IsValueTypeEP18Il2CppGenericClass
Gdc:__ZN13ScreenManager24SetIsFullscreenImmediateEb
EEb:__ZN13MonoBehaviour7SetNameEPKc
kVd:_MethodDictionary_IsOverridenKey_m946843558
IWg:_FileStream_BeginRead_m2419864669
Bbi:_U3CStartU3Ec__Iterator0_MoveNext_m4270440387_gshared
gGj:__ZN10KeyWrapperIN6il2cpp5utils13dynamic_arrayIPK10Il2CppTypeLj4EEEEC2ERKS7_
EJb:__ZN17InstancingBatcher22FindCBUpperBoundKonstsEv
bhd:__ZN11UnityEngine9Analytics15AnalyticsConfig13ConfigChangedERKN4core12basic_stringIcNS2_20StringStorageDefaultIcEEEER8JSONRead
m6a:__ZN18AwakeFromLoadQueue5ClearEv
dXg:_FileStream_SetLength_m99749826
n4b:__ZNSt3__27__sort5IR15ReflProbeSorterPP15ReflectionProbeEEjT0_S6_S6_S6_S6_T_
Hea:__ZN8Playable10DisconnectEPS_i
vk:_glGenTransformFeedbacks
y5a:__ZN13LoadOperationD2Ev
eRg:_Int16_System_IConvertible_ToType_m3672347013
uzg:_AttrListImpl_GetValue_m3657391095
vIb:__Z21PlayerStartFirstSceneb
mWi:_List_1_CheckIndex_m3933537097_gshared
RNa:__ZNSt3__27__sort5IRPFbRKNS_4pairIN9ShaderLab16FastPropertyNameEN18UnityPropertySheet11UnityTexEnvEEES8_EPS6_EEjT0_SD_SD_SD_SD_T_
YOb:__ZNK7ApiGLES18GetExtensionStringEv
OVi:_List_1_System_Collections_IList_IndexOf_m2444653486_gshared
rwk:_emscripten_glVertexAttrib1f__wrapper
Gbb:__ZNK12HandlerChain4SizeERK13FileEntryData
Wo:FUNCTION_TABLE_iiiiiiiii
m$h:_ReadOnlyCollection_1_System_Collections_Generic_ICollectionU3CTU3E_Remove_m4177779688_gshared
rra:__ZN9Scripting11UnityEngine14AnimationCurve9InitProxyEv
TFg:_Char_IsLetter_m3996985877
cXi:_Queue_1_Peek_m2302800625_gshared
dYd:__ZL51Delegate_t1188392813_CustomAttributesCacheGeneratorP21CustomAttributesCache
Gek:_GC_allochblk
E6a:__Z15UnloadGameScenev
Hkh:_Array_InternalArray__ICollection_CopyTo_TisKeyframe_t4206410242_m2132255743_gshared
XAk:_glCheckFramebufferStatus__wrapper
fGd:_Image__ctor_m2551076292
Bhf:_Dictionary_2_System_Collections_ICollection_CopyTo_m3143696177_gshared
Pgi:__Z103RuntimeInvoker_Void_t1185182177_Int32_t2950945753_Int32_t2950945753_Int32_t2950945753_SByte_t1669577662PFvvEPK10MethodInfoPvPS4_
bHc:__Z36Renderer_Get_Custom_PropSortingOrderP12Il2CppObject
YOj:__ZNK15dense_hashtableINSt3__24pairIK10KeyWrapperIPK10Il2CppTypeEjEES6_N6il2cpp8metadata14Il2CppTypeHashEN14dense_hash_mapIS6_jSB_NS6_14EqualsComparerINSA_26Il2CppTypeEqualityComparerEEENS0_9allocatorIS8_EEE9SelectKeyESF_SH_E13find_positionERS7_
xJa:__ZN7Texture5ResetEv
fub:__Z18Transfer_BlittableI24GenerateTypeTreeTransferLb0E8Vector2fEvRK29SerializationCommandArgumentsR31RuntimeSerializationCommandInfo
uSd:_Context_get_HasDynamicSinks_m3952434387
CIh:_Latin1Encoding_GetByteCount_m1145650505
Wtb:__Z18Transfer_BlittableI24GenerateTypeTreeTransferLb1EhEvRK29SerializationCommandArgumentsR31RuntimeSerializationCommandInfo
KTe:_GenericTypeParameterBuilder_GetPropertyImpl_m2584778600
XAb:__Z13TransferFieldI18StreamedBinaryReadILb1EELb0E16Converter_StringEvRK23StaticTransferFieldInfoR31RuntimeSerializationCommandInfoRT1_
wDc:__ZNK16TypeTreeIterator10ByteOffsetEv
Ork:dynCall_iiifii
rda:__ZnwjRKSt9nothrow_t
SF:__ZN8Animator11ClearObjectEv
qAg:_ApplicationException__ctor_m2557611022
yMa:__ZN14SafeBinaryRead19TransferSTLStyleMapINSt3__23mapI39DeprecatedFastPropertyNameSerializationN18UnityPropertySheet11UnityTexEnvENS1_4lessIS3_EENS1_9allocatorINS1_4pairIKS3_S5_EEEEEEEEvRT_17TransferMetaFlags
LEc:__Z45Register_UnityEngine_MonoBehaviour_IsInvokingv
tTi:_List_1_CheckMatch_m579516778_gshared
_wb:__ZL26Transfer_SimpleNativeClassI19StreamedBinaryWriteILb0EE17AnimationCurveTplIfELb0EEvRK29SerializationCommandArgumentsR31RuntimeSerializationCommandInfo
OIb:__Z43GiveManagedDebuggerChanceToAttachIfRequiredv
iEg:_Buffer_ByteLengthInternal_m1388208719
gkh:_Array_InternalArray__ICollection_CopyTo_TisInt64_t3736567304_m2845057751_gshared
sDc:__Z35UnregisterSerializationCacheBuilderPFv17ScriptingClassPtrR23CachedSerializationDataRbE
i8:__ZNSt3__26__treeINS_12__value_typeIPKc18ScriptingMethodPtrEENS_19__map_value_compareIS3_S5_14CStringCompareLb1EEE13stl_allocatorIS5_L18MemLabelIdentifier1ELi16EEE25__emplace_unique_key_argsIS3_JRKNS_21piecewise_construct_tENS_5tupleIJOS3_EEENSH_IJEEEEEENS_4pairINS_15__tree_iteratorIS5_PNS_11__tree_nodeIS5_PvEEiEEbEERKT_DpOT0_
pTg:_Int64_System_IConvertible_ToUInt32_m109903525_AdjustorThunk
gBa:__Z30GetBuiltinVectorParamArraySize24BuiltinShaderVectorParam
x_d:__ZL67DecimalConstantAttribute_t1976047975_CustomAttributesCacheGeneratorP21CustomAttributesCache
nla:__ZL46__ManagedRegistrationHelperFunction_SpriteBonePv
eFc:__Z36Camera_CUSTOM_get_pixelRect_InjectedP12Il2CppObjectR5RectTIfE
qJa:__ZN13RenderTextureC2E10MemLabelId18ObjectCreationMode
uRg:_Int32_GetFormatException_m519586683
I8d:__ZL46StringBuilder_t_CustomAttributesCacheGeneratorP21CustomAttributesCache
uGc:__Z60Register_UnityEngine_ScriptableObject_CreateScriptableObjectv
ILi:_Array_InternalArray__get_Item_TisVector2_t2156229523_m2502961026_gshared
YUa:__ZN21RendererUpdateManager11AddRendererER8Renderer
Mob:__Z35Transfer_Blittable_FixedBufferFieldI14SafeBinaryReadsEvRK29SerializationCommandArgumentsR31RuntimeSerializationCommandInfo
t0g:_Convert_ToDateTime_m3802186295
Gbk:__ZN6il2cpp5utils11StringUtils11Utf16ToUtf8EPKDs
v5a:__ZN18StreamedBinaryReadILb0EE21TransferSTLStyleArrayINSt3__26vectorIN15ResourceManager10DependencyE13stl_allocatorIS5_L18MemLabelIdentifier52ELi16EEEEEEvRT_17TransferMetaFlags
PSh:_UInt64_CompareTo_m1614517204_AdjustorThunk
Xkd:__ZN11UnityEngine15PlatformWrapper20IsRootedOrJailbrokenEv
nWb:__ZZ23InitPlayerLoopCallbacksvEN52PreLateUpdateScriptRunBehaviourLateUpdateRegistrator7ForwardEv
u6b:__Z33IntersectAABBPlaneBoundsOptimizedRK4AABBPKN4math7_float4Ei
Thb:__ZN9GfxDevice19EndGeometryJobFrameEv
Tgj:_GUILayoutUtility_Layout_m1159951704
uNf:_InputField_get_shouldActivateOnSelect_m3055465770
Qtb:__ZN27Converter_SimpleNativeClassI17AnimationCurveTplIfEE17ScriptingToNativeER18ScriptingObjectPtrPS1_
QOh:_Type__cctor_m2371893800
vkk:__ZN6il2cpp8metadata24Il2CppGenericInstCompare7CompareERK10KeyWrapperIPK17Il2CppGenericInstES8_
JEj:__ZNK15dense_hashtableINSt3__24pairIK10KeyWrapperIPK19Il2CppGenericMethodEPK26Il2CppGenericMethodIndicesEES6_N6il2cpp8metadata23Il2CppGenericMethodHashEN14dense_hash_mapIS6_SA_SE_NS6_14EqualsComparerINSD_26Il2CppGenericMethodCompareEEENS0_9allocatorISB_EEE9SelectKeyESI_SK_E5beginEv
iud:_ExecuteEvents_Execute_m3049310229
Hv:__ZN27AnimationLayerMixerPlayable21UpdateLayerParametersEv
qne:__ZL84Object_t631007953_CustomAttributesCacheGenerator_Object_DestroyImmediate_m2288369078P21CustomAttributesCache
Eoa:__ZN9Scripting11UnityEngine12LightmapData12CleanupProxyEv
ry:__ZN7mecanim9animation16CopyMotionOutputEPKNS0_18AnimationNodeStateEPS1_bbRKNS_6bitsetILj83EEE
Oqc:__ZNK17AnimationCurveTplIfE8EvaluateEfPNS0_5CacheE
sVb:__Z31ManagerContextInitializeClassesv
v$h:_ReadOnlyCollection_1_System_Collections_IList_Contains_m2650112051_gshared
qch:_Array_get_swapper_TisVector3_t3722313464_m1221246401_gshared
CZc:_UNITY_FT_List_Finalize
__b:__Z20LightAttenuateApproxRKfS0_
J7:__ZN9Scripting30SetCachedPtrOnScriptingWrapperE18ScriptingObjectPtrP6Object
$x:__ZN17AnimationPlayable17SetInternalWeightEf
Jvg:_RepeatContext_get_IsMinimum_m3640286252
Omf:_ObjectRecord_ChainFixup_m1889316362
SHa:__ZN18BlockRangeInternal16PopLastNodeIndexEP10BlockRangeji
tdk:__ZN6il2cpp2vm13CachedCCWBaseINS0_13ManagedObjectEE6AddRefEv
vxd:_TouchInputModule_UpdateModule_m2582897964
g$a:__ZN4MeshD0Ev
Tqd:__ZL42RequestRecreateEyeTexturesBeforeNextUpdatev
xAa:__ZNK6Camera20IsCurrentlyRenderingEv
xx:__ZN21AnimationClipPlayable23ProcessRootMotionNoClipEPK35AnimationPlayableEvaluationConstantPK32AnimationPlayableEvaluationInputP33AnimationPlayableEvaluationOutput
ied:__Z36CanvasRenderer_CUSTOM_SetPopMaterialP12Il2CppObjectS0_i
UNc:__Z18Transfer_BlittableI9JSONWriteLb0EdEvRK29SerializationCommandArgumentsR31RuntimeSerializationCommandInfo
N2c:_otv_u_O_O_u_O_O
Xya:__ZN6Camera8TransferI19StreamedBinaryWriteILb0EEEEvRT_
C7g:_DBNull_System_IConvertible_ToSByte_m3533624679
zEa:__ZThn252_N31CanvasBatchIntermediateRenderer14OnAssetDeletedEv
Mmk:_wctomb
JFg:_Char_CompareTo_m42489266
XAi:__Z67RuntimeInvoker_Void_t1185182177_Int32_t2950945753_Double_t594665363PFvvEPK10MethodInfoPvPS4_
Hoc:__Z27Camera_CUSTOM_GetAllCamerasP11Il2CppArray
Uc:___cxa_rethrow
cNd:_ParameterInfo_GetCustomAttributes_m2376494592
yPc:__Z18Transfer_BlittableI8JSONReadLb1EhEvRK29SerializationCommandArgumentsR31RuntimeSerializationCommandInfo
qEd:_Graphic_get_canvasRenderer_m315509948
U$i:_Collection_1_System_Collections_IList_Contains_m3397768605_gshared
BNg:_CultureInfo_construct_internal_locale_from_name_m3254739477
Q9f:_RSASslSignatureDeformatter_VerifySignature_m1061897602
Y8b:__ZN13MonoBehaviour8SetClassE17ScriptingClassPtr18ScriptingObjectPtr
_rf:_RandomNumberGenerator_Create_m4162970280
fFi:_Array_InternalArray__Insert_TisLabelFixup_t858502054_m171542753_gshared
F5e:_InternalEnumerator_1_System_Collections_IEnumerator_get_Current_m3539708496_AdjustorThunk
mcb:__ZN20LocalFileSystemPosix4ReadER13FileEntryDatayyPvPy
P2b:__ZNSt3__211__sift_downIRN23ForwardShaderRenderLoop18RenderObjectSorterILb0EEEP21ForwardRenderPassDataEEvT0_S7_T_NS_15iterator_traitsIS7_E15difference_typeES7_
deg:_SecurityPermission__ctor_m1462427327
_sk:dynCall_iiiiiiffiiiiiiiiiffffiiii
UEb:__ZN13MonoBehaviour5DoGUIENS_13GUILayoutTypeEii
CQd:_ChannelData_get_ClientProviders_m594662942
AI:__ZZN8Animator15InitializeClassEvEN43FunctorImpl_438kDidModifyAnimatorController4CallEPviR11MessageData
zbj:_QuickSearch_GetChar_m1297698557
Iua:__ZNK12TLSAllocatorI14StackAllocatorE8ContainsEPKv
z1a:__ZN11TimeManager8TransferI18StreamedBinaryReadILb0EEEEvRT_
O_b:__ZL8AddLightRK12ActiveLightsRK8Vector3fiR13dynamic_arrayI11CulledLightLj0EE
G0g:_DateTime__ParseEnum_m253019513
u4g:_Convert_ToUInt32_m2194577773
t$a:__ZN14BlendShapeData8TransferI14SafeBinaryReadEEvRT_
GKg:_Hashtable_Remove_m4032631466
cqh:_DSAManaged_GenerateKeyPair_m2236915969
FPa:__ZN7Texture25ReloadFromStorageIfNeededEPvb
vhh:_Array_InternalArray__IndexOf_TisBoolean_t97287965_m1161209222_gshared
lEj:__ZNK15dense_hashtableINSt3__24pairIK10KeyWrapperIP9FieldInfoEiEES5_N6il2cpp5utils11PointerHashIS3_EEN14dense_hash_mapIS5_iSB_NS5_14EqualsComparerINS0_8equal_toIS4_EEEENS0_9allocatorIS7_EEE9SelectKeyESG_SI_E3endEv
xqa:__ZN9Scripting11UnityEngine12CullingGroup9InitProxyEv
pIg:_SynchronizedArrayListWrapper_Clear_m2191301493
g7c:_Update_Max
Wjg:_String_CreateString_m780602784
T$j:__ZN6il2cpp6icalls8mscorlib6SystemL15ThrowNoWideningEv
eqc:__ZNK23TransformChangeDispatch24GetChangeMaskForInterestENS_12InterestTypeE
kqc:__Z45Transform_CUSTOM_INTERNAL_CALL_TransformPointP12Il2CppObjectRK8Vector3fRS1_
TTe:_GenericTypeParameterBuilder_InvokeMember_m1647304778
cGd:_HorizontalOrVerticalLayoutGroup_set_childControlWidth_m3261460516
QMa:__ZNSt3__26__treeINS_12__value_typeI39DeprecatedFastPropertyNameSerializationfEENS_19__map_value_compareIS2_S3_NS_4lessIS2_EELb1EEENS_9allocatorIS3_EEE7destroyEPNS_11__tree_nodeIS3_PvEE
g5c:_tt_cmap4_char_index
cyd:_AspectRatioFitter_GetParentSize_m3159144324
pgg:_SecurityFrame_get_Assembly_m2874566710
DWi:_Enumerator_System_Collections_IEnumerator_Reset_m1487823313_gshared
Qbb:__ZNK12HandlerChain8IsHiddenERK13FileEntryData
Ogb:__ZNSt3__26__treeINS_12__value_typeIN4core12basic_stringIcNS2_20StringStorageDefaultIcEEEEPN16MemoryFileSystem4NodeEEENS_19__map_value_compareIS6_SA_NS_4lessIS6_EELb1EEE13stl_allocatorISA_L18MemLabelIdentifier55ELi16EEE25__emplace_unique_key_argsIS6_JNS_4pairIKS6_S9_EEEEENSK_INS_15__tree_iteratorISA_PNS_11__tree_nodeISA_PvEEiEEbEERKT_DpOT0_
etb:__ZL26Transfer_SimpleNativeClassI17RemapPPtrTransfer10RectOffsetLb0EEvRK29SerializationCommandArgumentsR31RuntimeSerializationCommandInfo
OSg:_Int32_ToString_m2507389746_AdjustorThunk
c3g:_Decimal_op_Explicit_m438967917
dyj:_AnimatorControllerPlayable_SetHandle_m2260644454_AdjustorThunk
kgc:__ZNSt3__26vectorIN9ShaderLab20SerializedSubProgram13BufferBindingENS_9allocatorIS3_EEEC2ERKS6_
lOf:_InputField_set_selectionColor_m2084640295
cBa:__ZNK9ShaderLab20ShaderBlendStateDesc15ToGfxBlendStateEPK19ShaderPropertySheetS3_R13GfxBlendState
Oaf:_Enumerator_System_Collections_IEnumerator_get_Current_m1747693366_AdjustorThunk
CB:__ZN11UnityEngine9AnimationL22GenericBindingCallbackEPvS1_i
OE:__ZN12_GLOBAL__N_121ProcessAnimationBeginER35AnimationPlayableEvaluationConstantR32AnimationPlayableEvaluationInputR33AnimationPlayableEvaluationOutput
Qjc:__ZN9ShaderLab9IntShaderC2Ev
uMj:__ZN6il2cpp6icalls8mscorlib6SystemL9IsPrivateEPK9EventInfo
Rik:__ZN6il2cpp6icalls8mscorlib6System10Reflection4Emit11TypeBuilder20setup_internal_classEP27Il2CppReflectionTypeBuilderS7_
Thh:_Array_InternalArray__IndexOf_TisILTokenInfo_t2325775114_m2602704009_gshared
lud:_ExecuteEvents_Execute_m3613826831
rJh:_StringBuilder_AppendFormat_m3255666490
WOe:_OverflowException__ctor_m4029085969
RKc:__ZN13GUIStateScope3EndER16GUIKeyboardStateR8GUIStatePN5IMGUI19NamedKeyControlListE
PId:_TypeBuilder_GetGenericArguments_m2872156836
BAj:__ZN13Il2CppHashMapIPK22Il2CppGenericParameterP11Il2CppClassN6il2cpp5utils11PointerHashIS1_EENSt3__28equal_toIS2_EENS9_9allocatorINS9_4pairIK10KeyWrapperIS2_ES4_EEEEEC2EjRKS8_RKSB_
QQc:__ZN8JSONRead21TransferSTLStyleArrayI31ArrayOfManagedObjectsTransfererEEvRT_17TransferMetaFlags
_cb:__Z15CreateDirectoryRKN4core12basic_stringIcNS_20StringStorageDefaultIcEEEE
N0a:__Z21CalculateGlobalMatrix23TransformAccessReadOnly
QId:_TypeBuilder_GetGenericTypeDefinition_m1632720438
Ech:_Array_InternalArray__ICollection_Contains_TisLink_t544317964_m163190451_gshared
$6g:_DateTimeOffset_System_IComparable_CompareTo_m176229495_AdjustorThunk
mAf:_ManagedStreamHelpers_ValidateLoadFromStream_m580138133
h3a:__ZNK13BuildSettings22GetTypeVirtualInternalEv
Rkc:__ZN13MonoBehaviour20SetScriptingDataFromERKS_
i9h:__ZN30GenericInterfaceActionInvoker1I17Scene_t2348375561E6InvokeEPK10MethodInfoP12Il2CppObjectS0_
uUi:_List_1_CheckIndex_m2250397830_gshared
Sig:_String_LastIndexOf_m578673845
aDf:_PlayerEditorConnectionEvents_UnregisterManagedCallback_m400366024
Cjc:__ZN9ShaderLab20SerializedSubProgram14ConstantBufferC2EOS1_
z:tempBigIntI
gwg:_Interval_get_Empty_m3617514670
zPe:_Assembly_GetName_m981771927
Pz:__ZN7mecanim12statemachine24CreateStateMachineOutputEPKNS0_20StateMachineConstantEjRNS_6memory9AllocatorE
R6j:__ZN6il2cpp2vm12GenericClass8GetClassEP18Il2CppGenericClass
nib:__ZNK9GfxDevice27GetActiveRenderSurfaceWidthEv
DAe:__ZL114StandaloneInputModule_t2760469101_CustomAttributesCacheGenerator_StandaloneInputModule_ForceAutoSelect_m2837047882P21CustomAttributesCache
Kkd:__ZN11UnityEngine15PlatformWrapper28GetCleanGraphicsFixedVersionEv
NTf:_MaskableGraphic_RecalculateClipping_m1772937317
CJe:_UnmanagedMemoryStream_SetLength_m3752964620
Z3i:_SslStreamBase_RaiseLocalPrivateKeySelection_m4112368540
uVj:__ZN6il2cpp2vm4Type7GetTypeEPK10Il2CppType
oZc:_open_face_PS_from_sfnt_stream
p0e:_InternalEnumerator_1_get_Current_m165106323_AdjustorThunk
fKh:_UTF32Encoding_GetByteCount_m3610769032
rV:__ZN11AudioModule16SetListenerPauseEb
gXb:__Z16FindCameraStacksRKNSt3__24listI4PPtrI6CameraENS_9allocatorIS3_EEEERNS_6vectorI11CameraStackNS4_ISA_EEEE
raj:_MatchCollection_CopyTo_m3807326147
SVa:__ZN10GISettings8TransferI14SafeBinaryReadEEvRT_
sn:FUNCTION_TABLE_vifff
Prf:_MD5CryptoServiceProvider__ctor_m3271163125
Z9b:__ZN19CustomRenderTexture12ClearGPUDataEv
pQg:_Guid_Equals_m3683678873
GJa:__ZN13RenderTexture13ApplySettingsEv
Llf:_ObjectReader_RegisterObject_m1853376334
mVe:_ModuleBuilderTokenGenerator_GetToken_m2588853565
CDg:_Boolean_System_IConvertible_ToDecimal_m3176932461_AdjustorThunk
t2b:__ZNSt3__26__treeINS_12__value_typeIi17ShadowCachingDataEENS_19__map_value_compareIiS3_NS_4lessIiEELb1EEE13stl_allocatorIS3_L18MemLabelIdentifier66ELi16EEE25__emplace_unique_key_argsIiJNS_4pairIiS2_EEEEENSD_INS_15__tree_iteratorIS3_PNS_11__tree_nodeIS3_PvEEiEEbEERKT_DpOT0_
Te:_JS_Sound_SetListenerPosition
ln:FUNCTION_TABLE_fiffi
Sdd:__Z55Register_UnityEngine_CanvasGroup_get_ignoreParentGroupsv
p$h:_ReadOnlyCollection_1_System_Collections_Generic_IListU3CTU3E_set_Item_m711370667_gshared
T0a:__ZN12EventManager11RemoveEventEP10EventEntryPFvPvS2_iES2_
vQe:_Default_check_arguments_with_score_m3467814020
byk:_glGetActiveUniform__wrapper
zZg:_StreamWriter_LowLevelWrite_m1081676583
S8a:__ZNK8Material16MarkDependenciesER27GarbageCollectorThreadState
qZf:_Slider_set_handleRect_m1101657556
m7g:_DateTimeOffset_ToString_m3985341516_AdjustorThunk
XNc:__ZL17Transfer_GUIStyleI9JSONWriteLb0EEvRK29SerializationCommandArgumentsR31RuntimeSerializationCommandInfo
V$b:__Z28GetHaloVertexPositionsStereoP8Vector3fRKS_S2_f
oia:__ZN6prcoreL27StretchGenericFloatBilinearI15TexFormatRGHalfEEvPKNS_9InnerInfoE
oH:__Z16return_effectiveRK21AnimationClipOverride
R$b:__ZN9DepthPass7PrepareER6CameraRK13dynamic_arrayI16RenderObjectDataLj0EERK15RenderNodeQueueRK17ShaderReplaceDatab
bpa:__ZN9Scripting11UnityEngine12Experimental3U2D10SpriteBone9InitProxyEv
UKa:__ZNK15PlayableMethods18InvokePrepareFrameER18ScriptingObjectPtrRK9HPlayableP18ScriptingFrameData
rH:__ZN14SafeBinaryRead21TransferSTLStyleArrayI13dynamic_arrayI21AnimationClipOverrideLj0EEEEvRT_17TransferMetaFlags
pW:__Z13RegisterClassI12AudioManagerEvPKc
DBb:__Z18Transfer_BlittableI18StreamedBinaryReadILb0EELb1E9BoundsIntEvRK29SerializationCommandArgumentsR31RuntimeSerializationCommandInfo
IEe:__ZL71SpriteState_t1362986479_CustomAttributesCacheGenerator_m_DisabledSpriteP21CustomAttributesCache
rmd:__ZN22BaseUnityConnectClient28UpdateConfigFromServerStaticEPv
brg:_PublicKey_DecodeDSA_m3490622362
Ppc:__Z49Register_UnityEngine_Resources_GetBuiltinResourcev
HPh:_Type_GetMethod_m1479779718
V4c:_tt_cmap10_char_index
x4i:_TlsException__ctor_m3242533711
chc:__ZN15SerializeTraitsINSt3__24pairIN4core12basic_stringIcNS2_20StringStorageDefaultIcEEEE4PPtrI7TextureEEEE8TransferI24GenerateTypeTreeTransferEEvRSA_RT_
e_g:_SortedList__ctor_m3676552745
dBj:__ZN15dense_hashtableINSt3__24pairIK10KeyWrapperIPK22Il2CppGenericParameterEP11Il2CppClassEES6_N6il2cpp5utils11PointerHashIS4_EEN14dense_hash_mapIS6_S9_SE_NS6_14EqualsComparerINS0_8equal_toIS5_EEEENS0_9allocatorISA_EEE9SelectKeyESJ_SL_E3endEv
DU:__ZN11AudioSource24ClearExtensionPropertiesE12PropertyName
gic:__ZN9ShaderLab22SerializedBindChannels8TransferI19StreamedBinaryWriteILb0EEEEvRT_
rrb:__ZN15SerializeTraitsI5RectTIiEE8TransferI14SafeBinaryReadEEvRS1_RT_
EJc:__ZN5IMGUI20MoveWindowFromLayoutER8GUIStateiRK5RectTIfE
TZc:_UNITY_FT_Stream_ReadUShort
xMa:__ZNSt3__26__treeINS_12__value_typeIN4core12basic_stringIcNS2_20StringStorageDefaultIcEEEES6_EENS_19__map_value_compareIS6_S7_NS_4lessIS6_EELb1EEE13stl_allocatorIS7_L18MemLabelIdentifier1ELi16EEE7destroyEPNS_11__tree_nodeIS7_PvEE
QPb:__Z13IsDepthFormat14GraphicsFormat
C2a:__ZN12AspectRatios8TransferI24GenerateTypeTreeTransferEEvRT_
ELe:_MonoType_GetFields_m4176012508
d5g:_CurrentSystemTimeZone_GetTimeZoneData_m2641861607
Jf:_emscripten_glUniform1fv
myh:_EqualityComparer_1_System_Collections_IEqualityComparer_GetHashCode_m3423304513_gshared
qBj:__ZN6il2cpp2vm5Class13GetArrayClassEP11Il2CppClassj
Pwd:_StandaloneInputModule_set_inputActionsPerSecond_m4057208843
GIb:__ZN19RuntimeSceneManager18LoadSceneAsyncIntoER10UnitySceneRKN4core12basic_stringIcNS2_20StringStorageDefaultIcEEEENS_11LoadingModeEb
qNc:__Z35Transfer_Blittable_FixedBufferFieldI9JSONWritetEvRK29SerializationCommandArgumentsR31RuntimeSerializationCommandInfo
fLc:__ZN11IMGUIModule12AddGUIScriptER8ListNodeI13MonoBehaviourE
lb:invoke_difi
Qgj:_GUILayoutUtility_BeginWindow_m2240221150
Ywk:_glDeleteSamplers__wrapper
Tca:__ZL50StaticRegisterSceneLoadedCallback_LightmapSettingsPv
pmg:_HybridDictionary_set_Item_m2997363718
Nm:FUNCTION_TABLE_iiffi
b6e:_InternalEnumerator_1_get_Current_m1477715453_AdjustorThunk
HSh:_UInt64_System_IConvertible_ToUInt32_m2784653358
APb:__ZN21GLESGpuProgramApplier11ApplyVectorERKN20GpuProgramParameters14ValueParameterEPK8Vector4ft
$4b:__Z17PrepareSceneNodesP11CullResults
iof:_SByte_System_IConvertible_ToDecimal_m2548745278
L_c:_cff_size_done
D5b:__ZN29ExtractProjectionPlanesHelperILb1EE5ApplyERK10Matrix4x4fP5Plane
adk:__ZN6il2cpp6icalls8mscorlib6System7Convert17Base64ToByteArrayEPDsib
xuc:__ZN13ProduceHelperI7CubemapLb0EE7ProduceE10MemLabelId18ObjectCreationMode
pac:__ZN6Camera34UpdatePreviousViewProjectionMatrixEv
ULa:__ZN9ShaderLab11ShaderState25RemoveUnsupportedProgramsEPK6Shader
j9c:__Z28Font_Get_Custom_PropMaterialP12Il2CppObject
FAf:_Mathf_Abs_m3281243566
CIe:_SynchronizedWriter_WriteLine_m1552352268
Rmc:__Z26scripting_class_has_parent17ScriptingClassPtrS_
Fba:__ZN13RuntimeStaticI21AssetReferenceStorageLb0EE16StaticInitializeEPv
VRg:_Int32_System_IConvertible_ToByte_m3832391412_AdjustorThunk
WU:__Z71Register_UnityEngine_AudioSource_INTERNAL_CALL_ClearExtensionPropertiesv
CF:__ZNK8Animator20IsInMatchTargetStateEv
b2e:_InternalEnumerator_1_System_Collections_IEnumerator_get_Current_m4088805473_gshared
qoa:__ZN9Scripting11UnityEngine5Plane12CleanupProxyEv
AJc:__Z36Register_UnityEngine_GUI_set_changedv
CSd:_Context_GetServerContextSinkChain_m3154465897
Jhj:_GUIStyle_get_fixedHeight_m2868324709
aje:__ZL48Mathf_t3464937446_CustomAttributesCacheGeneratorP21CustomAttributesCache
_ik:__GLOBAL__sub_I_Il2CppCodeRegistration_cpp
Vy:__ZN7mecanim28TransformValueArrayBlendNodeEiiiRKNS_10ValueArrayERKNS_14ValueArrayMaskERS0_RS3_RNS_16ValueArrayWeightEf
mGh:_List_1_GetIndex_m3112872964_gshared
rCd:_Dropdown_set_value_m1048320169
wzj:_CustomEventData_Finalize_m1724721833
_Fa:__ZN20TierGraphicsSettings8TransferI18StreamedBinaryReadILb0EEEEvRT_
sSg:_Int32_System_IConvertible_ToUInt64_m2502338186_AdjustorThunk
Mfa:__Z33CleanupCubemapGPUUtilityMaterialsPv
cGc:__Z43Register_UnityEngine_Material_EnableKeywordv
Fyj:__ZL9rshift128PyS_
QRg:_Int16_ToString_m2072232391_AdjustorThunk
oEh:_Enumerator_VerifyState_m169680537_AdjustorThunk
_Tj:__ZN14dense_hash_mapI10KeyWrapperINSt3__24pairIPK12PropertyInfoP11Il2CppClassEEEj17ReflectionMapHashIS8_ENS9_14EqualsComparerINS1_8equal_toIS8_EEEENS1_9allocatorINS2_IKS9_jEEEEE13set_empty_keyERSH_
gk:_glRenderbufferStorage
Lrc:__Z45Register_UnityEngine_Input_get_touchSupportedv
Okd:__ZN11UnityEngine15PlatformWrapper28GetTextureFormatSupportFlagsEv
B3c:_sfnt_is_postscript
Sjf:_RemotingConfiguration_RegisterWellKnownClientType_m1237674062
Lra:__ZN9Scripting5Unity11Collections8LowLevel6Unsafe42NativeDisableUnsafePtrRestrictionAttribute9InitProxyEv
Sej:_Uri_EscapeString_m3864445955
t$c:_cf2_setError
kXa:__ZN14SafeBinaryRead21TransferSTLStyleArrayI13dynamic_arrayI12BoneWeights4Lj16EEEEvRT_17TransferMetaFlags
OVb:__ZZ23InitPlayerLoopCallbacksvEN35PreUpdateSendMouseEventsRegistrator7ForwardEv
yAa:__ZNK6Camera25GetNormalizedViewportRectEP13RenderTextureb
sCd:_Dropdown_Awake_m3140021404
Zg:_glDisable
Fb:invoke_vffff
XLf:_Vector2_get_sqrMagnitude_m837837635
$bk:__ZN6il2cpp5utils11StringUtils15StringDuplicateEPKDsj
Hcj:_Regex_Match_m4145799399
Tx:__ZN17AnimationPlayable17ProcessRootMotionEP35AnimationPlayableEvaluationConstantP32AnimationPlayableEvaluationInputP33AnimationPlayableEvaluationOutput
Xig:_String_IsNullOrEmpty_m2969720369
Vvj:_TextGenerator_GetPreferredHeight_m3514897836
Nnh:_BigInteger_LowestSetBit_m3082714978
NBk:b118
OBk:b119
bXb:__ZNK8Material12GetPassCountEv
hbg:_RSAParameters_t1728406613_marshal_pinvoke
qwg:_Interval_IsDisjoint_m1532171337_AdjustorThunk
HBk:b112
Kqk:_bitshift64Ashr
JBk:b114
KBk:b115
LBk:b116
MBk:b117
bsk:dynCall_diii
NSf:_LayoutUtility_GetFlexibleWidth_m22831835
pXe:_ArrayReadOnlyList_1_ReadOnlyError_m865416608_gshared
V6b:__Z18AddGroupToWorkloadR26BlockRangeBalancedWorkloadjR13dynamic_arrayI10BlockRangeLj0EERS1_IjLj0EE
xJg:_CollectionBase_System_Collections_IList_get_Item_m3743372945
dSa:__ZN4crnd12crn_unpacker22decode_alpha_endpointsEv
XWi:_Queue_1__ctor_m2068090025_gshared
r6b:__Z23CullDynamicObjectsUmbraPK4AABBPKN5Umbra15OcclusionBufferER9IndexList
Y3i:_SslStreamBase_RaiseRemoteCertificateValidation2_m2908038766
h5c:_tt_cmap4_char_next
KAd:_ColorTween_set_startColor_m2562993758_AdjustorThunk
Rdi:__Z50RuntimeInvoker_Boolean_t97287965_Int16_t2552820387PFvvEPK10MethodInfoPvPS4_
nea:__ZN17DirectorFrameTime14ResetDSPValuesEv
P1g:_Convert_ToDecimal_m1233667008
cnd:__ZN22UnityAnalyticsSettings10SetEnabledEb
RM:__ZN4FMOD7Channel11setPositionEjj
Rh:_glBindSampler
Lfk:_GC_reclaim_block
S4f:_ClientContext_get_ClientHelloProtocol_m1654639078
Vh:_glGetVertexAttribiv
Hff:_Enumerator_System_Collections_IEnumerator_get_Current_m1975949486_gshared
_aj:_PatternCompiler_EmitSub_m193323684
kbd:__ZN2UI11CanvasGroup23VirtualRedirectTransferER18StreamedBinaryReadILb0EE
Rra:__ZN9Scripting5Unity11Collections8LowLevel6Unsafe49NativeContainerSupportsDeferredConvertListToArray9InitProxyEv
bRc:__ZN8JSONRead8TransferIbEEvRT_PKc17TransferMetaFlagsb
wOh:_TimeSpan_ToString_m1128692466
Hjj:_AesManaged_CreateEncryptor_m2294080233
rgj:_Event_GetHashCode_m3559153592
RIh:_StringBuilder__ctor_m2367297767
oek:_GC_promote_black_lists
wNg:_CultureInfo_construct_datetime_format_m1928121315
RRc:__Z29Transfer_Blittable_ArrayFieldI8JSONRead8Vector4fEvRT_R9ArrayInfoRK23StaticTransferFieldInfo
Rn:FUNCTION_TABLE_vf
KLe:_Binder_GetDerivedLevel_m3216810447
oo:FUNCTION_TABLE_vd
qo:FUNCTION_TABLE_vi
s3:__ZN13RuntimeStaticI37UnityShaderCompilerExtPluginConfigureLb0EE16StaticInitializeEPv
sJh:_StringBuilder_AppendFormat_m2403596038
Bqf:_DSASignatureDeformatter_SetHashAlgorithm_m3186995552
QYh:_ReadOnlyCollection_1_System_Collections_Generic_ICollectionU3CTU3E_Clear_m2772202961_gshared
KJh:_UnicodeEncoding_GetString_m332467280
mJ:__ZNK8Animator17HasBoundPlayablesEv
IOd:_ResourceSet_ReadResources_m3663669011
dMh:_SynchronizationContext_SetSynchronizationContext_m1249070039
hUi:_List_1_AddEnumerable_m1267044261_gshared
iii:__Z99RuntimeInvoker_Void_t1185182177_RuntimeObject_Int32_t2950945753_SByte_t1669577662_SByte_t1669577662PFvvEPK10MethodInfoPvPS4_
MMj:__ZN6il2cpp2vm7Runtime9SetConfigEPKc
OLc:__ZN5Unity9rapidjson12PrettyWriterI16TempBufferWriterNS0_4UTF8IcEES4_13JSONAllocatorE10StartArrayEv
ura:__ZN9Scripting11UnityEngine16AndroidJNIHelper12CleanupProxyEv
ta:invoke_iiifiii
NHf:_RectTransform_INTERNAL_get_pivot_m2970933031
a9h:_UnityAction_1_Invoke_m927447181_gshared
c0j:__ZN6il2cpp2vm9Exception11FromNameMsgEPK11Il2CppImagePKcS6_S6_
dn:FUNCTION_TABLE_fiiifii
KI:__ZN10HumanTrait15InitializeClassEv
mfa:__Z14GetTimeManagerv
qvf:_Color32_op_Implicit_m213813866
qHf:_RectOffset_set_top_m713260669
Spd:__ZN19TransportJavaScript7CleanupEv
kpc:__Z12GUIDToStringRK9UnityGUIDPc
eca:__ZN15FileSystemEntry4LockE12FileLockModeP12FileAccessor
Mma:__ZN9Scripting11UnityEngine10Vector3Int12CleanupProxyEv
Jzk:_emscripten_glDrawArrays__wrapper
Ibj:_Parser__ctor_m3200411199
BSg:_Int32_Equals_m2976157357
Vsi:__Z110RuntimeInvoker_Int32_t2950945753_Int32_t2950945753_Int32_t2950945753_Int32U26_t1369213839_Int32U26_t1369213839PFvvEPK10MethodInfoPvPS4_
CQ:__ZN11AudioSource22UnmuteActiveVideoSinksEv
p5i:_TlsException__ctor_m3717683709
Ybk:__ZN4utf88internal20is_overlong_sequenceIiEEbjT_
HFj:__ZN6il2cpp2vm13MetadataCache8RegisterEPK22Il2CppCodeRegistrationPK26Il2CppMetadataRegistrationPK20Il2CppCodeGenOptions
Lmc:__Z41Register_UnityEngine_Cursor_get_lockStatev
ySj:__ZN14dense_hash_mapI10KeyWrapperIPK14Il2CppAssemblyEPK22Il2CppMonoAssemblyNameN6il2cpp5utils11PointerHashIS2_EENS4_14EqualsComparerINSt3__28equal_toIS3_EEEENSD_9allocatorINSD_4pairIKS4_S7_EEEEE13set_empty_keyERSJ_
nLa:__ZL20InitializeGUIShadersv
jQg:_Guid_CompareTo_m243656946
qxc:__Z20DestroyObjectDelayedP6Objectf
p1:__ZN20DynamicHeapAllocatorI17LowLevelAllocatorED0Ev
Hid:__ZL56__ManagedRegistrationHelperFunction_AnalyticsSessionInfoPv
fyc:__ZN11TimeManagerC2E10MemLabelId18ObjectCreationMode
s_b:__ZN9DepthPassD2Ev
tM:__ZN11AudioFilter6GetDSPEv
gbg:_RSACryptoServiceProvider_OnKeyGenerated_m863837376
lWf:_Scrollbar_OnDrag_m4289602768
p6:__ZN19RuntimeSceneManager14CanUnloadSceneEP10UnityScene
v_b:__Z22ExtractRenderNodeQueueRK11CullResults15ExtractionFlagsR15RenderNodeQueue
lP:__ZN24AudioScriptBufferManagerC2Ev
vTc:__ZN11UnityEngine9Analytics18SceneLoadTimeEvent12ToJsonStringER9JSONWrite
DYc:__ZNSt3__26vectorIh13stl_allocatorIhL18MemLabelIdentifier1ELi16EEE8__appendEj
f4e:_InternalEnumerator_1_System_Collections_IEnumerator_get_Current_m3854084659_AdjustorThunk
hMc:__ZN8JSONRead32GetValueForKeyWithNameConversionEPKN5Unity9rapidjson12GenericValueINS1_4UTF8IcEE13JSONAllocatorEEPKc
sWe:_U3CGetEnumeratorU3Ec__Iterator0_System_Collections_IEnumerator_get_Current_m283764921_gshared
bMg:_CultureInfo_get_IcuName_m2258611679
PMc:__Z18Transfer_BlittableI9JSONWriteLb0EfEvRK29SerializationCommandArgumentsR31RuntimeSerializationCommandInfo
WJa:__Z21GetAsyncUploadManagerv
Hj:_emscripten_glDetachShader
x_a:__ZN17GenericDynamicVBO20ReleaseChunkInternalERK21DynamicVBOChunkHandlejj
tad:__ZL27CleanupModule_TextRenderingv
lnk:_fmodl
_rh:_SymmetricTransform_OFB_m3842617151
LIb:__ZN19RuntimeSceneManager11CreateSceneEv
Vuf:_Color__ctor_m286683560
Haj:_PatternCompiler_Emit_m1540115729
s3c:_ps_get_standard_strings
R1b:__Z27SetupBakedOcclusionForLightbRK15SharedLightDataR17ShaderPassContext
oFf:_PropertyName_op_Implicit_m1633828199
Wjk:__ZN6il2cpp2os5Mutex6UnlockEv
qlg:_EncoderFallbackException__ctor_m1051987327
Vnh:_BigInteger_ToString_m3278248272
W7g:_Decimal_System_IConvertible_ToBoolean_m1123794670
_yi:__Z98RuntimeInvoker_Int32_t2950945753_RaycastResult_t3360306849_RaycastResult_t3360306849_RuntimeObjectPFvvEPK10MethodInfoPvPS4_
YSf:_Mask__ctor_m1269055150
J9d:__ZL99WaitHandle_t1743403487_CustomAttributesCacheGenerator_WaitHandle_t1743403487____Handle_PropertyInfoP21CustomAttributesCache
aqg:_WebRequest_AddPrefix_m3187775913
KXb:__Z18RenderImageFiltersR10RenderLoopb
bed:__Z43CanvasRenderer_Get_Custom_PropMaterialCountP12Il2CppObject
$1b:__ZNSt3__227__insertion_sort_incompleteIR23CompareReflectionProbesP31RuntimeReflectionProbeBlendInfoEEbT0_S5_T_
NQi:_List_1_Remove_m1457733883_gshared
D0g:_DateTime_IsLetter_m156019844
Qzb:__ZN18StreamedBinaryReadILb1EE21TransferSTLStyleArrayI13dynamic_arrayIdLj0EEEEvRT_17TransferMetaFlags
PKd:_MonoEventInfo_GetEventInfo_m873645389
$1f:_MD4Managed_Encode_m386285215
qca:__ZN10InputEventD2Ev
Dod:__ZN22UnityWebRequestManagerD2Ev
wgj:_Event_get_character_m1666742088
FHb:__Z20SetPlayerPauseDirect11PlayerPause
Smk:_isalpha
n0g:_Convert_ToChar_m1442101407
ftc:__ZZL31RegisterRectTransformPropertiesR22GenericPropertyBindingEN28Wrapper_RectTransformPivoty113SetFloatValueEPvf
o7g:_DateTimeOffset_get_Offset_m2040541042_AdjustorThunk
IKj:__ZN6il2cpp2vmL17IsSocketAsyncCallEP14Il2CppDelegate
IZg:_Slot_t3975888750_marshal_pinvoke_back
lck:__ZN6il2cpp2vm6String6NewLenEPKcj
yQf:_Selectable_get_image_m1928917691
oGb:__ZN17PersistentManager9AddStreamEv
$k:_time
zAd:_ContentSizeFitter_set_verticalFit_m1831566876
Edg:_TripleDESCryptoServiceProvider_CreateDecryptor_m740960117
dvi:__Z122RuntimeInvoker_Void_t1185182177_Color_t2555686324_Single_t1397266774_SByte_t1669577662_SByte_t1669577662_SByte_t1669577662PFvvEPK10MethodInfoPvPS4_
yAf:_Material_EnableKeyword_m329692301
g0c:_cf2_stack_free
Acg:_SHA512Managed_HashCore_m2377807474
ATg:_Int64_Parse_m3309897583
OMg:_CompareInfo_IndexOf_m667936183
Ex:__ZN7mecanim9animation19EvaluateFloatValuesEPKNS0_18ClipMuscleConstantEPKNS_18ValueArrayConstantEPKNS0_12ClipBindingsEPKNS0_10ClipOutputEPNS0_18AnimationNodeStateEfbb
VF:__ZN8Animator31ClearInternalControllerPlayableEv
RTb:__ZN26SinglePassStereoSupportExt18AfterSetViewMatrixEv
Ctf:_Bounds__ctor_m1937678907_AdjustorThunk
gJf:_SetupCoroutine_InvokeMember_m2661944898
FBh:_HashSet_1__ctor_m620629637_gshared
Lwa:__ZN10GameObject8TransferI24GenerateTypeTreeTransferEEvRT_
lOj:__ZN15dense_hashtableINSt3__24pairIK10KeyWrapperINS1_IPK9FieldInfoP11Il2CppClassEEEjEES9_17ReflectionMapHashIS8_EN14dense_hash_mapIS9_jSD_NS9_14EqualsComparerINS0_8equal_toIS8_EEEENS0_9allocatorISB_EEE9SelectKeyESI_SK_E4findERSA_
cIg:_SimpleEnumerator_MoveNext_m3113120129
KIb:__ZN13LoadOperationC2E10MemLabelId
zNf:_InputField_SendOnValueChanged_m2560301445
lYb:__ZN13RenderTexture19SetAutoGenerateMipsEb
mIa:__Z20GetTextureFormatInfo13TextureFormat
Ing:_TypeConverterAttribute_Equals_m1580461255
j3f:_RSAManaged_ToXmlString_m2369501989
sA:__ZN26AnimatorControllerPlayable8GetFloatEiRf
u8g:_Decimal_System_IConvertible_ToUInt64_m1323635232_AdjustorThunk
NUd:_LogicalCallContext__ctor_m1263247987
I5g:_DateTime_System_IConvertible_ToSingle_m2193708681_AdjustorThunk
MDb:__ZNK35ScriptingManagedObjectProxyRegistry11InitProxiesEv
xbd:__ZN2UI14CanvasRenderer13AwakeFromLoadE17AwakeFromLoadMode
hXd:__ZL64String_t_CustomAttributesCacheGenerator_String_Split_m3580120853P21CustomAttributesCache
mik:__ZN6il2cpp5utils10MemoryPool6MallocEj
KM:__ZN11SoundHandle8InstanceD2Ev
sOd:_ResourceEnumerator_Reset_m3754276504
Ufa:__ZN31CanvasBatchIntermediateRenderer13StaticDestroyEPv
COb:__ZNSt3__26__treeI17DeviceRasterState14MemoryCompLessIS1_ENS_9allocatorIS1_EEE25__emplace_unique_key_argsIS1_JS1_EEENS_4pairINS_15__tree_iteratorIS1_PNS_11__tree_nodeIS1_PvEEiEEbEERKT_DpOT0_
xza:__Z26scripting_method_get_class18ScriptingMethodPtr
vxk:_emscripten_glBindProgramARB__wrapper
EGi:_Array_InternalArray__set_Item_TisPlayerLoopSystem_t105772105_m93492520_gshared
Imc:__Z41Register_UnityEngine_CullingGroup_Disposev
cbj:_PatternCompiler_EmitRepeat_m697083858
XQa:__ZN7Cubemap23VirtualRedirectTransferER19StreamedBinaryWriteILb0EE
XMj:__ZN6il2cpp2vm7Runtime47RaiseExecutionEngineExceptionIfMethodIsNotFoundEPK10MethodInfoPK19Il2CppGenericMethod
wu:__Z14FindAvatarRootPKN7mecanim8skeleton8SkeletonEPKjR9Transformb
Meb:__ZN25MultiBlocksMemoryFileData5WriteEyyPKv
WNd:_ResourceReader_Read7BitEncodedInt_m3568166465
Oph:_BlockProcessor_Core_m2138791525
Hwj:_CanvasGroup_set_alpha_m4032573
eBg:_Array_get_LongLength_m978104875
vQb:__ZL17ProgramUniform2fvPK7ApiGLESjiihPKv
Ayk:b83
zYc:__ZN20TextRenderingPrivate8FontImpl21HasCharacterInTextureEjijfPj
gLf:_Transform_SetAsFirstSibling_m253439912
R5g:_DateTime_System_IConvertible_ToUInt16_m4182197229_AdjustorThunk
hwg:_Interval_get_IsDiscontiguous_m3016063288
_3i:_SslStreamBase_get_CheckCertRevocationStatus_m2739906607
mok:_htonl
YNb:__Z20GetBufferManagerGLESv
zyk:b82
zCb:__ZN18StreamedBinaryReadILb0EE21TransferSTLStyleArrayI31ArrayOfManagedObjectsTransfererEEvRT_17TransferMetaFlags
ola:__ZL60__ManagedRegistrationHelperFunction_FailedToLoadScriptObjectPv
$Pc:__Z18Transfer_BlittableI8JSONReadLb0EtEvRK29SerializationCommandArgumentsR31RuntimeSerializationCommandInfo
e7:__Z16GenerateTypeTreeRK6ObjectR8TypeTree24TransferInstructionFlags
GNg:_CultureInfo_CreateCulture_m1493441763
wdg:_TripleDES_IsWeakKey_m2147489852
eB:__ZN34AnimationStateMachineMixerPlayable13EndTransitionEv
DL:__ZN12AudioManager21FixMasterGroupRoutingEv
_Za:__ZNK19ShaderPropertySheet11HasPropertyERKN9ShaderLab16FastPropertyNameE
usk:dynCall_viffffii
Xxi:__Z81RuntimeInvoker_Boolean_t97287965_NavigationU26_t1807167253_Navigation_t3049316579PFvvEPK10MethodInfoPvPS4_
Azk:_emscripten_glUniform1fv__wrapper
Cab:__ZN2UI13RectTransform19SetAnchoredPositionERK8Vector2f
LFd:_GridLayoutGroup_SetLayoutHorizontal_m2838109254
RBd:_Dropdown_RefreshShownValue_m2806045241
Hob:__Z18Transfer_BlittableI14SafeBinaryReadLb1E4AABBEvRK29SerializationCommandArgumentsR31RuntimeSerializationCommandInfo
o7j:__ZN6il2cpp6icalls8mscorlib6System4Enum12get_hashcodeEP12Il2CppObject
mhk:_GC_set_no_dls
Uzd:_ColorBlock_set_normalColor_m254595671_AdjustorThunk
Olk:__ZN6il2cpp8metadata26Il2CppGenericMethodCompare6EqualsEPK19Il2CppGenericMethodS4_
_2e:_InternalEnumerator_1_get_Current_m1007906068_gshared
Hqa:__ZN9Scripting11UnityEngine7Color329InitProxyEv
dhd:__ZN11UnityEngine9Analytics15AnalyticsConfig12EventsConfig8TransferI8JSONReadEEvRT_
eIg:_SimpleEnumerator_Reset_m1520014659
US:__ZN9AudioClip7WWWOpenEPKciPjPPvS4_
yob:__Z18Transfer_BlittableI14SafeBinaryReadLb0E8Vector2fEvRK29SerializationCommandArgumentsR31RuntimeSerializationCommandInfo
T6f:_Context_set_ProtocolNegotiated_m2904861662
S2j:__ZN15dense_hashtableINSt3__24pairIK10KeyWrapperINS1_IPKcS4_EEEiEES6_24NamespaceAndNamePairHashN14dense_hash_mapIS6_iS9_NS6_14EqualsComparerI26NamespaceAndNamePairEqualsEENS0_9allocatorIS8_EEE9SelectKeyESD_SF_E12resize_deltaEjj
gtj:__ZL25UnresolvedVirtualCall_222P12Il2CppObjectfPK10MethodInfo
fjf:_RemotingServices_GetRemoteObject_m2117098022
Ywj:_CanvasRenderer_SetTexture_m1600559835
oUh:_Collection_1_System_Collections_IList_IndexOf_m4256072926_gshared
Frc:__Z53Register_UnityEngine_Input_INTERNAL_get_mousePositionv
QNb:__ZN7ApiGLES12DrawElementsE16GfxPrimitiveTypePKvjjjj
prh:_EncryptedPrivateKeyInfo_get_Salt_m3453455261
I0g:_DateTime__ParseNumber_m1240316250
ySc:__ZN8JSONRead21TransferSTLStyleArrayI13dynamic_arrayIfLj0EEEEvRT_17TransferMetaFlags
Wgg:_Single_System_IConvertible_ToSingle_m1939829239_AdjustorThunk
TC:__ZN11UnityEngine9Animation31SetHumanTransformPropertyValuesERKNS0_21AvatarBindingConstantERKN7mecanim8skeleton13SkeletonPoseTIN4math4trsXEEEby
R0:__GLOBAL__sub_I_Runtime_Utilities_6_cpp
o$e:_InternalEnumerator_1_get_Current_m3839250771_gshared
iNg:_CultureInfo_get_TextInfo_m2342840448
ed:_SDL_GetTicks
ugd:__ZN2UI14CanvasRenderer11SyncCullingENS0_8SyncFlagE
hQj:__ZN15dense_hashtableINSt3__24pairIK10KeyWrapperINS1_IPK11Il2CppImageP11Il2CppClassEEEjEES9_17ReflectionMapHashIS8_EN14dense_hash_mapIS9_jSD_NS9_14EqualsComparerINS0_8equal_toIS8_EEEENS0_9allocatorISB_EEE9SelectKeyESI_SK_E6insertERKSB_
pD:__ZN8Animator24SortJobsBasedOnHierarchyERK13dynamic_arrayINS_11AnimatorJobELj0EERS0_IS2_Lj0EE
uu:__Z16AppendPathToHashRKN7mecanim5crc32EPKc
W5b:__Z21CreateShadowCullerJobP30CreateUmbraShadowCullerJobData
x0h:_ReadOnlyCollection_1_System_Collections_Generic_ICollectionU3CTU3E_Remove_m4072504734_gshared
nQb:__ZL18ProgramUniform2uivPK7ApiGLESjiihPKv
Dyd:_U3COnFinishSubmitU3Ec__Iterator0_MoveNext_m2729496168
azk:_glUniform4iv__wrapper
E2b:__Z33GenerateShadowCasterPartsSortDataRK16ShadowCasterDatajRK15RenderNodeQueueRKNSt3__26vectorI20ShadowCasterPartData13stl_allocatorIS7_L18MemLabelIdentifier2ELi16EEEERK10Matrix4x4fRjP20ShadowCasterSortData
bWb:__ZZ23InitPlayerLoopCallbacksvEN51PostLateUpdateTriggerEndOfFrameCallbacksRegistrator7ForwardEv
$Nh:_TimeSpan_Compare_m753151303
Whb:__ZN9GfxDevice16DynamicBatchMeshERK10Matrix4x4fPKhjjPKtj26GfxTransformVerticesParams25GfxTransformVerticesFlagsj
Grb:__Z29Transfer_Blittable_ArrayFieldI14SafeBinaryRead9BoundsIntEvRT_R9ArrayInfoRK23StaticTransferFieldInfo
n$c:_cf2_computeDarkening
Kxj:_AnimationLayerMixerPlayable__ctor_m860721801_AdjustorThunk
gMd:_MonoPropertyInfo_get_property_info_m1599555644
_pf:_DESTransform_CipherFunct_m3527261721
Kek:_GC_expand_hp_inner
$4j:__ZNK15dense_hashtableI10KeyWrapperIP18Il2CppGenericClassES3_N6il2cpp8metadata22Il2CppGenericClassHashEN14dense_hash_setIS3_S6_NS3_14EqualsComparerINS5_25Il2CppGenericClassCompareEEENSt3__29allocatorIS3_EEE8IdentityESA_SD_E12test_deletedEj
YGc:__Z25Screen_Get_Custom_PropDpiv
Zxf:_UnityEventBase_RebuildPersistentCallsIfNeeded_m216788690
Nbk:__ZN4utf812find_invalidIPKcEET_S3_S3_
APf:_InputField_OnEndDrag_m4127187089
Y2h:_ReadOnlyCollection_1_System_Collections_IList_RemoveAt_m2555465054_gshared
u_d:__ZL72RuntimeCompatibilityAttribute_t1169614002_CustomAttributesCacheGeneratorP21CustomAttributesCache
L5b:__Z59ProcessShadowCasterNodeVisibilityAndCullWithoutUmbra_KernelILN17CullingParameters9LayerCullE2ELi8EEvR9IndexListRK22SceneCullingParametersPK9SceneNodePK4AABBjjPKN4math7_float4E
F9g:_StackFrame__ctor_m343464319
KZ:__ZN11UnityEngine15CloudWebService20WebRequestRestClient7PrepareEv
oLd:_MonoField_CheckGeneric_m453069507
mYc:__ZN20TextRenderingPrivate19NativeTextGenerator23FixLineHorizontalOffsetEiii
XQe:_CustomAttributeNamedArgument_ToString_m1488801416_AdjustorThunk
ACb:__Z19TransferField_ArrayI18StreamedBinaryReadILb0EE27Converter_UnityEngineObjectEvRK23StaticTransferFieldInfoR31RuntimeSerializationCommandInfoRT0_
Zlf:_ObjectReader_ReadArrayOfString_m3550800559
CKe:_MonoCustomAttrs_GetCustomAttributesInternal_m648304078
xC:__ZN7mecanim9animation19DestroyAnimationSetEPNS0_12AnimationSetERNS_6memory9AllocatorE
vpa:__ZN9Scripting11UnityEngine12Experimental9Rendering16CameraProperties9InitProxyEv
Wfb:__ZN16MemoryFileSystem4OpenER13FileEntryData14FilePermission16FileAutoBehavior
JMg:_CompareInfo_GetSortKey_m1915852346
M7c:_ft_var_load_avar
Ffa:__ZN13RuntimeStaticI13RendererSceneLb0EE13StaticDestroyEPv
z6e:_DefaultComparer_Compare_m1297750557_gshared
q5f:_CipherSuiteCollection_get_Item_m3790183696
Nub:__Z18Transfer_BlittableI24GenerateTypeTreeTransferLb1E12PropertyNameEvRK29SerializationCommandArgumentsR31RuntimeSerializationCommandInfo
jmj:_Toggle_OnEnable_m1421694809
p3a:__ZN14SafeBinaryRead21TransferSTLStyleArrayI10vector_mapIPKN5Unity4TypeE7Hash128NSt3__24lessIS5_EENS7_9allocatorINS7_4pairIS5_S6_EEEEEEEvRT_17TransferMetaFlags
TS:__ZN9AudioClip18GetQueuedAudioDataEPPvj
had:__ZN20TextRenderingPrivate21TextMeshGeneratorImpl14GarbageCollectEv
Zjc:__ZNK9Texture2D17CheckHasPixelDataEv
Bwb:__Z18Transfer_BlittableI19StreamedBinaryWriteILb0EELb0E9BoundsIntEvRK29SerializationCommandArgumentsR31RuntimeSerializationCommandInfo
c_b:__Z18SetShadowsKeywordsR17ShaderPassContext9LightType10ShadowType16ShadowProjectionbb
PEd:_Graphic_GetPixelAdjustedRect_m3729397999
ZTj:__ZN14dense_hash_mapI10KeyWrapperINSt3__24pairIPK12PropertyInfoP11Il2CppClassEEEj17ReflectionMapHashIS8_ENS9_14EqualsComparerINS1_8equal_toIS8_EEEENS1_9allocatorINS2_IKS9_jEEEEEC2EjRKSB_RKSF_
$uc:__ZN17CollisionMeshDataC2Ev
aif:_Dictionary_2_ToTValue_m692436965_gshared
JPd:_Marshal_Copy_m1222846562
zjc:__ZL24FindBelongingStructParamRPKcRNSt3__26vectorIN9ShaderLab20SerializedSubProgram14ConstantBufferENS2_9allocatorIS6_EEEE
T_g:_Stack_Resize_m3124769495
eWb:__ZZ23InitPlayerLoopCallbacksvEN47PostLateUpdateMemoryFrameMaintenanceRegistrator7ForwardEv
SNb:__ZN7ApiGLES20SetVertexArrayAttribEjj12VertexFormathjPKv
vfk:_GC_push_next_marked
P7a:__ZN18IDCollectorFunctor18GenerateInstanceIDEi17TransferMetaFlags
RLi:_GameObject_GetComponent_TisRuntimeObject_m2049753423_gshared
vvj:_TextGenerationSettings_Equals_m3618607189_AdjustorThunk
fng:_NameObjectCollectionBase_BaseAdd_m3437748750
sPh:_Type_internal_from_handle_m3156085815
rGj:__ZN15dense_hashtableINSt3__24pairIK10KeyWrapperIN6il2cpp5utils13dynamic_arrayIPK10Il2CppTypeLj4EEEEPFvvEEESA_NS3_8metadata19Il2CppSignatureHashEN14dense_hash_mapISA_SD_SG_NSA_14EqualsComparerINSF_22Il2CppSignatureCompareEEENS0_9allocatorISE_EEE9SelectKeyESK_SM_E12maybe_shrinkEv
E_h:_ReadOnlyCollection_1_System_Collections_Generic_ICollectionU3CTU3E_Add_m69722965_gshared
pG:__ZN8Animator8TransferI19StreamedBinaryWriteILb0EEEEvRT_
waa:__ZNSt3__27__sort4IRNS_6__lessI14ObjectLoadDataS2_EEPS2_EEjT0_S6_S6_S6_T_
JYb:__ZNK25CameraStackRenderingState16GetCurrentCameraEv
xna:__ZN9Scripting11UnityEngine9Rendering18GraphicsDeviceType9InitProxyEv
yzc:__Z22PlayableValidityChecksRK9HPlayableb
ure:__ZL57AnimationCurve_t3046754366_CustomAttributesCacheGeneratorP21CustomAttributesCache
M4a:__ZN15ResourceManagerD2Ev
Loc:__Z41Register_UnityEngine_Camera_GetAllCamerasv
nxf:_InvokableCall__ctor_m2158562079
rcj:_Assertion__ctor_m2128950829
Lmd:__ZN28PerformanceReportingSettings8TransferI14SafeBinaryReadEEvRT_
g9a:__ZN15CacheWriterBase18GetAddressOfMemoryEv
hQc:__Z18Transfer_BlittableI8JSONReadLb1E5RectTIiEEvRK29SerializationCommandArgumentsR31RuntimeSerializationCommandInfo
O_j:__ZN6il2cpp2vm22EmbeddedResourceRecordC2ERKS1_
uJb:__ZL20DrawVBOChunkWithPassP6ShaderPN9ShaderLab4PassER17ShaderPassContextR10DynamicVBORK21DynamicVBOChunkHandle
e$i:_Collection_1__ctor_m825528237_gshared
SQa:__ZN9Texture2D13AwakeFromLoadE17AwakeFromLoadMode
jJa:__ZN4core8hash_mapIPK17RenderSurfaceBaseP13RenderTexture19PointerHashFunctionIS3_ENSt3__28equal_toIS3_EEE6insertERKS3_RKS5_
Yeh:_SetPropertyUtility_SetStruct_TisColorBlock_t2139031574_m1748367426_gshared
NCf:_PlayerConnection_get_instance_m1750121257
u5j:__ZN6il2cpp2vm3RCW14QueryInterfaceILb0EEEP14Il2CppIUnknownP15Il2CppComObjectRK10Il2CppGuid
HJi:_Dictionary_2_Do_CopyTo_TisRuntimeObject_TisRuntimeObject_m2341992100_gshared
B8i:_X509Store_get_Certificates_m56224934
jha:__ZN6prcoreL17RemapGenericFloatI15TexFormatRFloat18TexFormatARGBFloatEEvPKNS_9InnerInfoE
Fki:__Z85RuntimeInvoker_Void_t1185182177_Int64_t3736567304_Int32_t2950945753_Int64_t3736567304PFvvEPK10MethodInfoPvPS4_
l4f:_CipherSuite__ctor_m2440635082
lbg:_RSAPKCS1KeyExchangeFormatter_SetRSAKey_m1477802943
ffg:_EvidenceEnumerator_get_Current_m1264365535
Pnd:__ZN11UnityEngine15PlatformWrapper20GetPlayerPrefsUInt64ERKN4core12basic_stringIcNS1_20StringStorageDefaultIcEEEEy
IPd:_Marshal_copy_from_unmanaged_m2834266824
Hsk:dynCall_iiiifii
e2b:__ZN20ReflectionProbeCacheC2ER13BatchRendererR15RenderLoopStats
JGf:_Rect_set_xMax_m1720695099_AdjustorThunk
sni:__Z59RuntimeInvoker_Int32_t2950945753_DateTimeOffset_t3229287507PFvvEPK10MethodInfoPvPS4_
hcb:__ZNK12HandlerChain6ExistsERK13FileEntryData
eWa:__ZN15SerializeTraitsI13dynamic_arrayI26EnlightenSystemInformationLj0EEE19ResizeSTLStyleArrayERS2_i
GLg:_Calendar__ctor_m106290643
WAc:__ZNSt3__26vectorIj13stl_allocatorIjL18MemLabelIdentifier1ELi16EEE6assignIPKjEENS_9enable_ifIXaasr21__is_forward_iteratorIT_EE5valuesr16is_constructibleIjNS_15iterator_traitsIS9_E9referenceEEE5valueEvE4typeES9_S9_
J1a:__ZN12InputManager23VirtualRedirectTransferER24GenerateTypeTreeTransfer
Mab:__ZN9Transform23VirtualRedirectTransferER24GenerateTypeTreeTransfer
wKc:__ZN12GUIClipState10BeginOnGUIER10InputEvent
Xoi:__Z87RuntimeInvoker_RuntimeObject_Byte_t1134296376_RuntimeObject_RuntimeObject_RuntimeObjectPFvvEPK10MethodInfoPvPS4_
W5f:_HandshakeMessage_Process_m810828609
h6c:_UNITY_tt_size_ready_bytecode
m2f:_MD5SHA1_CreateSignature_m3583449066
ZWc:__ZN13TextRendering4FontD2Ev
b_c:_UNITY_FT_Stream_Open
W6h:__ZN28GenericInterfaceFuncInvoker1Ib20UIVertex_t4057497605E6InvokeEPK10MethodInfoP12Il2CppObjectS0_
Qvb:__Z29Transfer_Blittable_ArrayFieldI24GenerateTypeTreeTransfer9BoundsIntEvRT_R9ArrayInfoRK23StaticTransferFieldInfo
vFd:_GraphicRegistry__cctor_m1805310505
Htf:_Bounds_Equals_m3920299735
JEa:__ZN8keywords18KeywordSetToStringERK16ShaderKeywordSetRN4core12basic_stringIcNS3_20StringStorageDefaultIcEEEE
hUe:_GenericTypeParameterBuilder_GetGenericArguments_m2988765390
rLb:__ZN13GfxDeviceGLES26UpdateViewProjectionMatrixEv
Pji:__Z77RuntimeInvoker_Void_t1185182177_Int64_t3736567304_ResourceInfoU26_t1611441338PFvvEPK10MethodInfoPvPS4_
sGh:_List_1_CheckCollection_m1717250693_gshared
Vzi:__Z53RuntimeInvoker_Int32_t2950945753_Keyframe_t4206410242PFvvEPK10MethodInfoPvPS4_
pL:__ZN4FMOD3DSP12setParameterEif
QGb:__ZN13MemoryManager16StaticInitializeEv
kNg:_CultureInfo_Equals_m1360976324
kf:___cxa_free_exception
One:__ZL69PersistentCall_t3407714124_CustomAttributesCacheGenerator_m_CallStateP21CustomAttributesCache
AN:__ZN4FMOD22FakeModChannelCallbackEPv
Fpa:__ZN9Scripting11UnityEngine12Experimental10PlayerLoop14PostLateUpdate9InitProxyEv
qf:_emscripten_glValidateProgram
DCa:__ZN4Mesh10CreateMeshEv
oR:__ZN4FMOD7SystemI11createSoundEPKcjP22FMOD_CREATESOUNDEXINFOPPNS_5SoundE
zLh:_NativeEventCalls_ResetEvent_internal_m885886540
r6g:_DateTime_CompareTo_m3889078633
Q$c:_cf2_stack_clear
KMe:_NumberFormatter_set_CurrentCulture_m1358228087
i1j:__ZN6il2cpp6icalls8mscorlib6System4Type27get_IsGenericTypeDefinitionEP20Il2CppReflectionType
c8b:__ZN7Texture13SetAnisoLevelEi
XX:__ZNSt3__26__treeINS_12__value_typeIN4core12basic_stringIcNS2_20StringStorageDefaultIcEEEEjEENS_19__map_value_compareIS6_S7_NS_4lessIS6_EELb1EEE13stl_allocatorIS7_L18MemLabelIdentifier88ELi16EEE7destroyEPNS_11__tree_nodeIS7_PvEE
Flb:__ZN19EndOfFrameCallbacks7EnqueueEP18EndOfFrameCallbackb
Rzf:_Input_set_compositionCursorPos_m1909373301
FWa:__ZN15SerializeTraitsI13dynamic_arrayI31EnlightenSystemAtlasInformationLj0EEE8TransferI19StreamedBinaryWriteILb0EEEEvRS2_RT_
jTc:__ZN27PerformanceReportingManager23VirtualRedirectTransferER24GenerateTypeTreeTransfer
KZc:_raccess_guess_vfat
Eli:__Z78RuntimeInvoker_IntPtr_t_SByte_t1669577662_RuntimeObject_BooleanU26_t4125257963PFvvEPK10MethodInfoPvPS4_
hdd:__Z44Canvas_CUSTOM_GetETC1SupportedCanvasMaterialv
bIa:__ZN11HaloManager10UpdateHaloEiR9Transform11ColorRGBA32fjP6Object
V8g:_Decimal_decimalSetExponent_m3707787243
S3:__ZN33InstancedMeshIntermediateRenderer13StaticDestroyEPv
Zld:__ZN28UnityConnectScriptingClasses35RemoteSettingsBeforeFetchFromServerEP21ScriptingExceptionPtr
S1j:__ZN14dense_hash_mapI10KeyWrapperIP14Il2CppIUnknownEjN6il2cpp5utils11PointerHashIS1_EENS3_14EqualsComparerINSt3__28equal_toIS2_EEEENS9_9allocatorINS9_4pairIKS3_jEEEEE13set_empty_keyERSF_
Glb:__ZN15dense_hashtableINSt3__24pairIK9TextureIDiEES2_14GfxGenericHashIS2_EN14GfxDoubleCacheIS2_iS6_NS0_8equal_toIS2_EEN31GfxDoubleCacheConcurrencyPolicy11LocklessGetE42GfxDoubleCacheDefaultEmptyDeletedGeneratorIS2_EE9SelectKeyES9_13stl_allocatorIS4_L18MemLabelIdentifier24ELi16EEE12resize_deltaEjj
AAa:__Z21DestroyShadowMapCacheP14ShadowMapCache
Oz:__ZN7mecanim9animation25CreateControllerWorkspaceEPKNS0_18ControllerConstantERNS_6memory9AllocatorE
dLi:_Array_InternalArray__get_Item_TisLabelFixup_t858502054_m3276643490_gshared
e9b:__Z20RequiredComponentsOf17ScriptingClassPtr
Q0j:__ZN6il2cpp2vm13LivenessState5ResetEv
pMc:__ZN9JSONWrite8TransferI11KeyframeTplIfEEEvRT_PKc17TransferMetaFlags
N7b:__ZN22RenderingCommandBuffer23CleanupTemporaryRTArrayER13dynamic_arrayINSt3__24pairIN9ShaderLab16FastPropertyNameEP13RenderTextureEELj0EE
p_g:_SortedList_GetImpl_m3689246167
d_h:_ReadOnlyCollection_1_System_Collections_Generic_IListU3CTU3E_set_Item_m3209059215_gshared
Xkb:__ZN24BuiltinShaderParamValuesC2Ev
N6i:_PKCS12_Decode_m163534693
FMc:__ZL41CreateJSONTransferFunctionScriptingTraitsv
aec:__ZN6Shader23VirtualRedirectTransferER14SafeBinaryRead
cPf:_InputField_SendOnSubmit_m3463846103
_Mf:_WaitForSecondsRealtime_get_keepWaiting_m846832224
cFb:__Z23GetLateBehaviourManagerv
Cii:__Z33RuntimeInvoker_Single_t1397266774PFvvEPK10MethodInfoPvPS4_
Mqb:__ZN14SafeBinaryRead21TransferSTLStyleArrayINSt3__26vectorI8Gradient13stl_allocatorIS3_L18MemLabelIdentifier1ELi16EEEEEEvRT_17TransferMetaFlags
U8:__ZN10MemoryPool10DeallocateEPv
Jsi:__Z80RuntimeInvoker_Void_t1185182177_ScriptableRenderContext_t274343796_RuntimeObjectPFvvEPK10MethodInfoPvPS4_
slb:__ZN14GfxDeviceStats10ResetFrameEv
Kra:__ZN9Scripting5Unity11Collections8LowLevel6Unsafe43NativeSetClassTypeToNullOnScheduleAttribute12CleanupProxyEv
ksk:dynCall_vif
f6a:__ZN18LoadSceneOperation22CompleteLoadFirstSceneEv
A3g:_Convert_ToSByte_m4075629912
nsk:dynCall_vii
Nqh:_KeyPairPersistence_FromXml_m746585742
Fkg:_Decoder__ctor_m4046021500
oCb:__Z18Transfer_BlittableI18StreamedBinaryReadILb0EELb0EdEvRK29SerializationCommandArgumentsR31RuntimeSerializationCommandInfo
Eyd:_ColorBlock_get_fadeDuration_m121071467
BLj:__ZN6il2cpp6icalls8mscorlib6System8MonoType18GetFields_internalEP20Il2CppReflectionTypeiS5_
fsa:__ZN5Unity9Component16CheckConsistencyEv
ZLd:_MonoMethod_get_ContainsGenericParameters_m3860345224
cCa:__ZN19ShaderPropertySheet37CreateTextureAuxPropertyUninitializedEN9ShaderLab16FastPropertyNameES1_PKc
dxb:__ZL26Transfer_SimpleNativeClassI19StreamedBinaryWriteILb0EE10RectOffsetLb1EEvRK29SerializationCommandArgumentsR31RuntimeSerializationCommandInfo
TOj:__ZN15dense_hashtableINSt3__24pairIK10KeyWrapperIPK10Il2CppTypeEjEES6_N6il2cpp8metadata14Il2CppTypeHashEN14dense_hash_mapIS6_jSB_NS6_14EqualsComparerINSA_26Il2CppTypeEqualityComparerEEENS0_9allocatorIS8_EEE9SelectKeyESF_SH_E3endEv
MMb:__ZN13GfxDeviceGLES17SetGpuProgramNameEP10GpuProgramPKc
XZ:__ZNK11UnityEngine15CloudWebService25WebRequestDownloadHandler11GetProgressEv
Jug:_CategoryUtils_CategoryFromName_m1352081402
jjh:_Array_InternalArray__ICollection_Add_TisMonoResource_t4103430009_m2699164149_gshared
PIj:__ZN6il2cpp2vm13MetadataCache28GetMethodDefinitionFromIndexEi
Hak:__ZN6il2cpp2os20FileErrnoToErrorCodeEi
AMa:__ZN14SafeBinaryRead19TransferSTLStyleMapINSt3__23mapI39DeprecatedFastPropertyNameSerialization10ColorRGBAfNS1_4lessIS3_EENS1_9allocatorINS1_4pairIKS3_S4_EEEEEEEEvRT_17TransferMetaFlags
B1g:_Decimal_ThrowAtPos_m1170269346
$g:_atexit
SYf:_Selectable_set_image_m3625164794
s3e:_InternalEnumerator_1_get_Current_m1232221964_gshared
g2h:_ReadOnlyCollection_1_System_Collections_Generic_IListU3CTU3E_Insert_m1818924748_gshared
$Rj:__ZN6il2cpp2vmL31GetObjectForMissingDefaultValueEj
$G:__ZNK26AnimatorOverrideController13GetBehavioursEv
Zxd:_AspectRatioFitter__ctor_m2468506840
fNb:__ZN13GfxDeviceGLES22UpdateComputeResourcesERK22ComputeShaderResources
Xjd:__ZN11UnityEngine15PlatformWrapper30GetVRPlayAreaBoundaryDimensionEv
VHi:_Array_Sort_TisBoolean_t97287965_TisBoolean_t97287965_m2753381653_gshared
M7i:_X509Certificate_get_Hash_m410033711
Bgc:__ZN9ShaderLab14SerializedPassC2ERKS0_
OMc:__Z35Transfer_Blittable_FixedBufferFieldI9JSONWritehEvRK29SerializationCommandArgumentsR31RuntimeSerializationCommandInfo
l:STACKTOP
fme:__ZL48Random_t635017412_CustomAttributesCacheGeneratorP21CustomAttributesCache
Q1c:_cff_get_name_index
_Va:__ZN21EnlightenSceneMapping16BuildRemapTablesEv
wja:__ZN6prcoreL12RemapGenericI13TexFormatRG8817TexFormatARGB8888EEvPKNS_9InnerInfoE
Xaa:__ZN17TransformInternal27UpdateDeepChildCountUpwardsER18TransformHierarchyii
Cgg:_Single_System_IConvertible_ToBoolean_m1716619219_AdjustorThunk
fAc:__ZN16StreamedResource8TransferI14SafeBinaryReadEEvRT_
Yie:__ZL52Matrix4x4_t1817901843_CustomAttributesCacheGeneratorP21CustomAttributesCache
GBd:_Image_set_type_m2038193736
A:tempBigIntD
z7b:__ZNK25CameraStackRenderingState25CalculateCameraTargetTypeEv
wHd:_PropertyBuilder_GetSetMethod_m128670376
y:tempBigIntR
x:tempBigIntS
w:tempBigIntP
pn:FUNCTION_TABLE_viffi
Aaa:__ZN6Object18RegisterInstanceIDEPS_
sub:__Z18Transfer_BlittableI24GenerateTypeTreeTransferLb1EsEvRK29SerializationCommandArgumentsR31RuntimeSerializationCommandInfo
L6j:__ZN15dense_hashtableINSt3__24pairIK10KeyWrapperIP12Il2CppObjectEN6il2cpp2gc9CachedCCWEEES5_NS7_5utils11PointerHashIS3_EEN14dense_hash_mapIS5_S9_SD_NS5_14EqualsComparerINS0_8equal_toIS4_EEEENS0_9allocatorISA_EEE9SelectKeyESI_SK_E11set_deletedER30dense_hashtable_const_iteratorISA_S5_SD_SM_SI_SK_E
whb:__ZNK9GfxDevice18GetWorldViewMatrixEv
lwi:__Z70RuntimeInvoker_Single_t1397266774_Single_t1397266774_Int32_t2950945753PFvvEPK10MethodInfoPvPS4_
Wdg:_X509Certificate_GetPublicKey_m4184729161
Zwc:__ZZL31RegisterOtherRendererPropertiesR22GenericPropertyBindingEN28Wrapper_RendererSortingOrder13SetFloatValueEPvf
e4g:_Convert_ToUInt16_m3902921832
sPe:_Assembly_GetTypes_m1724781913
G1d:__ZL54TypeBuilder_t1073948154_CustomAttributesCacheGeneratorP21CustomAttributesCache
rKh:_UTF7Encoding_GetByteCount_m3616172568
Uyg:_SmallXmlParser_ReadComment_m1578426707
aHh:_List_1_AddEnumerable_m376418521_gshared
api:__Z79RuntimeInvoker_Void_t1185182177_Byte_t1134296376_Byte_t1134296376_RuntimeObjectPFvvEPK10MethodInfoPvPS4_
WFj:__ZNSt3__218__insertion_sort_3IRN6il2cpp5utils11collections13ArrayValueMapIPK10Il2CppType17Il2CppInteropData26InteropDataToTypeConverterNS1_8metadata14Il2CppTypeLessENSA_26Il2CppTypeEqualityComparerEE12SortComparerEPS8_EEvT0_SH_T_
Ahb:__ZNK9GfxDevice25GetDeviceProjectionMatrixEv
Hgc:__ZNSt3__26__treeINS_12__value_typeI11ShaderTagIDS2_EENS_19__map_value_compareIS2_S3_NS_4lessIS2_EELb1EEENS_9allocatorIS3_EEE14__assign_multiINS_21__tree_const_iteratorIS3_PNS_11__tree_nodeIS3_PvEEiEEEEvT_SI_
ma:invoke_iidiii
yub:__Z18Transfer_BlittableI24GenerateTypeTreeTransferLb1EtEvRK29SerializationCommandArgumentsR31RuntimeSerializationCommandInfo
VT:__ZN12AudioManager33GetCurrentAmbisonicDefinitionNameE31UnityAudioEffectDefinitionFlags
tCc:__ZN11UTF16StringC2EPKc10MemLabelId
OBc:__ZN10systeminfo24GetRuntimePlatformStringEv
PVg:_MonoIO_DeleteFile_m3839141322
Zta:__ZN10SpookyHash5ShortEPKvjPyS2_
_ad:__ZN9Scripting11UnityEngine6Canvas12CleanupProxyEv
i4:__ZN13RuntimeStaticI13ModuleManagerLb0EE13StaticDestroyEPv
g9j:__ZN6il2cpp6icalls8mscorlib6System6String22RedirectToCreateStringEv
t1d:__ZL99ILGenerator_t1388622344_CustomAttributesCacheGenerator_ILGenerator_Mono_GetCurrentOffset_m993338688P21CustomAttributesCache
lSf:_LayoutRebuilder_ReapplyDrivenProperties_m2581469389
HCc:__ZN9Scripting20CreateUnityExceptionEPKcz
nCa:__ZN9ShaderLab6TexEnvC2ERKNS_25SerializedTexturePropertyE
$Pf:_InputField_Append_m687033660
hxa:__ZN9Transform32SetLocalScaleWithoutNotificationERKN4math7_float3Ey
zLa:__ZN19ShaderPropertySheet38CopyTextureWithAuxiliaryPropertiesFromERKN9ShaderLab16FastPropertyNameERKS_
kYc:__ZN20TextRenderingPrivate19NativeTextGeneratorD2Ev
sKj:__ZN6il2cpp2vm19SocketPollingThread14DequeueRequestEv
Q8j:__ZL10RevealLinkPv
j5g:_DateTime__ctor_m12900168_AdjustorThunk
K6b:__ZN27IntermediateRendererManager24AddIntermediateRenderersEP21IntermediateRenderersi
F6f:_ClientSessionCache_FromContext_m343076119
Fi:___cxa_end_catch
qdg:_ToBase64Transform_TransformBlock_m2497349397
wng:_NameValueCollection_Add_m2418530856
hWd:_ReturnMessage_get_MethodSignature_m399735125
qdd:__Z43Register_UnityEngine_Canvas_set_scaleFactorv
Bmh:_SortKeyBuffer_AppendLevel5_m3963841125
zej:_PositionAssertion_Compile_m2500980346
JHg:_ArrayListWrapper_ToArray_m3192696690
LZc:_raccess_guess_linux_cap
qU:__Z36AudioSource_Get_Custom_PropIsPlayingP12Il2CppObject
FHc:__ZL48__ManagedRegistrationHelperFunction_StylePainterPv
WCg:_Attribute_GetCustomAttribute_m4034845276
Y4:__Z33InitializeBuiltinShaderParamNamesv
TPh:_Type_GetConstructor_m2219014380
Bzd:_CanvasUpdateRegistry_SortLayoutList_m471948466
Hsa:__ZNK16TypeTreeIterator4TypeEv
NUb:__ZN10FileSystem25MountDataFolderFileSystemERKN4core12basic_stringIcNS0_20StringStorageDefaultIcEEEES6_
Ywg:_ArgumentOutOfRangeException__ctor_m282481429
Ygj:_GUILayoutUtility_Internal_MoveWindow_m3463958180
oj:_glGetUniformLocation
aMb:__ZN13GfxDeviceGLES32CreateColorRenderSurfacePlatformEP17RenderSurfaceBase19RenderTextureFormat
OXb:__ZN22RenderingCommandBuffer20ExecuteCommandBufferER17ShaderPassContextR15RenderNodeQueuejP13dynamic_arrayINSt3__24pairIN9ShaderLab16FastPropertyNameEP13RenderTextureEELj0EE16ComputeQueueTypeSA_
KS:__ZN12AudioManager24CreateFMODSoundFromMovieEP9AudioClip
K4f:_CipherSuite_createEncryptionCipher_m2533565116
MUc:__ZN19ControllerHitReport10onShapeHitERKN5physx20PxControllerShapeHitE
OHj:__ZN6il2cpp2vm13MetadataCache24GetGenericInstanceMethodEPK10MethodInfoPK20Il2CppGenericContext
Uek:_GC_hblk_fl_from_blocks
eLd:_MonoField_GetParentType_m2478933781
Q9:__Z24ConvertSeparatorsToUnityPc
rRj:__ZN6il2cpp2gc19AppendOnlyGCHashMapINSt3__24pairIPK9EventInfoP11Il2CppClassEEP21Il2CppReflectionEvent17ReflectionMapHashIS9_ENS2_8equal_toIS9_EEE3AddERKS9_SB_
eZi:_Collection_1_System_Collections_ICollection_CopyTo_m46221116_gshared
SXj:__ZN6il2cpp2vm6Thread20FreeThreadStaticDataEP12Il2CppThread
uhh:_Array_InternalArray__IndexOf_TisClientCertificateType_t1004704908_m3457772631_gshared
Bci:__Z28RuntimeInvoker_RuntimeObjectPFvvEPK10MethodInfoPvPS4_
e0c:_cf2_glyphpath_finalize
J7d:__ZL56SecurityAction_t569814076_CustomAttributesCacheGeneratorP21CustomAttributesCache
_Yb:__Z20LookRotationToMatrixRK8Vector3fS1_P10Matrix3x3f
lHg:_ArrayListWrapper_set_Capacity_m2373297383
uPf:_Text_get_cachedTextGenerator_m2506989875
RCh:_Enumerator_System_Collections_IEnumerator_Reset_m502339360_AdjustorThunk
p$d:__ZL58DictionaryEntry_t3123975638_CustomAttributesCacheGeneratorP21CustomAttributesCache
Mvj:_TextGenerator_GetVerticesInternal_m3222977969
HSi:_List_1_RemoveAt_m4279084788_gshared
QZc:_UNITY_FT_Stream_Free
e_j:__ZN15dense_hashtableINSt3__24pairIK10KeyWrapperINS1_IP11Il2CppClassjEEES4_EES6_N6il2cpp8metadata14ArrayClassHashEN14dense_hash_mapIS6_S4_SB_NS6_14EqualsComparerINSA_17ArrayClassCompareEEENS0_9allocatorIS8_EEE9SelectKeyESF_SH_E12maybe_shrinkEv
GLc:__ZNK5Unity9rapidjson12GenericValueINS0_4UTF8IcEE13JSONAllocatorE6AcceptINS0_12PrettyWriterI16TempBufferWriterS3_S3_S4_EEEEbRT_
vpf:_CryptoConfig_EncodeLongNumber_m4127306320
fvi:__Z87RuntimeInvoker_Void_t1185182177_Single_t1397266774_Single_t1397266774_SByte_t1669577662PFvvEPK10MethodInfoPvPS4_
nye:__ZL63AnalyticsSessionInfo_t2322308579_CustomAttributesCacheGeneratorP21CustomAttributesCache
Hqd:__ZL47__ManagedRegistrationHelperFunction_VideoPlayerPv
dY:__ZN11UnityEngine15CloudWebService14DataDispatcher25OnDataBlockConsumedStaticEPv
GRi:_List_1_CheckIndex_m3044940639_gshared
cNf:_GenericStack__ctor_m933681517
LAb:__Z29Transfer_Blittable_ArrayFieldI18StreamedBinaryReadILb1EE11QuaternionfEvRT_R9ArrayInfoRK23StaticTransferFieldInfo
VJe:_Math_Max_m482125436
c_g:_SortedList_InitTable_m875730861
gQd:_ActivatedServiceTypeEntry_ToString_m1591455874
nfg:_SecurityElement_ToXml_m3664345083
jFi:_Array_InternalArray__Insert_TisParameterModifier_t1461694466_m3664994573_gshared
dwh:_DefaultComparer_Equals_m1870794912_gshared
gfc:__Z14resize_trimmedINSt3__26vectorIN9ShaderLab20SerializedSubProgram16SamplerParameterENS0_9allocatorIS4_EEEEEvRT_j
cZf:_Shadow_set_effectColor_m3910676693
Epk:__ZNSt3__212basic_stringIcNS_11char_traitsIcEENS_9allocatorIcEEE6insertEjPKcj
HMc:__Z44InitializeTransferFunctionScriptingTraitsForI8JSONReadEvR31TransferFunctionScriptingTraits
PJb:__ZNSt3__27__sort4IRNS_4lessIN22BuiltinResourceManager8ResourceEEEPS3_EEjT0_S7_S7_S7_T_
Nmg:_ListDictionary_Add_m3918308031
A6j:__ZNK15dense_hashtableINSt3__24pairIK10KeyWrapperIP12Il2CppObjectEN6il2cpp2gc9CachedCCWEEES5_NS7_5utils11PointerHashIS3_EEN14dense_hash_mapIS5_S9_SD_NS5_14EqualsComparerINS0_8equal_toIS4_EEEENS0_9allocatorISA_EEE9SelectKeyESI_SK_E23find_position_with_hashERS6_j
bPf:_Selectable_OnDisable_m3225138518
P5a:__ZN17PersistentManager34ExtractTimeSliceAwakeFromLoadQueueER27TimeSliceAwakeFromLoadQueueNS_9LockFlagsE
c7c:_UNITY_tt_face_get_location
Pjj:_AesManaged_CreateEncryptor_m1611897367
sXg:_DelegatePInvokeWrapper_WriteDelegate_t4270993571
X8b:__ZN10GameObject34AddFirstTransformComponentInternalEP9Transform
Kmc:__Z31Cursor_Get_Custom_PropLockStatev
V2:__ZNSt3__26__treeINS_12__value_typeINS_4pairIPcS3_EENS_3setIS3_15compare_tstringIPKcENS_9allocatorIS3_EEEEEENS_19__map_value_compareIS4_SD_20smaller_tstring_pairIS8_ELb1EEENSA_ISD_EEE7destroyEPNS_11__tree_nodeISD_PvEE
yR:__ZN12AudioManager29GetCurrentAmbisonicDefinitionE31UnityAudioEffectDefinitionFlags
Gnc:__Z52Register_UnityEngine_GameObject_GetComponentInParentv
uoa:__ZN9Scripting11UnityEngine16ScriptableObject12CleanupProxyEv
A3a:__ZN15SerializeTraitsINSt3__24pairIPKN5Unity4TypeE7Hash128EEE8TransferI14SafeBinaryReadEEvRS7_RT_
pek:_GC_number_stack_black_listed
Z8g:_Decimal_ToString_m4018746482_AdjustorThunk
V5b:__Z37GenerateCombinedDynamicVisibleListJobP11CullResults
UYa:__ZNK13ScreenManager21GetCursorInsideWindowEv
HQe:_CustomAttributeData_GetCustomAttributes_m1033457578
RPd:_SafeHandle_DangerousAddRef_m614714386
D2b:__Z20IntersectAABBFrustumRK4AABBPK5Planej
WXf:_ScrollRect_OnDrag_m688583138
Qtc:__ZN13RenderManager15InitializeClassEv
_ni:__Z74RuntimeInvoker_RuntimeObject_RuntimeObject_Double_t594665363_RuntimeObjectPFvvEPK10MethodInfoPvPS4_
grb:__ZN15SerializeTraitsI12PropertyNameE8TransferI14SafeBinaryReadEEvRS0_RT_
WXh:_ReadOnlyCollection_1_System_Collections_IList_IndexOf_m3120991897_gshared
DUd:_Header__ctor_m1921907550
YZf:_Slider_FindSelectableOnUp_m4062600878
SJe:_Math_Ceiling_m625148210
wtc:__ZZN9Transform15InitializeClassEvEN31FunctorImpl_114kDidAddComponent4CallEPviR11MessageData
POc:__ZN9JSONWrite8TransferI11ColorRGBA32EEvRT_PKc17TransferMetaFlags
vRc:__Z22TransferField_NonArrayI8JSONRead27Converter_SimpleNativeClassI8GradientEEvRK23StaticTransferFieldInfoR31RuntimeSerializationCommandInfoRT0_
gEb:__ZN10MonoScript13AwakeFromLoadE17AwakeFromLoadMode
ewg:_Interval__ctor_m4022869013
PDg:_Boolean_System_IConvertible_ToUInt16_m3465173538
dVb:__ZN10MemoryFile21CreateFileSystemEntryE10MemLabelId14FilePermissionPvjb
NSb:__ZNK18GfxFramebufferGLES15DiscardContentsER12ObjectHandleI17RenderSurface_TagP17RenderSurfaceBaseE
o1f:_ARC4Managed_KeySetup_m2449315676
TOc:__ZN9JSONWrite8TransferI13dynamic_arrayI5RectTIiELj0EEEEvRT_PKc17TransferMetaFlags
JIj:__ZN6il2cpp2vm13MetadataCache27GetEventDefinitionFromIndexEi
Z$h:_ReadOnlyCollection_1_System_Collections_IEnumerable_GetEnumerator_m2762559519_gshared
ila:__ZL63__ManagedRegistrationHelperFunction_ScriptableCullingParametersPv
F4g:_Convert_ToUInt64_m92315402
VNc:__Z18Transfer_BlittableI9JSONWriteLb1EdEvRK29SerializationCommandArgumentsR31RuntimeSerializationCommandInfo
Kwk:_glGetIntegerv__wrapper
hlg:_EncoderExceptionFallback__ctor_m3745979420
H:Math_pow
rta:__ZN10GameObject28FinalizeAddComponentInternalEPN5Unity9ComponentE
rCe:__ZL57Image_t2670269651_CustomAttributesCacheGenerator_m_SpriteP21CustomAttributesCache
OSa:__ZN9Texture2DD2Ev
eoj:_AudioExtensionManager_GetReadyToPlay_m1557263244
O3g:_Convert_ToSingle_m164367433
eLi:_Array_InternalArray__get_Item_TisILTokenInfo_t2325775114_m3110830457_gshared
N1g:_Convert_ToDecimal_m1284410333
F6g:_DateTime_CheckStyle_m1392838900
Wyg:_SmallXmlParser_ReadUntil_m2715581630
Vmg:_NameObjectCollectionBase__ctor_m2090733912
Xug:_Group__cctor_m2230627219
lna:__ZN9Scripting11UnityEngine15SendMouseEvents9InitProxyEv
Jch:_Array_InternalArray__ICollection_Contains_TisDouble_t594665363_m1696010878_gshared
m$f:_BigInteger__cctor_m102257529
Eda:__ZN27IntermediateRendererManagerD2Ev
V7a:__ZN17PersistentManager27GetLoadErrorMessageFromPathERKN4core12basic_stringIcNS0_20StringStorageDefaultIcEEEE
D6i:_NetscapeCertTypeExtension_ToString_m1800688476
dm:_glGenRenderbuffers
q$j:__ZN6il2cpp6icalls8mscorlib6System2IO6MonoIO19GetCurrentDirectoryEPi
sIf:_Renderer_get_sortingOrder_m344607889
t3b:__Z21IntersectSegmentPlaneRK8Vector3fS1_RK5PlanePS_
nra:__ZN9Scripting11UnityEngine24AssemblyIsEditorAssembly9InitProxyEv
DGe:__ZL50Outline_t2536100125_CustomAttributesCacheGeneratorP21CustomAttributesCache
KCe:__ZL75InputField_t3762917431_CustomAttributesCacheGenerator_m_CharacterValidationP21CustomAttributesCache
Dfj:_Uri_get_IsFile_m2450018824
$ba:__ZN14CachingManager7DisposeEv
hqa:__ZN9Scripting11UnityEngine8EnumInfo9InitProxyEv
dR:__ZN12AudioManager31GetCurrentSpatializerDefinitionEv
smg:_HybridDictionary_Add_m912320053
gCf:_MonoBehaviour_Invoke_m4227543964
L_a:__ZN12MeshRenderer16UpdateCachedMeshEv
Zij:_KeyBuilder_IV_m3340234014
Lqb:__Z19TransferField_ArrayI14SafeBinaryRead27Converter_SimpleNativeClassI8GradientEEvRK23StaticTransferFieldInfoR31RuntimeSerializationCommandInfoRT0_
svh:_DefaultComparer_Equals_m1163494476_gshared
h3i:_RIPEMD160Managed_GG_m3020389474
Ddh:_Array_InternalArray__ICollection_Remove_TisDictionaryEntry_t3123975638_m3699186409_gshared
BOe:_Object_Equals_m1397037629
lB:__ZNK27StateMachineBehaviourPlayer25FireStateMachineBehaviourEiiN7mecanim12statemachine19StateMachineMessageE
etf:_AsyncOperation_t1445031843_marshal_pinvoke_back
Ck:_emscripten_glGenVertexArrays
kGf:_Rect_get_center_m138276653
w8b:__ZN6Camera15SetOrthographicEb
H1c:_UNITY_FT_Stream_GetUShort
wLb:__ZN13GfxDeviceGLES14DisableScissorEv
EYc:__ZNSt3__26vectorIN20TextRenderingPrivate8FontImpl7IntRectE13stl_allocatorIS3_L18MemLabelIdentifier35ELi16EEE21__push_back_slow_pathIRKS3_EEvOT_
Otf:_Bounds_get_size_m1178783246_AdjustorThunk
$hi:__Z64RuntimeInvoker_Double_t594665363_RuntimeObject_Int32_t2950945753PFvvEPK10MethodInfoPvPS4_
nZe:_InternalEnumerator_1_System_Collections_IEnumerator_get_Current_m2141782011_AdjustorThunk
J8g:_Decimal_decimalMult_m3812462972
g9f:_RecordProtocol_BeginSendRecord_m615249746
zc:_glVertexAttrib4f
EFh:_Enumerator_System_Collections_IEnumerator_get_Current_m209407522_AdjustorThunk
Hwf:_Display_get_systemHeight_m730809466
LHh:_List_1_System_Collections_IList_Insert_m4074493513_gshared
CBf:_Mesh_get_vertices_m3585684815
lhd:__ZN21UnityAnalyticsManagerD0Ev
zfj:_Uri_GetOpaqueWiseSchemeDelimiter_m1909471550
Tfk:_GC_set_hdr_marks
gDa:__Z17SetupObjectMatrixRK10Matrix4x4fi
lth:_Dictionary_2_OnDeserialization_m1254782141_gshared
Y2:__ZN13RuntimeStaticINSt3__23mapINS0_4pairIPcS3_EEPFbPvR14SafeBinaryReadE20smaller_tstring_pairIPKcENS0_9allocatorINS2_IKS4_S9_EEEEEELb0EE13StaticDestroyES5_
vWg:_FileStream_FlushBufferIfDirty_m4249802951
Z6e:_DefaultComparer_Compare_m1916473435_gshared
tw:__ZN7mecanim9animation16CreateClipMemoryEPKNS0_4ClipEiRNS_6memory9AllocatorE
lZc:_open_face
H4a:__ZN30RuntimeInitializeOnLoadManager15ClassMethodInfo8TransferI19StreamedBinaryWriteILb0EEEEvRT_
Xwc:__ZZL31RegisterOtherRendererPropertiesR22GenericPropertyBindingEN30Wrapper_RendererReceiveShadows13SetFloatValueEPvf
Zfd:__ZN2UI13PrepareOutputER9GfxDeviceRNS_7BatchesEjjNS_30AdditionalCanvasShaderChannelsE
Lgd:__Z17RegisterModule_UIv
GKe:_MonoCustomAttrs_GetCustomAttributes_m1347331976
$Bf:_Mesh_Clear_m2630385472
eei:__Z46RuntimeInvoker_RuntimeObject_Int16_t2552820387PFvvEPK10MethodInfoPvPS4_
nTd:_SynchronizationAttribute_set_Locked_m2760363037
oRg:_Int16_Equals_m82811458
J2f:_PrivateKeyInfo_Decode_m986145117
mHf:_RectOffset_get_top_m2855347295
EN:__ZN4FMOD5Sound11setUserDataEPv
oec:__ZN14SafeBinaryRead21TransferSTLStyleArrayINSt3__26vectorIN9ShaderLab19SerializedSubShaderENS1_9allocatorIS4_EEEEEEvRT_17TransferMetaFlags
zud:_ExecuteEvents_Execute_m533210008
shi:__Z137RuntimeInvoker_Void_t1185182177_Int32_t2950945753_RuntimeObject_RuntimeObject_RuntimeObject_RuntimeObject_RuntimeObject_SByte_t1669577662PFvvEPK10MethodInfoPvPS4_
FQg:_Guid_op_Equality_m4289903222
fz:__ZN27AnimationLayerMixerPlayable13SetInputCountEi
Gfb:__ZNK25SingleBlockMemoryFileData4SizeEv
F0g:_DateTime__ParseAmPm_m3478436123
Rld:__ZN11UnityEngine7Connect20RemoteConfigSettings19ConfigChangedStaticEPS1_RKN4core12basic_stringIcNS3_20StringStorageDefaultIcEEEER8JSONReadb
NO:__ZL50UnityAudioEffect_InternalSetFloatParameterCallbackP14FMOD_DSP_STATEif
h6j:__ZNK15dense_hashtableINSt3__24pairIK10KeyWrapperIP12Il2CppObjectEN6il2cpp2gc9CachedCCWEEES5_NS7_5utils11PointerHashIS3_EEN14dense_hash_mapIS5_S9_SD_NS5_14EqualsComparerINS0_8equal_toIS4_EEEENS0_9allocatorISA_EEE9SelectKeyESI_SK_E3endEv
S5g:_DateTime_System_IConvertible_ToUInt32_m3781235049
R1:__ZN17LowLevelAllocator4FreeEPvj
TEi:__Z77RuntimeInvoker_RuntimeObject_UIVertex_t4057497605_RuntimeObject_RuntimeObjectPFvvEPK10MethodInfoPvPS4_
rei:__Z92RuntimeInvoker_Int32_t2950945753_RuntimeObject_RuntimeObject_SByte_t1669577662_RuntimeObjectPFvvEPK10MethodInfoPvPS4_
kTg:_Int64_System_IConvertible_ToType_m3223988955
I4b:__ZN14qsort_internal5QSortIP16RenderObjectDatai25RenderPrePassObjectSorterEEvT_S4_T0_T1_
Ucg:_SymmetricAlgorithm_Dispose_m1120980942
Iba:__ZL19StaticCleanupPlayerPv
HKe:_MonoCustomAttrs_RetrieveAttributeUsage_m2717094301
Nzc:__ZN13PlayableGraph4StopEv
vsf:_AnimationCurve_Init_m425927913
MP:__ZN12AudioManager37RebindAudioSourcesAndSubMixersToMixerEP10AudioMixer
ksa:__ZN9Behaviour10DeactivateE19DeactivateOperation
SRf:_LayoutGroup_DelayedSetDirty_m2562435574
RPa:__ZN13StreamingInfo8TransferI14SafeBinaryReadEEvRT_
Nec:__ZN15dense_hashtableINSt3__24pairIKiN4core17string_with_labelILi1EEEEEi18SInt32HashFunctionN14dense_hash_mapIiS5_S7_NS0_8equal_toIiEE13stl_allocatorIS6_L18MemLabelIdentifier1ELi16EEE9SelectKeyESA_SD_E15insert_noresizeERKS6_
v7j:__ZN6il2cpp2vmL22RaiseOverflowExceptionEv
Qp:__Z23CalculateGlobalRotation23TransformAccessReadOnly
nFa:__ZN16GraphicsSettings28SetLightsUseColorTemperatureEb
aMa:__ZNK9ShaderLab7Program11IsSupportedEPK6Shader
yId:_TypeBuilder_GetMethodImpl_m3583143647
HFe:__ZL54LayoutGroup_t2436138090_CustomAttributesCacheGeneratorP21CustomAttributesCache
Ook:_strcat
cBc:__Z18TransformPoints3x4RK10Matrix4x4fPK8Vector3fjPS2_ji
Paa:__ZL26DestroyGameObjectRecursiveR10GameObjectR11BatchDelete
igk:_GC_allochblk_nth
vsd:_BaseInput_get_touchSupported_m2634027966
aYf:_ScrollRect_get_vScrollingNeeded_m1717136831
ojj:_SymmetricTransform_FinalEncrypt_m748885414
$vc:__Z7HaloTexP9Texture2DPhiiii
ttk:dynCall_i
Hlk:__ZNK6il2cpp8metadata23Il2CppGenericMethodHashclEPK19Il2CppGenericMethod
VV:__ZN17AudioCustomFilter4InitEv
Isk:dynCall_f
Kmg:_ListDictionary_GetEnumerator_m3395631195
Zub:__Z35Transfer_Blittable_FixedBufferFieldI24GenerateTypeTreeTransferjEvRK29SerializationCommandArgumentsR31RuntimeSerializationCommandInfo
wIa:__ZN8Playable13SetInputCountEi
YIj:__ZNK15dense_hashtableINSt3__24pairIK10KeyWrapperIP9FieldInfoEiEES5_N6il2cpp5utils11PointerHashIS3_EEN14dense_hash_mapIS5_iSB_NS5_14EqualsComparerINS0_8equal_toIS4_EEEENS0_9allocatorIS7_EEE9SelectKeyESG_SI_E13find_positionERS6_
Zrk:dynCall_v
Jka:__ZL52__ManagedRegistrationHelperFunction_DiagnosticSwitchPv
CRb:__ZN7ApiGLES14TextureSamplerEjjRK24GfxTextureSamplingParams17TextureColorSpace
g_g:_SortedList_System_Collections_IEnumerable_GetEnumerator_m2738760439
jYj:__ZN6il2cpp2vm6Thread8SetStateEP12Il2CppThreadNS0_11ThreadStateE
Aya:__ZN6Camera23VirtualRedirectTransferER14SafeBinaryRead
Msf:_Application_get_isEditor_m857789090
Dld:__ZN11UnityEngine7Connect13ConnectConfig11ConfigValueD2Ev
dSb:__ZNSt3__26__treeINS_12__value_typeIjP14DataBufferGLESEENS_19__map_value_compareIjS4_NS_4lessIjEELb1EEENS_9allocatorIS4_EEE7destroyEPNS_11__tree_nodeIS4_PvEE
una:__ZN9Scripting11UnityEngine9Rendering20SphericalHarmonicsL212CleanupProxyEv
Uzc:__ZN13PlayableGraph15SetPrepareStageE13DirectorStage
vb:invoke_viiiiiiii
RQg:_Int16_System_IConvertible_ToDateTime_m3080274979_AdjustorThunk
qYi:_Collection_1_ConvertItem_m1760499239_gshared
hSb:__ZN18GfxFramebufferGLES24UpdateDefaultFramebufferEP17RenderSurfaceBaseS1_N2gl6HandleILNS2_10ObjectTypeE9EEE
twe:__ZL66GUIUtility_t1868551600_CustomAttributesCacheGenerator_s_OriginalIDP21CustomAttributesCache
Hs:__ZL67__ManagedRegistrationHelperFunction_SharedBetweenAnimatorsAttributePv
Rxa:__ZNK6Camera16GetCullingMatrixEv
w3i:_SslHandshakeHash__ctor_m4169387017
yGj:__ZN15dense_hashtableINSt3__24pairIK10KeyWrapperIN6il2cpp5utils13dynamic_arrayIPK10Il2CppTypeLj4EEEEPFvvEEESA_NS3_8metadata19Il2CppSignatureHashEN14dense_hash_mapISA_SD_SG_NSA_14EqualsComparerINSF_22Il2CppSignatureCompareEEENS0_9allocatorISE_EEE9SelectKeyESK_SM_E9copy_fromERKSP_j
jyj:_Animator_ResetTrigger_m2321267720
HVa:__ZN16LightmapSettings5ResetEv
hUa:__ZN12FileAccessor4ReadEyPvPy
fDf:__ZN23InterfaceActionInvoker3I6Guid_tP22ByteU5BU5D_t4116647657iE6InvokeEjP11Il2CppClassP12Il2CppObjectS0_S2_i
hei:__Z67RuntimeInvoker_Void_t1185182177_Int16_t2552820387_Int32_t2950945753PFvvEPK10MethodInfoPvPS4_
KIc:__Z42Register_UnityEngine_Event_get_commandNamev
MWb:__Z12IsFirstFramev
w2i:_Collection_1_IsValidItem_m714924194_gshared
HLc:__ZN5Unity9rapidjson12PrettyWriterI16TempBufferWriterNS0_4UTF8IcEES4_13JSONAllocatorE12PrettyPrefixENS0_4TypeE
dH:__ZNK26AnimatorOverrideController27GetAnimationClipsToRegisterEv
y7:__ZN8TypeTreeC2E10MemLabelId
vaa:__ZNK15FileSystemEntry6ExistsEv
M0a:__ZNK9Transform21GetLocalToWorldMatrixER10Matrix4x4f
OKf:_Transform_INTERNAL_get_rotation_m2413441996
Fid:__GLOBAL__sub_I_artifacts_WebGL_codegenerator_0_cpp_6810
wxd:_TouchInputModule_IsModuleSupported_m384818291
B6:__ZN17PersistentManager18ReadObjectThreadedEiNS_9LockFlagsE
I6g:_DateTime_ToString_m884486936
X1f:_MD4Managed_HashCore_m3384203071
bT:__ZN13AudioListener23VirtualRedirectTransferER19StreamedBinaryWriteILb0EE
O5f:_ClientRecordProtocol_createClientHandshakeMessage_m3325677558
kie:__ZL103Component_t1923634451_CustomAttributesCacheGenerator_Component_GetComponentsForListInternal_m1419905927P21CustomAttributesCache
oMb:__ZN13GfxDeviceGLES11CopyTextureE9TextureIDS0_
u_g:_SortedList_get_Capacity_m919184864
Xuh:_Dictionary_2_ContainsKey_m2278349286_gshared
Uvk:_emscripten_glViewport__wrapper
g_:__ZN11UnityEngine15CloudWebService23WebRequestUploadHandler13GetUploadDataERj
svf:_Color32_ToString_m403383053_AdjustorThunk
Iig:_String_IndexOfOrdinalUnchecked_m460601827
x6a:__ZN13dynamic_arrayI28EnlightenRendererInformationLj0EE6insertEPS0_PKS0_S4_
pwj:_Canvas_get_sortingOrder_m1860900812
BRd:_ConfigHandler_ReadChannel_m781299361
qGf:_Rect_get_max_m350137314
K5b:__Z59ProcessShadowCasterNodeVisibilityAndCullWithoutUmbra_KernelILN17CullingParameters9LayerCullE1ELi8EEvR9IndexListRK22SceneCullingParametersPK9SceneNodePK4AABBjjPKN4math7_float4E
Npi:__Z99RuntimeInvoker_Void_t1185182177_Int32_t2950945753_Int32_t2950945753_SByte_t1669577662_RuntimeObjectPFvvEPK10MethodInfoPvPS4_
b6c:_tt_size_select
FTd:_InternalRemotingServices_GetCachedSoapAttribute_m1042302982
vY:__ZN11UnityEngine15CloudWebService17SessionEventQueue15RestoreFromFileER12FileAccessorPvy
MRe:_ConstructorBuilder_GetILGenerator_m1421260830
_1a:__ZN14PlayerSettingsD2Ev
DTf:_RectMask2D_RemoveClippable_m773604960
sqg:_AsnEncodedData_SubjectAltName_m4049949414
s3g:_Convert_ToSByte_m1350241137
U$a:__ZN13dynamic_arrayI16BlendShapeVertexLj0EE18resize_initializedEj12ResizePolicy
uea:__ZN13PlayableGraph14DestroyOutputsEv
tXi:_Enumerator_System_Collections_IEnumerator_get_Current_m3895111131_gshared
jf:___syscall122
V1g:_Convert_ToDecimal_m2858622624
LOe:_OperatingSystem__ctor_m1545635730
OQi:_List_1_RemoveAll_m2406195485_gshared
aW:__ZN9AudioClip16EnableLegacyModeEv
NSd:_Context_DoCallBack_m749197451
Vwj:_CanvasRenderer_set_materialCount_m4286588063
vok:_mkdir
DVc:__ZN9Scripting11UnityEngine7Physics12CleanupProxyEv
Wmj:_VerticalLayoutGroup_SetLayoutHorizontal_m84550911
tog:_HttpWebRequest_get_ServicePoint_m3916606901
Sik:__GLOBAL__sub_I_MemoryMappedFile_cpp
_Eh:_Enumerator_MoveNext_m29052175_AdjustorThunk
nZf:_Slider_UpdateVisuals_m3662961057
ECc:__ZN18ScriptingArguments13CopyFromOtherERKS_
Lwg:_PKCS12_ReadSafeBag_m1585166574
h8c:_ps_hints_close
Bxc:__Z16CreateRenderLoopR6Camera
yFb:__ZN32SerializationCommandQueueBuilder3AddERK20SerializationCommand
$1:_tlsf_create
D0h:_ReadOnlyCollection_1_System_Collections_IEnumerable_GetEnumerator_m2505713430_gshared
X4a:__ZN14SafeBinaryRead21TransferSTLStyleArrayINSt3__26vectorIN15ResourceManager10DependencyE13stl_allocatorIS4_L18MemLabelIdentifier52ELi16EEEEEEvRT_17TransferMetaFlags
HEb:__ZN13MonoBehaviour23VirtualRedirectTransferER18StreamedBinaryReadILb0EE
hgc:__ZN9ShaderLab20SerializedSubProgramC2ERKS0_
CZa:__ZN9Texture3D17UploadToGfxDeviceEv
NKi:_Array_InternalArray__get_Item_TisKeyValuePair_2_t71524366_m252172060_gshared
wqk:__ZNK10__cxxabiv121__vmi_class_type_info27has_unambiguous_public_baseEPNS_19__dynamic_cast_infoEPvi
tMe:_MulticastDelegate_CombineImpl_m2857239134
YTh:_Version_op_Inequality_m1696193441
LPd:_Marshal_ReadByte_m1960935664
xTa:__ZN15QualitySettings23VirtualRedirectTransferER19StreamedBinaryWriteILb0EE
BHg:_ArrayListWrapper_CopyTo_m3756520478
tOd:_ResourceInfo_t2872965302_marshal_pinvoke
pAa:__ZN16RenderTextureMap5QueryEPK17RenderSurfaceBase
vka:__ZL42__ManagedRegistrationHelperFunction_CameraPv
Iuc:__ZN8Material12CleanupClassEv
ixc:__ZN8Material8GetFloatEN9ShaderLab16FastPropertyNameE
PCc:__Z10IsInvokingR13MonoBehaviourPKc
Sqf:_HashAlgorithm_TransformBlock_m4006041779
PIc:__Z11GetGUIStatev
jg:_glGetActiveUniform
Fhh:_Array_InternalArray__IndexOf_TisSlot_t3975888750_m4250446283_gshared
OEc:__Z57Register_UnityEngine_MonoBehaviour_StartCoroutineManaged2v
YU:__Z13RegisterClassI9AudioClipEvPKc
WTg:_IntPtr__ctor_m620280096_AdjustorThunk
qg:_emscripten_glGetObjectParameterivARB
Pdj:_CharacterClass_AddCharacter_m2370152363
Oya:__ZN15SerializeTraitsI10ColorRGBAfE8TransferI14SafeBinaryReadEEvRS0_RT_
$Wh:_Collection_1_IsValidItem_m2333176545_gshared
Kba:__ZN22BuiltinResourceManager13StaticDestroyEPv
gna:__ZN9Scripting11UnityEngine25SerializePrivateVariables12CleanupProxyEv
Faa:__ZN10GameObject17GetComponentIndexEPN5Unity9ComponentE
lGi:_Array_InternalArray__set_Item_TisILTokenInfo_t2325775114_m309595583_gshared
zO:__ZN29AudioEffectInternalDefinition9CreateDSPEPN4FMOD6SystemEPvPfP23UnityAudioAmbisonicDataPP25UnityAudioSpatializerData
P7c:_UNITY_tt_face_vary_cvt
Hmh:_SimpleCollator_ClearBuffer_m2975394169
jgj:_Event_Internal_GetMousePosition_m1101229675
wac:__ZN35RegisterRuntimeInitializeAndCleanup22ExecuteInitializationsEv
JYe:_InternalEnumerator_1_System_Collections_IEnumerator_get_Current_m3575233890_gshared
Gdg:_TripleDESCryptoServiceProvider_CreateEncryptor_m450924958
ifj:_UriParser_GetParser_m544052729
XPf:_Text_get_font_m2857203289
rK:__ZN23PreloadManagerOperation14SetFinalTimingEffff
zz:__ZN7mecanim13ValueArrayAddILb0EEEvPKNS_10ValueArrayES3_PKNS_14ValueArrayMaskEfbPS1_PS4_
SUe:_MethodBuilder_fixup_m1765890582
_lf:_ObjectReader_ReadSimpleArray_m428957657
D3a:__ZN13BuildSettings8TransferI18StreamedBinaryReadILb0EEEEvRT_
mKe:_MissingFieldException__ctor_m4282575076
D8g:_Decimal_Equals_m2592017260
YRd:_ConfigHandler_OnEndParsing_m3764034673
ckf:_RemotingConfiguration_RegisterTypes_m2378540395
aHc:__Z38Renderer_Get_Custom_PropSortingLayerIDP12Il2CppObject
BGg:_ArrayList_get_Capacity_m431818936
z1e:_InternalEnumerator_1_System_Collections_IEnumerator_get_Current_m767948013_gshared
R$e:_InternalEnumerator_1_System_Collections_IEnumerator_get_Current_m435848551_gshared
Hsf:_UnityAction_Invoke_m893829196
Cba:__ZNK11TypeManager23FindAllRTTIDerivedTypesEPK4RTTIR13dynamic_arrayIS2_Lj0EEb
Ds:__ZL58__ManagedRegistrationHelperFunction_AnimatorTransitionInfoPv
c3a:__ZN14AsyncOperationD0Ev
kPb:__Z29TextureIdMapGLES_QueryOrAlloc9TextureID
QQj:__ZN15dense_hashtableINSt3__24pairIK10KeyWrapperINS1_IPK12PropertyInfoP11Il2CppClassEEEjEES9_17ReflectionMapHashIS8_EN14dense_hash_mapIS9_jSD_NS9_14EqualsComparerINS0_8equal_toIS8_EEEENS0_9allocatorISB_EEE9SelectKeyESI_SK_E12resize_deltaEjj
Zuf:_Color_GetHashCode_m1829208463
DHb:__ZN13ScreenManager18SetAllowCursorLockEb25DisallowCursorLockReasons
CCc:__Z25scripting_raise_exception21ScriptingExceptionPtr
DQf:_Text_get_cachedTextGeneratorForLayout_m116487342
Nyj:__ZL11decimalLog2P19il2cpp_decimal_repr
c5a:__ZN15ResourceManager10Dependency8TransferI14SafeBinaryReadEEvRT_
G0i:_Collection_1_System_Collections_IList_Remove_m3800279569_gshared
Aek:_GC_extend_size_map
_Te:_GenericTypeParameterBuilder_GetCustomAttributes_m386082976
r_f:_Text_FontTextureChanged_m495427969
xNe:_NumberFormatter_RoundDecimal_m2957290908
bP:__ZN4FMOD6System9setDriverEi
c7b:__ZNK9Transform11GetRotationEv
$wk:_emscripten_glGetIntegerv__wrapper
rjh:_Array_InternalArray__ICollection_Add_TisSingle_t1397266774_m1873979703_gshared
_ub:__Z18Transfer_BlittableI24GenerateTypeTreeTransferLb0EyEvRK29SerializationCommandArgumentsR31RuntimeSerializationCommandInfo
dMa:__ZN8Material14CreateMaterialER6ShaderN6Object9HideFlagsEb
ONh:_TimeSpan_get_Minutes_m4278980001_AdjustorThunk
twj:_Canvas_set_sortingLayerID_m861680532
T4c:_tt_cmap12_char_map_binary
Agj:_GUI__cctor_m3051457990
kT:__ZN12AudioManager19RemoveAudioListenerEP13AudioListener
vCa:__Z25GetBuiltinResourceManagerv
G5j:__ZN6il2cpp2gc8GCHandle15GetTargetHandleEP12Il2CppObjectii
URg:_Int32_System_IConvertible_ToByte_m3832391412
Ih:_llvm_trap
c5:__ZNSt3__27__sort5IRNS_6__lessIN12_GLOBAL__N_114ParamNameIndexES3_EEPS3_EEjT0_S7_S7_S7_S7_T_
c8i:_X509Certificate_VerifySignature_m3988463526
J7f:_TlsClientCertificate_get_ClientCertificate_m1637836254
Xek:_get_index
ew:__ZN21AnimationClipPlayable29CollectAnimationClipPlayablesER13dynamic_arrayIPS_Lj0EE
ts:__ZL54__ManagedRegistrationHelperFunction_PositionConstraintPv
sqh:_KeyBuilder_Key_m876696100
R4e:_InternalEnumerator_1_System_Collections_IEnumerator_get_Current_m2164048921_gshared
SNj:__ZN15dense_hashtableINSt3__24pairIK10KeyWrapperINS1_IPK14Il2CppAssemblyP11Il2CppClassEEEjEES9_17ReflectionMapHashIS8_EN14dense_hash_mapIS9_jSD_NS9_14EqualsComparerINS0_8equal_toIS8_EEEENS0_9allocatorISB_EEE9SelectKeyESI_SK_EC2ERKSN_j
sra:__ZN9Scripting11UnityEngine14AnimationCurve12CleanupProxyEv
lrd:__ZL65__ManagedRegistrationHelperFunction_Internal_SubsystemDescriptorsPv
EKj:__ZN6il2cpp2vm21ThreadPoolCompartment12DetachThreadEP12Il2CppThread
nof:_SByte_System_IConvertible_ToInt16_m885121451_AdjustorThunk
A1g:_Decimal_stripStyles_m1823381019
_Lb:__ZN13GfxDeviceGLES30SetBackBufferColorDepthSurfaceEP17RenderSurfaceBaseS1_
Roe:__ZL63TexturePlayableOutput_t648497447_CustomAttributesCacheGeneratorP21CustomAttributesCache
oKc:__Z52Register_UnityEngine_GUIUtility_get_systemCopyBufferv
uKi:_LayoutGroup_SetProperty_TisBoolean_t97287965_m3903959758_gshared
gAc:__ZN16StreamedResource8TransferI18StreamedBinaryReadILb0EEEEvRT_
Mrc:__Z49Register_UnityEngine_Input_get_imeCompositionModev
mJf:_Sprite_INTERNAL_get_rect_m1600380876
Mec:__ZN15dense_hashtableINSt3__24pairIKiN4core17string_with_labelILi1EEEEEi18SInt32HashFunctionN14dense_hash_mapIiS5_S7_NS0_8equal_toIiEE13stl_allocatorIS6_L18MemLabelIdentifier1ELi16EEE9SelectKeyESA_SD_E12resize_deltaEjj
HAk:_emscripten_glDisableVertexAttribArray__wrapper
Gwa:__ZN14SafeBinaryRead21TransferSTLStyleArrayI13dynamic_arrayINSt3__24pairIi12ImmediatePtrIN5Unity9ComponentEEEELj0EEEEvRT_17TransferMetaFlags
Ipa:__ZN9Scripting11UnityEngine12Experimental10PlayerLoop14Initialization12CleanupProxyEv
tLe:_MonoType_GetAttributeFlagsImpl_m167182975
A3f:_EncryptedData_get_EncryptedContent_m3205649670
N_a:__ZN12MeshRenderer18CalculateLocalAABBER4AABBRKS_RK4Mesh
qdc:__ZN21UnityDefaultAllocatorI17LowLevelAllocatorE8AllocateEji
T7c:_tt_hadvance_adjust
Dz:__ZN7mecanim5human14HumanPoseClearERNS0_9HumanPoseERKNS_6bitsetILj83EEE
Ecd:__ZL28InitializeUIScriptingClassesv
esi:__Z54RuntimeInvoker_Vector2_t2156229523_Vector3_t3722313464PFvvEPK10MethodInfoPvPS4_
l0h:_ReadOnlyCollection_1_System_Collections_IList_set_Item_m2162444692_gshared
bcb:__ZN12HandlerChain10AtomicMoveER13FileEntryDataS1_
Tlb:__ZN9GfxDevice17HasGPUFencePassedEPv
dea:__ZZN15DirectorManager15InitializeClassEvEN48PreLateUpdateDirectorDeferredEvaluateRegistrator7ForwardEv
fWc:__ZN20SpeedTreeWindManager6UpdateEf
Xii:__Z68RuntimeInvoker_Int64_t3736567304_IntPtr_t_MonoIOErrorU26_t1548853198PFvvEPK10MethodInfoPvPS4_
ju:__ZN7mecanim9animation20CreateAvatarConstantEPNS_8skeleton8SkeletonEPNS1_13SkeletonPoseTIN4math4trsXEEES8_PNS_5human5HumanES3_iRKS6_RNS_6memory9AllocatorE
crd:__Z20RegisterModule_WebGLv
Gjc:__ZN12ShaderErrors11ShaderErrorC2ERKN4core12basic_stringIcNS1_20StringStorageDefaultIcEEEES7_S7_iibb
o0a:__ZN14CompressedMesh8TransferI19StreamedBinaryWriteILb0EEEEvRT_
ilh:_Array_InternalArray__Insert_TisDouble_t594665363_m675699942_gshared
m9a:__ZN13dynamic_arrayI15ComputeShaderCBLj0EE6assignEPKS0_S3_
YSi:_List_1_System_Collections_IList_Add_m3014885234_gshared
H8h:_UnityAction_1_Invoke_m3535252839_gshared
NYf:_Selectable_set_isPointerInside_m701571657
Naj:_PatternCompiler_EmitNotCategory_m2023580103
SFa:__ZN24GenerateTypeTreeTransfer8TransferI21PlatformShaderDefinesEEvRT_PKc17TransferMetaFlags
O4a:__ZNK15ResourceManager22GetTypeVirtualInternalEv
P2j:__ZN6il2cpp2vmL36AddNestedTypesToNametoClassHashTableEPK11Il2CppImagePK20Il2CppTypeDefinition
GUi:_List_1_set_Capacity_m2707586410_gshared
jDf:_PlayerConnection_MessageCallbackInternal_m1914517467
otf:_AttributeHelperEngine__cctor_m1900959362
fXc:__ZN13TextRendering4Font23VirtualRedirectTransferER24GenerateTypeTreeTransfer
O5b:__Z59ProcessShadowCasterNodeVisibilityAndCullWithoutUmbra_KernelILN17CullingParameters9LayerCullE2ELi12EEvR9IndexListRK22SceneCullingParametersPK9SceneNodePK4AABBjjPKN4math7_float4E
zCe:__ZL102Image_t2670269651_CustomAttributesCacheGenerator_Image_t2670269651____eventAlphaThreshold_PropertyInfoP21CustomAttributesCache
wqg:_X509SubjectKeyIdentifierExtension_ToString_m12089275
Evi:__Z106RuntimeInvoker_RuntimeObject_RuntimeObject_Int32_t2950945753_Int16_t2552820387_RuntimeObject_RuntimeObjectPFvvEPK10MethodInfoPvPS4_
lTh:_UnhandledExceptionEventArgs__ctor_m224348470
_wj:_CanvasRenderer_SetPopMaterial_m2720611463
whh:_Array_InternalArray__IndexOf_TisByte_t1134296376_m929524687_gshared
bV:__ZN11AudioSource15InitializeClassEv
Fud:_ExecuteEvents_get_dragHandler_m3849431675
T$b:__ZN11HaloManager17RenderGeometryJobEP25DynamicVBOGeometryJobDataj
KDf:_Object_DestroyImmediate_m2288369078
cbh:_Enum_System_IConvertible_ToDateTime_m3823814707
bJ:__ZNSt3__227__insertion_sort_incompleteIRPFbN7mecanim9animation13MuscleIndexIdES3_EPS3_EEbT0_S8_T_
TAk:_emscripten_glBlendEquation__wrapper
xZj:__ZN15dense_hashtableINSt3__24pairIK10KeyWrapperIP11Il2CppClassES4_EES5_N6il2cpp8metadata16SZArrayClassHashEN14dense_hash_mapIS5_S4_SA_NS5_14EqualsComparerINS9_19SZArrayClassCompareEEENS0_9allocatorIS7_EEE9SelectKeyESE_SG_E13set_empty_keyERKS7_
ppk:__ZNSt3__212basic_stringIcNS_11char_traitsIcEENS_9allocatorIcEEE6__initEPKcj
Oj:_emscripten_set_fullscreenchange_callback
zHd:_PropertyBuilder_IsDefined_m406627924
W2h:_ReadOnlyCollection_1_System_Collections_IList_Insert_m4085855595_gshared
jbj:_PatternCompiler_NewLink_m3699449496
p9e:_Enumerator_System_Collections_IDictionaryEnumerator_get_Key_m2502357460_AdjustorThunk
Tj:_emscripten_glDrawArrays
xAf:_Material_HasProperty_m2704238996
CVb:__ZZ23InitPlayerLoopCallbacksvEN43EarlyUpdateExecuteMainThreadJobsRegistrator7ForwardEv
o$:__ZN11UnityEngine15CloudWebService19SessionEventManagerC2Ev
CFg:_Char_System_IConvertible_ToSingle_m2690985411_AdjustorThunk
Yj:_clock_getres
n4h:_Comparison_1_Invoke_m668117148_gshared
Amg:_DictionaryNodeEnumerator_FailFast_m2494733641
Lzc:__ZN15DirectorManager22ConstructPlayableGraphEPKc
Cqd:__ZN13RuntimeStaticI14dynamic_bitsetLb0EE16StaticInitializeEPv
KHh:_List_1_System_Collections_IList_IndexOf_m581320577_gshared
Yga:__ZNSt3__222__merge_move_constructIRNS_4lessIN4core12basic_stringIcNS2_20StringStorageDefaultIcEEEEEENS_11__wrap_iterIPS6_EESB_EEvT0_SC_T1_SD_PNS_15iterator_traitsISC_E10value_typeET_
qFc:__Z41Register_UnityEngine_Camera_get_eventMaskv
AW:__ZL19CleanupModule_Audiov
H9i:_IntervalCollection_CopyTo_m2976848759
ozd:_CanvasUpdateRegistry_ObjectValidForUpdate_m2723813849
Rmb:__ZN18GlslGpuProgramGLES25LoadFromBinaryShaderCacheERjRKN4core12basic_stringIcNS1_20StringStorageDefaultIcEEEER17ShaderChannelMaskPKc
Mha:__ZN6prcoreL17RemapGenericFloatI18TexFormatARGBFloat14TexFormatRHalfEEvPKNS_9InnerInfoE
PQi:_List_1_RemoveAt_m1433290785_gshared
Tki:__Z81RuntimeInvoker_Void_t1185182177_Int64_t3736567304_RuntimeObject_Int32_t2950945753PFvvEPK10MethodInfoPvPS4_
csb:__Z29Transfer_Blittable_ArrayFieldI14SafeBinaryReadiEvRT_R9ArrayInfoRK23StaticTransferFieldInfo
uLj:__ZN6il2cpp6icalls8mscorlib6System8MonoType8GetFieldEP20Il2CppReflectionTypeP12Il2CppStringi
zGj:__ZN15dense_hashtableINSt3__24pairIK10KeyWrapperIN6il2cpp5utils13dynamic_arrayIPK10Il2CppTypeLj4EEEEPFvvEEESA_NS3_8metadata19Il2CppSignatureHashEN14dense_hash_mapISA_SD_SG_NSA_14EqualsComparerINSF_22Il2CppSignatureCompareEEENS0_9allocatorISE_EEE9SelectKeyESK_SM_E5clearEv
bcg:_SHA256Managed_ProcessBlock_m2297835517
oxk:_emscripten_glVertexAttrib3fv__wrapper
B$g:_Convert_ToBoolean_m4098720762
Q2h:_ReadOnlyCollection_1_System_Collections_ICollection_CopyTo_m511916545_gshared
meh:_Array_InternalArray__ICollection_Remove_TisOrderBlock_t1585977831_m1449044465_gshared
PC:__ZL25SetAdditionalCurvesValuesRN7mecanim10ValueArrayERKN11UnityEngine9Animation20AnimationSetBindingsERKNS_18ValueArrayConstantES9_RKS0_
tuj:_DisplayBuffer_OnCommand_m444302511
QPe:_AssemblyName__ctor_m1753467291
uZf:_Slider_set_minValue_m3431883418
gCc:__ZN8Material10GetTextureEN9ShaderLab16FastPropertyNameE
vff:_Enumerator_System_Collections_IEnumerator_get_Current_m1657817602_gshared
RXa:__ZN18StreamedBinaryReadILb0EE21TransferSTLStyleArrayI13dynamic_arrayI10Matrix4x4fLj16EEEEvRT_17TransferMetaFlags
Suc:__ZNK28MonoBehaviourPropertyBinding13GetFloatValueERKN11UnityEngine9Animation10BoundCurveE
jYb:__ZL20BlitToStagingTextureP7TextureiS0_i
Ngk:_GC_generic_malloc
Ppg:_WebHeaderCollection_get_Keys_m910440889
bMb:__ZN13GfxDeviceGLES32CreateDepthRenderSurfacePlatformEP17RenderSurfaceBase17DepthBufferFormat
rHg:_ArrayListWrapper_Clear_m2625302714
PG:__ZN26AnimatorOverrideController13AwakeFromLoadE17AwakeFromLoadMode
iBk:_emscripten_glIsTexture__wrapper
g5f:_CipherSuiteCollection_System_Collections_IEnumerable_GetEnumerator_m3240848888
Mqk:_llvm_bswap_i32
K4h:_Comparison_1_BeginInvoke_m3417636795_gshared
$hb:__ZN9GfxDevice25ReleaseAsyncCommandHeaderEPN21GfxDeviceAsyncCommand3ArgE
Q8i:_X509Crl_Parse_m3164013387
jje:__ZL75Mesh_t3648964284_CustomAttributesCacheGenerator_Mesh_HasChannel_m4256962133P21CustomAttributesCache
IEb:__ZN13MonoBehaviour23VirtualRedirectTransferER17RemapPPtrTransfer
lTb:__ZN21UniformBufferTFMethod20IsBoneCountSupportedEi
hmb:__ZN4gles14UseGLSLProgramER15DeviceStateGLESjbij
QFd:_HorizontalLayoutGroup_CalculateLayoutInputHorizontal_m750541069
xak:__ZN6il2cpp6icalls8mscorlib6System11Environment11get_NewLineEv
dtg:_X509CertificateCollection__ctor_m1395805580
VNd:_ResourceReader_CreateResourceInfo_m1818330740
nyj:_OnOverrideControllerDirtyCallback_Invoke_m764065723
WLa:__ZN6Shader27MarkShaderStateNotSupportedEPKS_
gla:__ZL55__ManagedRegistrationHelperFunction_DrawShadowsSettingsPv
qla:__ZL52__ManagedRegistrationHelperFunction_GradientAlphaKeyPv
QDf:_Object_Internal_CloneSingle_m1021157572
QSb:__ZN25TransformFeedbackSkinning8SkinMeshERK18VertexStreamSourceP9GfxBufferP17GPUSkinPoseBufferS4_ii17ShaderChannelMaskb
o2j:__ZN15dense_hashtableINSt3__24pairIK10KeyWrapperIP14Il2CppIUnknownEjEES5_N6il2cpp5utils11PointerHashIS3_EEN14dense_hash_mapIS5_jSB_NS5_14EqualsComparerINS0_8equal_toIS4_EEEENS0_9allocatorIS7_EEE9SelectKeyESG_SI_E12resize_deltaEjj
FNd:_ResolveEventArgs__ctor_m1455935166
pPh:_Type_Equals_m1673304139
tIe:_SynchronizedReader_Read_m1388613247
Exb:__Z22TransferField_NonArrayI19StreamedBinaryWriteILb0EE27Converter_SimpleNativeClassI8GUIStyleEEvRK23StaticTransferFieldInfoR31RuntimeSerializationCommandInfoRT0_
mWf:_Scrollbar_OnPointerDown_m3213715319
bSc:__ZN8JSONRead8TransferIN4math12int3_storageEEEvRT_PKc17TransferMetaFlagsb
PWb:__ZN27IntermediateRendererManager29ClearAllIntermediateRenderersEv
Iwd:_StandaloneInputModule__ctor_m2419721820
X7e:_Comparer_1_System_Collections_IComparer_Compare_m2018996185_gshared
Rp:__Z17CalculateGlobalSM23TransformAccessReadOnlyRKN4math7_float4E
rJg:_CollectionBase_System_Collections_IList_Contains_m2994901969
Wl:_emscripten_glLoadIdentity
Jac:__ZNSt3__26vectorINS_4pairIN4core12basic_stringIcNS2_20StringStorageDefaultIcEEEEPK17MessageIdentifierEENS_9allocatorISA_EEE26__swap_out_circular_bufferERNS_14__split_bufferISA_RSC_EEPSA_
qye:__ZL57RemoteSettings_t1718627291_CustomAttributesCacheGeneratorP21CustomAttributesCache
Yzj:_NativeMethodAttribute_set_HasExplicitThis_m2961870915
WDf:_Vector3_get_zero_m1409827619
FWb:__ZN6Shader16GetDefaultOrNullEv
kq:__ZN4AABB8TransferI14SafeBinaryReadEEvRT_
$ch:_Array_InternalArray__ICollection_Contains_TisX509ChainStatus_t133602714_m795171973_gshared
e1j:__ZN6il2cpp2vm8Liveness8FromRootEP12Il2CppObjectPv
Z0a:__ZN12MeshRenderer23VirtualRedirectTransferER19StreamedBinaryWriteILb0EE
Dcc:__Z11MD5ToStringPh
VJj:__ZN23InterfaceActionInvoker4IixxbE6InvokeEjP11Il2CppClassP12Il2CppObjectixxb
xrc:__Z38Input_Get_Custom_PropCompositionStringv
g0:__GLOBAL__sub_I_artifacts_WebGL_codegenerator_0_cpp_862
CW:__ZN19AudioSampleProvider7AcquireEjRNS_6HandleE
D_f:_Text_get_alignment_m1496827807
nsh:_ContentInfo_get_ASN1_m1776225219
roe:__ZL82NativeContainerNeedsThreadIndexAttribute_t764917452_CustomAttributesCacheGeneratorP21CustomAttributesCache
TY:__ZN9JSONWrite8TransferIN4core12basic_stringIcNS1_20StringStorageDefaultIcEEEEEEvRT_PKc17TransferMetaFlags
ZXa:__ZN10SpriteBone8TransferI19StreamedBinaryWriteILb0EEEEvRT_
Q3g:_Convert_ToSingle_m2533452644
ypk:__ZNSt3__212basic_stringIcNS_11char_traitsIcEENS_9allocatorIcEEE6resizeEjc
b2a:__ZN14PlayerSettings16CheckConsistencyEv
FV:__ZN11AudioModule30GetOrCreateDSPFromCustomFilterEP17AudioCustomFilter
Ptd:_EventTrigger_OnPointerEnter_m986348926
B1j:__ZN6il2cpp6icalls8mscorlib6System13GlobalizationL20culture_lcid_locatorEPKvS5_
Jdg:_X509Certificate__ctor_m1413707489
b1h:_ReadOnlyCollection_1_System_Collections_Generic_ICollectionU3CTU3E_Remove_m2211264472_gshared
JQa:__ZNK12CubemapArray16ExtractImageImplEP14ImageReferenceNS0_8BlitModeEbi
TBc:__ZN10systeminfo24GetSystemLanguageCultureEi
Zjb:__ZN9GfxDevice24RequestAsyncReadbackDataEP20GfxAsyncReadbackDataRK27GfxAsyncReadbackRequestDesc
Ooi:__Z240RuntimeInvoker_RuntimeObject_Int16_t2552820387_RuntimeObject_Int32_t2950945753_Int32_t2950945753_Int32_t2950945753_SByte_t1669577662_SByte_t1669577662_SByte_t1669577662_SByte_t1669577662_Int16_t2552820387_SByte_t1669577662_SByte_t1669577662PFvvEPK10MethodInfoPvPS4_
o2a:__ZN10VRSettings8TransferI14SafeBinaryReadEEvRT_
Zpa:__ZN9Scripting11UnityEngine12Experimental18GlobalIllumination11LightDataGI9InitProxyEv
SPh:_Type_IsMarshalByRefImpl_m914778231
cbb:__ZNK17FileSystemHandler10IsReadOnlyERK13FileEntryData
E_c:_UNITY_FT_Outline_Get_CBox
hGc:__Z56Register_UnityEngine_SystemInfo_GetOperatingSystemFamilyv
gKg:_Hashtable__ctor_m2302711321
ja:invoke_viifiiii
YEg:_Byte_TryParse_m1467448483
Ruj:_DelegatePInvokeWrapper_OnCommandSentHandler_t613111342
UJf:_Texture2D_get_whiteTexture_m2176011403
SAa:__ZN22PerThreadPageAllocator14AcquireNewPageEj
h5h:_Func_2_Invoke_m3516477887_gshared
Dme:__ZL65SelectionBaseAttribute_t3493465804_CustomAttributesCacheGeneratorP21CustomAttributesCache
jjg:_String_ToString_m3872792296
qub:__Z18Transfer_BlittableI24GenerateTypeTreeTransferLb1E9BoundsIntEvRK29SerializationCommandArgumentsR31RuntimeSerializationCommandInfo
UVg:_FileStream_GetSecureFileName_m449783930
l1b:__ZN6Camera13ClearNoSkyboxEb
mJe:_UnexceptionalStreamWriter_Flush_m82278468
hLa:__ZNK15PlayableMethods21CanInvokeProcessFrameEv
q1e:_InternalEnumerator_1_get_Current_m3911557813_gshared
OFj:__ZNK15dense_hashtableI10KeyWrapperIPK17Il2CppGenericInstES4_N6il2cpp8metadata21Il2CppGenericInstHashEN14dense_hash_setIS4_S7_NS4_14EqualsComparerINS6_24Il2CppGenericInstCompareEEENSt3__29allocatorIS4_EEE8IdentityESB_SE_E12test_deletedEj
wsd:_BaseInput_get_touchCount_m1263753282
mda:__ZNSt3__27__sort5IR17CompareInstanceIDPP6ObjectEEjT0_S6_S6_S6_S6_T_
szj:_CustomEventData_Internal_Create_m4267220301
VVd:_RemotingSurrogate_SetObjectData_m2713731796
glg:_DecoderReplacementFallbackBuffer_Reset_m3943028589
ene:__ZL56RenderTexture_t2108887433_CustomAttributesCacheGeneratorP21CustomAttributesCache
YRb:__ZN18GfxFramebufferGLES10InvalidateEv
qBh:_Enumerator_System_Collections_IEnumerator_get_Current_m282279808_AdjustorThunk
cRf:_LayoutRebuilder_MarkLayoutRootForRebuild_m1241498911
mLh:_CompressedStack_CreateCopy_m2591279216
mbg:_RSAPKCS1KeyExchangeFormatter_CreateKeyExchange_m1611814432
V3:__ZN10MemoryPoolD2Ev
SKc:__ZNSt3__26__treeINS_12__value_typeIN4core12basic_stringIcNS2_20StringStorageDefaultIcEEEEN5IMGUI12NamedControlEEENS_19__map_value_compareIS6_S9_NS_4lessIS6_EELb1EEENS_9allocatorIS9_EEE7destroyEPNS_11__tree_nodeIS9_PvEE
qqg:_AsnEncodedData_KeyUsageExtension_m1792651780
f7j:__ZN6il2cpp2os5posix15PosixWaitObjectD2Ev
qlb:__ZN14GfxDeviceStats19EndClientFrameStatsEv
LOf:_InputField_set_asteriskChar_m1794444908
ilc:__ZN9Scripting26RaiseArgumentNullExceptionEPKc
PBk:b120
i2:__ZL18InternalLogConsolePKcz
W_e:_InternalEnumerator_1_get_Current_m685192625_gshared
gJe:_UnexceptionalStreamReader_Read_m16956299
cOd:_ResourceReader_ReadValueVer1_m183253382
o8:__Z37scripting_method_get_nth_argumenttype18ScriptingMethodPtri
sR:__ZN11AudioSource16UpdatePauseStateEv
Uca:__ZL52StaticUnregisterSceneLoadedCallback_LightmapSettingsPv
Euf:_Camera_get_main_m3643453163
DEc:__Z48Register_UnityEngine_MonoBehaviour_StopCoroutinev
Pkk:__ZN6il2cpp5utils25NativeDelegateMethodCache17AddNativeDelegateEPFvvEPK10MethodInfo
DSf:_LayoutRebuilder_U3CRebuildU3Em__5_m1288787547
r0b:__ZN27DeviceViewProjMatricesStateD2Ev
_If:_SendMouseEvents__cctor_m2378365934
kZh:_ReadOnlyCollection_1_System_Collections_IList_set_Item_m3582274843_gshared
KAf:_Mathf_Pow_m856735666
uga:__ZL39CreateRegisteredMessageIdentifiersArrayPv
bub:__Z18Transfer_BlittableI24GenerateTypeTreeTransferLb0E8Vector3fEvRK29SerializationCommandArgumentsR31RuntimeSerializationCommandInfo
qmh:_SimpleCollator_FilterExtender_m72900315
bXc:__ZNK13TextRendering4Font22GetTypeVirtualInternalEv
Dye:__ZL61CertificateHandler_t2739891000_CustomAttributesCacheGeneratorP21CustomAttributesCache
YKf:_Transform_set_parentInternal_m2066300701
x5a:__ZN19StreamedBinaryWriteILb0EE21TransferSTLStyleArrayINSt3__26vectorIN15ResourceManager10DependencyE13stl_allocatorIS5_L18MemLabelIdentifier52ELi16EEEEEEvRT_17TransferMetaFlags
OXf:_ScrollRect_EnsureLayoutHasRebuilt_m3415112783
JLe:_Binder_FindMostDerivedMatch_m239579024
ZYe:_InternalEnumerator_1_get_Current_m476140818_AdjustorThunk
Oij:_GUIUtility_EndContainerGUIFromException_m530164245
txj:_RectTransformUtility_INTERNAL_CALL_RectangleContainsScreenPoint_m1214874141
BI:__ZZN8Animator15InitializeClassEvEN37FunctorImpl_439kDidModifyOverrideClip4CallEPviR11MessageData
ZOa:__ZN6prcoreL10inner_flipILj2EEEvPhS1_j
THj:__ZN6il2cpp2vm13MetadataCache14GetPointerTypeEP11Il2CppClass
POa:__ZNK14Texture2DArray16ExtractImageImplEP14ImageReferenceNS0_8BlitModeEbi
jJh:_StringBuilder_Append_m2383614642
qOc:__ZN9JSONWrite8TransferIbEEvRT_PKc17TransferMetaFlags
Gua:__ZN12TLSAllocatorI14StackAllocatorED0Ev
o1a:__ZN11TimeManager16CheckConsistencyEv
_0h:_ReadOnlyCollection_1_System_Collections_Generic_ICollectionU3CTU3E_Add_m2451728105_gshared
zZb:__ZN21GfxDeviceAsyncCommand10ArgScratch15ThreadedCleanupEv
wzc:__Z14DoubleToStringd
jkg:_StringComparer_GetHashCode_m2080455020
Ctb:__ZN12NativeBufferI27Converter_UnityEngineObjectE15SetupForWritingER9ArrayInfo
YNi:_List_1_CheckCollection_m2118769249_gshared
oe:_glTexImage3D
DBd:_DefaultControls_SetDefaultColorTransitionValues_m2033775311
oVg:_Path_IsPathRooted_m3515805419
RFi:_Array_InternalArray__set_Item_TisChar_t3634460470_m741842250_gshared
x5i:_TlsServerSettings_set_RsaParameters_m853026166
p4j:__ZN6il2cpp2vm5Field22StaticGetValueInternalEP9FieldInfoPvS4_
Qlg:_Encoding_GetByteCount_m1264711659
TP:__ZN11AudioSource12ApplyFiltersEv
csf:_RC2_Create_m2052783340
TPg:_Guid__ctor_m3421080095_AdjustorThunk
xe:_JS_SystemInfo_GetCurrentCanvasWidth
Cbk:__ZN6il2cpp8metadataL22FormatGenericArgumentsEPK17Il2CppGenericInst
_mc:__ZL34GetComponentsImplementationRecurseILb1ELi0ELi1EEbR10GameObjectbRK17CompareParametersRK39GetComponentsImplementation_ReturnValue
WCa:__ZNK17InstancingBatcher15RenderInstancesERK15RenderNodeQueuePK17BatchInstanceDataj16VertexInputMasksPFbPvS6_iR11MeshBuffersR16DrawBuffersRangeRiSC_E
Gah:_Double_Equals_m1674752021
$Of:_InputField_OnDisable_m1824300767
wlh:_CodePointIndexer_ToIndex_m1008730487
ZDc:__Z37Texture_CUSTOM_get_texelSize_InjectedP12Il2CppObjectR13Vector2fIcall
rTg:_Int64_System_IConvertible_ToUInt64_m2815650160_AdjustorThunk
M2a:__ZN10VRSettings8TransferI18StreamedBinaryReadILb0EEEEvRT_
Ey:__ZN22AnimationMixerPlayable12MixerProcessEP35AnimationPlayableEvaluationConstantP32AnimationPlayableEvaluationInputP33AnimationPlayableEvaluationOutputM17AnimationPlayableFvS1_S3_S5_EPFvS1_S3_S5_ESA_PFvS5_S1_S3_S5_PN7mecanim16ValueArrayWeightEfEPFvS1_S3_S5_SD_fE
O8e:_Enumerator_get_CurrentKey_m2230405065_gshared
NJe:_Math_Abs_m3912393749
$7f:_TlsClientFinished_ProcessAsSsl3_m3094597606
Nuf:_Camera_get_allCamerasCount_m528453758
Kxb:__Z19TransferField_ArrayI19StreamedBinaryWriteILb0EE27Converter_SimpleNativeClassI8GradientEEvRK23StaticTransferFieldInfoR31RuntimeSerializationCommandInfoRT0_
ZYa:__ZNK13ScreenManager12IsFullscreenEv
ohc:__ZN24GenerateTypeTreeTransfer8TransferINSt3__26vectorIN9ShaderLab20SerializedSubProgram15VectorParameterENS1_9allocatorIS5_EEEEEEvRT_PKc17TransferMetaFlags
oQc:__Z18Transfer_BlittableI8JSONReadLb0E12PropertyNameEvRK29SerializationCommandArgumentsR31RuntimeSerializationCommandInfo
tyk:_glGetUniformBlockIndex__wrapper
GBg:_Array_CreateInstance_m2696293787
wJh:_UnicodeEncoding__ctor_m1074918879
PXa:__ZN7SubMesh8TransferI18StreamedBinaryReadILb0EEEEvRT_
wVe:_OpCode_Equals_m1376200488_AdjustorThunk
qAd:_ColorBlock_op_Inequality_m2718216889
u2g:_Convert_ToInt16_m2763665794
bf:_emscripten_glIsEnabled
Inc:__Z45Register_UnityEngine_GameObject_get_transformv
kSe:_DerivedType_GetConstructors_m483065502
v7:__Z29scripting_class_instance_size17ScriptingClassPtr
LRc:__Z29Transfer_Blittable_ArrayFieldI8JSONRead5RectTIiEEvRT_R9ArrayInfoRK23StaticTransferFieldInfo
lme:__ZL82RectOffset_t1369453676_CustomAttributesCacheGenerator_RectOffset__ctor_m2718275157P21CustomAttributesCache
ODi:__Z68RuntimeInvoker_Boolean_t97287965_SByte_t1669577662_SByte_t1669577662PFvvEPK10MethodInfoPvPS4_
Vti:__Z165RuntimeInvoker_Void_t1185182177_RuntimeObject_Int32_t2950945753_Int32_t2950945753_RuntimeObject_Int32_t2950945753_Single_t1397266774_Single_t1397266774_RuntimeObjectPFvvEPK10MethodInfoPvPS4_
lGd:_Image_set_preserveAspect_m769358756
O$:__ZN11UnityEngine15CloudWebService19SessionEventManager26ProcessEventQueueJobStaticEPv
GAf:_Mathf_Min_m1073399594
fcf:_KeyCollection__ctor_m4231035512_gshared
i3c:_otv_Coverage_get_last
X_:__ZN11UnityEngine15CloudWebService19SessionEventManager37OnTimerExpiredPerformArchiveJobStaticEPv
hNc:__Z18Transfer_BlittableI9JSONWriteLb1E9BoundsIntEvRK29SerializationCommandArgumentsR31RuntimeSerializationCommandInfo
alg:_DecoderReplacementFallbackBuffer__ctor_m1669699347
gej:_Group_GetWidth_m3299755715
M1g:_Decimal_op_Implicit_m1920400487
zli:__Z253RuntimeInvoker_Int32_t2950945753_RuntimeObject_Int32_t2950945753_Int32_t2950945753_RuntimeObject_Int32_t2950945753_UInt32U26_t3735378166_UInt32U26_t3735378166_RuntimeObject_DecoderFallbackBufferU26_t3866396827_ByteU5BU5DU26_t4057885439_SByte_t1669577662PFvvEPK10MethodInfoPvPS4_
kHa:__ZN10builtintex15GetWhiteTextureEv
LVd:_MonoMethodMessage_get_TypeName_m3758247133
QKg:_Enumerator_get_Entry_m2184304359
y3g:_Convert_ToSByte_m2653811524
Ulk:__ZN6il2cpp6icalls8mscorlib6System10Reflection4Emit11DerivedType21create_unmanaged_typeEP20Il2CppReflectionType
nGd:_Image_set_fillCenter_m3776786491
Blc:__Z39Register_UnityEngine_Sprite_get_texturev
Cyj:__ZL10rescale128PyS_Piiiii
XS:__ZN9AudioClip7WWWSeekEPvjS0_
r_d:__ZL63FixedBufferAttribute_t3759792648_CustomAttributesCacheGeneratorP21CustomAttributesCache
l3:__ZL32StaticInitializeIUnityInterfacesPv
eZb:__Z13CameraProjectRK8Vector3fRK10Matrix4x4fS4_RK5RectTIiERS_b
Rda:__Z22CreateMutexLockedStackv
QJb:__ZNSt3__27__sort5IRNS_4lessIN22BuiltinResourceManager8ResourceEEEPS3_EEjT0_S7_S7_S7_S7_T_
INe:_NumberFormatter_FormatNumber_m1763569482
lJf:_Sprite_get_rect_m2575211689
xWb:__ZN9ShaderLab11ShaderStateD2Ev
Q6c:_Ins_DELTAP
VFb:__Z23TransferScriptingObjectI24GenerateTypeTreeTransferEvRT_18ScriptingObjectPtr17ScriptingClassPtrPK15MonoScriptCache
nbj:_PatternLinkStack_GetOffset_m3697714525
vJj:_AnalyticsEvent__cctor_m3994162614
sIc:__Z19GetSpecificGUIStatei
fJc:__ZN12GUIClipState5ApplyER10InputEvent
Axg:_X509Certificate_GetUnsignedBigInteger_m1025066663
qxb:__ZL17Transfer_GUIStyleI19StreamedBinaryWriteILb0EELb0EEvRK29SerializationCommandArgumentsR31RuntimeSerializationCommandInfo
p1b:__ZN10TextureRef4InitEP7Textureb
_Ef:_PlayerConnectionInternal_UnityEngine_IPlayerEditorConnectionNative_Initialize_m2565175798
lWg:_MonoIO_GetFileType_m101289143
yDa:__Z19ScheduleJobInternalR8JobFencePFvPvES1_11JobPriority
fpa:__ZN9Scripting11UnityEngine12Experimental9Rendering12VisibleLight9InitProxyEv
sng:_KeysCollection_get_Count_m3943311735
QZe:_InternalEnumerator_1_get_Current_m2832154098_gshared
MTh:_Version__ctor_m1550720073
rJj:__ZNSt3__211__tree_nextIPNS_16__tree_node_baseIPvEEEET_S5_
B4j:__ZN15dense_hashtableI10KeyWrapperIP18Il2CppGenericClassES3_N6il2cpp8metadata22Il2CppGenericClassHashEN14dense_hash_setIS3_S6_NS3_14EqualsComparerINS5_25Il2CppGenericClassCompareEEENSt3__29allocatorIS3_EEE8IdentityESA_SD_E14squash_deletedEv
dia:__ZN6prcoreL17RemapGenericFloatI17TexFormatRGBAHalf17TexFormatRGBFloatEEvPKNS_9InnerInfoE
Hfi:__Z52RuntimeInvoker_Double_t594665363_Decimal_t2948259380PFvvEPK10MethodInfoPvPS4_
w2e:_InternalEnumerator_1_get_Current_m784835552_gshared
OGc:__Z35Sprite_Get_Custom_PropPixelsPerUnitP12Il2CppObject
RFj:__ZNSt3__26__sortIRN6il2cpp5utils11collections13ArrayValueMapIPK10Il2CppType17Il2CppInteropData26InteropDataToTypeConverterNS1_8metadata14Il2CppTypeLessENSA_26Il2CppTypeEqualityComparerEE12SortComparerEPS8_EEvT0_SH_T_
i8a:__ZN11PreloadDataD2Ev
aqd:__ZN15DownloadHandler14ProcessHeadersERK9HeaderMap
tXc:__ZNSt3__26vectorINS_4pairIifEE13stl_allocatorIS2_L18MemLabelIdentifier35ELi16EEE6assignINS_11__wrap_iterIPS2_EEEENS_9enable_ifIXaasr21__is_forward_iteratorIT_EE5valuesr16is_constructibleIS2_NS_15iterator_traitsISC_E9referenceEEE5valueEvE4typeESC_SC_
Vb:invoke_iifi
uFg:_Char_System_IConvertible_ToInt16_m975497224_AdjustorThunk
n9g:_Delegate_CreateDelegate_m995503480
Hzk:_emscripten_glGetObjectParameterivARB__wrapper
KMj:__ZNK6il2cpp5utils10StringViewIcE5RFindEc
wSe:_DerivedType_get_Module_m3032466746
KHa:__ZN15SharedLightData15UpdateTransformERK9Transform
OCe:__ZL71InputField_t3762917431_CustomAttributesCacheGenerator_m_OnValidateInputP21CustomAttributesCache
hib:__ZN9GfxDevice24CreateRenderDepthSurfaceE9TextureIDiiii16TextureDimension17DepthBufferFormat18SurfaceCreateFlags
U8b:__ZL30CollectComponentsWithoutAddingR10GameObjectPKN5Unity4TypeE17ScriptingClassPtrR13dynamic_arrayI16AddComponentDataLj0EES9_PN4core12basic_stringIcNSA_20StringStorageDefaultIcEEEE
bK:__ZN18AssetBundleManagerD2Ev
r0j:__ZN6il2cpp2vm9Exception27GetIndexOutOfRangeExceptionEv
poc:__Z44Register_UnityEngine_RectOffset_get_verticalv
uTf:_MaskableGraphic_set_maskable_m243551751
usa:__ZN5Unity9Component8TransferI14SafeBinaryReadEEvRT_
UFh:_List_1_System_Collections_IList_Remove_m2702745770_gshared
eh:_JS_SystemInfo_GetCurrentCanvasHeight
XWe:_ArrayReadOnlyList_1_IndexOf_m1911574180_gshared
dTf:_Mask_OnEnable_m2186824439
ENf:_InputField_SetCaretVisible_m2216480850
Xtg:_X509EnhancedKeyUsageExtension_CopyFrom_m3750050754
kMa:__ZNK8Material22GetTypeVirtualInternalEv
NJc:__Z34GUIStyle_Get_Custom_PropFixedWidthP12Il2CppObject
u$h:_ReadOnlyCollection_1_System_Collections_IList_Clear_m1076810235_gshared
mEh:_Enumerator_System_Collections_IEnumerator_get_Current_m3405349194_AdjustorThunk
xBg:_Array_SetValue_m3412648248
P8j:__ZN6il2cpp2gc16GarbageCollector11GetWeakLinkEPPv
k9j:__GLOBAL__sub_I_Console_cpp
Vha:__ZN6prcoreL17RemapGenericFloatI14TexFormatRHalf17TexFormatRGBAHalfEEvPKNS_9InnerInfoE
w$f:_BigInteger_GetBytes_m1259701831
_Mj:__ZN6il2cpp2vm7Runtime11InvokeArrayEPK10MethodInfoPvP11Il2CppArrayPP15Il2CppException
Djg:_String_memcpy_m2826223007
H2i:_RijndaelManaged_CreateDecryptor_m1421727258
V6c:_Dual_Project
njb:__ZN9GfxDevice15BeginFrameStatsEv
dEh:_Enumerator_MoveNext_m2407049913_gshared
eJh:_StringBuilder_Replace_m1682610486
zRb:__ZN4gles20EnsureTextureCreatedEP7ApiGLESP17RenderSurfaceGLES
Nra:__ZN9Scripting5Unity11Collections8LowLevel6Unsafe48NativeDisableContainerSafetyRestrictionAttribute9InitProxyEv
PZb:__ZN15ReplacementPass13PrepareSubsetEjRK10RenderNodeifRK17ShaderReplaceData
XP:__Z32AudioMeasurement_GetTimeConstantff
Ebk:__ZN6il2cpp8metadata11FieldLayout12LayoutFieldsEjjjRKNSt3__26vectorIPK10Il2CppTypeNS2_9allocatorIS6_EEEERNS1_15FieldLayoutDataE
Ncb:__ZNK20LocalFileSystemPosix9EnumerateEPKcP19dynamic_block_arrayI13FileEntryInfoLj32EEbPPv19FileEnumerationFlag
$Jd:_MethodInfo_MakeGenericMethod_m1996785325
Msd:_BaseInputModule_DetermineMoveDirection_m770437496
sSd:_Context_get_HasGlobalDynamicSinks_m3672814609
aaj:_Match__ctor_m2464595873
i6b:__ZL27PrepareSceneNodesJobCombineP25ScheduleSceneNodesJobData
_D:__ZN9BlobWrite8TransferIN7mecanim12statemachine18StateMachineMemoryEEEvRT_PKc17TransferMetaFlags
t8i:_X509CertificateEnumerator_Reset_m1825523691
qqb:__Z22TransferField_NonArrayI14SafeBinaryRead27Converter_SimpleNativeClassI8GUIStyleEEvRK23StaticTransferFieldInfoR31RuntimeSerializationCommandInfoRT0_
tTj:__ZN14dense_hash_mapI10KeyWrapperIPK10Il2CppTypeEjN6il2cpp8metadata14Il2CppTypeHashENS4_14EqualsComparerINS6_26Il2CppTypeEqualityComparerEEENSt3__29allocatorINSB_4pairIKS4_jEEEEEC2EjRKS7_RKSA_
TKb:__ZN13GfxDeviceGLESD2Ev
uec:__ZNSt3__26vectorIN9ShaderLab26SerializedShaderDependencyENS_9allocatorIS2_EEE6resizeEj
DKi:_Activator_CreateInstance_TisRuntimeObject_m729575857_gshared
Lda:__ZN18AsyncUploadManager13StaticDestroyEPv
VWc:__ZN9Scripting11UnityEngine4Font9InitProxyEv
Xdc:__ZN6Shader7SetNameEPKc
$9b:__ZN19CustomRenderTexture22HandleBoundaryWrappingERKNS_14UpdateZoneInfoEj
qvj:_TextGenerationSettings_CompareColors_m3051734236
lJj:__ZN6il2cpp2vm13MetadataCache32GenerateCustomAttributeTypeCacheEi
ihg:_Single_Equals_m438106747
hne:__ZL101Time_t2420636075_CustomAttributesCacheGenerator_Time_t2420636075____realtimeSinceStartup_PropertyInfoP21CustomAttributesCache
Bpd:__ZN20UnityWebRequestProtoI24UnityWebRequestTransport16AtomicRefCounter14RedirectHelper14ResponseHelper15DownloadHandler13UploadHandler18CertificateHandler12HeaderHelper14AsyncOperationE35Task_FinalizeAfterDHCompleteContentEPv
LOd:_RuntimeResourceSet__ctor_m2765575100
Nic:__ZN9ShaderLab9SubShader31UpdateLightModeToPassIndexTableEv
R7f:_TlsClientCertificate_ProcessAsSsl3_m3265529850
GC:__ZNK11UnityEngine9Animation30GenericBindingValueArrayUniqueclERKNS0_14GenericBindingES4_
vkg:_ASCIIEncoding_GetChars_m2543669481
uoh:_BigInteger_IsProbablePrime_m567194283
QUe:_MethodBuilder_GetCustomAttributes_m731278908
_6c:_Direct_Move_Y
Y6c:_Direct_Move_X
ymi:__Z51RuntimeInvoker_Single_t1397266774_Double_t594665363PFvvEPK10MethodInfoPvPS4_
Bi:_glClearDepthf
dBc:__ZN19SkinnedMeshRenderer7GetMeshEv
AHa:__ZN19RuntimeSceneManager14GetActiveSceneEv
Nqk:_memcpy
RJb:__ZNSt3__218__insertion_sort_3IRNS_4lessIN22BuiltinResourceManager8ResourceEEEPS3_EEvT0_S7_T_
Cmf:_MultiArrayFixupRecord_FixupImpl_m1721674130
vMj:__ZN6il2cpp6icalls8mscorlib6SystemL8IsStaticEPK9EventInfo
V2c:_otv_LookupList_validate
h4d:__ZL49_Module_t135161706_CustomAttributesCacheGeneratorP21CustomAttributesCache
jBh:_GenericEqualityComparer_1_Equals_m687841776_gshared
vqc:__Z57Register_UnityEngine_Transform_INTERNAL_get_localPositionv
m4b:__ZNSt3__27__sort4IR15ReflProbeSorterPP15ReflectionProbeEEjT0_S6_S6_S6_T_
ZEa:__ZN16GraphicsSettings10SmartResetEv
Bkc:__ZN19StreamedBinaryWriteILb0EE4InitE24TransferInstructionFlags20BuildTargetSelection
_Uf:_DelegatePInvokeWrapper_GetRayIntersectionAllCallback_t3913627115
MAj:__ZN15dense_hashtableINSt3__24pairIK10KeyWrapperIPK22Il2CppGenericParameterEP11Il2CppClassEES6_N6il2cpp5utils11PointerHashIS4_EEN14dense_hash_mapIS6_S9_SE_NS6_14EqualsComparerINS0_8equal_toIS5_EEEENS0_9allocatorISA_EEE9SelectKeyESJ_SL_E9copy_fromERKSO_j
Aph:_ASN1Convert_ToInt32_m254930636
Sad:__GLOBAL__sub_I_artifacts_WebGL_codegenerator_0_cpp_6461
cx:__ZN7mecanim8skeleton25SkeletonPoseComputeGlobalIN4math4trsXEEEvPKNS0_8SkeletonEPKNS0_13SkeletonPoseTIT_EEPS9_ii
VSh:_UInt64_ToString_m1529093114
Asc:__ZNK28RectTransformPropertyBinding9BindValueER6ObjectRKN11UnityEngine9Animation14GenericBindingERNS3_10BoundCurveE
vd:_emscripten_glLoadMatrixf
x4:__ZL33TransformAccessArray_CleanupClassPv
BAf:_Material_SetInt_m1783799378
dBg:_Array_GetLength_m2178203778
Azf:_Input_GetMouseButtonDown_m2081676745
VQg:_Int16_System_IConvertible_ToDouble_m1661805412_AdjustorThunk
B0a:__ZN4Mesh14UploadMeshDataEb
WBk:_emscripten_glCreateProgram__wrapper
xGb:__ZN18ScreenManagerWebGL17RestoreCursorLockEv
yvc:__ZN14RenderSettings12CleanupClassEv
xlc:__Z43DataUtility_CUSTOM_INTERNAL_CALL_GetPaddingP12Il2CppObjectR8Vector4f
RT:__ZN21AudioScriptingClasses26InvokeOnAudioManagerUpdateEP21ScriptingExceptionPtr
elb:__ZN18AsyncUploadManager15DoDeCruncherJobEP26FileAssetUploadInstruction
cjb:__ZN9GfxDevice15ImmediateNormalEfff
jLf:_Enumerator__ctor_m1351041375
ksd:_BaseInput_get_compositionString_m1887614380
svb:__ZN13GUIStyleState8TransferI24GenerateTypeTreeTransferEEvRT_
fyk:_emscripten_glGetActiveAttrib__wrapper
tZa:__ZN9Texture3D23VirtualRedirectTransferER14SafeBinaryRead
uqd:__Z33CertificateHandler_CUSTOM_ReleaseP12Il2CppObject
PGi:_Array_InternalArray__set_Item_TisVector2_t2156229523_m2671087464_gshared
KLi:_Array_InternalArray__get_Item_TisVector4_t3319028937_m1117939728_gshared
Tfc:__ZNSt3__26vectorIN9ShaderLab20SerializedSubProgram16TextureParameterENS_9allocatorIS3_EEE8__appendEj
l8i:_X509CertificateCollection_Contains_m743657353
jVg:_DirectoryInfo_Initialize_m1389772934
ZSa:__ZN9Texture2D13UploadTextureEi
NQb:__ZN7ApiGLES9MapBufferEjN2gl12BufferTargetEllj
XO:__ZN4FMOD6System19setSoftwareChannelsEi
vkb:__ZN9GfxDevice19SetSinglePassStereoE16SinglePassStereo
Lqk:_bitshift64Lshr
bDa:__Z40BuildSingleStreamChannelInfoWithDefaultsP11ChannelInfoRK20VertexChannelsLayout17ShaderChannelMaskS4_S4_
lKg:_Hashtable_System_Collections_IEnumerable_GetEnumerator_m2751657639
tGc:__Z62ScriptableObject_CUSTOM_CreateScriptableObjectInstanceFromTypeP12Il2CppObject
HUd:_HeaderHandler_Invoke_m3513051789
bFe:__ZL77CanvasScaler_t2767979955_CustomAttributesCacheGenerator_m_ReferenceResolutionP21CustomAttributesCache
Ggi:__Z144RuntimeInvoker_RuntimeObject_RuntimeObject_Int32_t2950945753_RuntimeObject_RuntimeObject_RuntimeObject_RuntimeObject_RuntimeObject_RuntimeObjectPFvvEPK10MethodInfoPvPS4_
gPh:_Type_get_IsPointer_m4067542339
v_f:_Text_get_supportRichText_m1837499160
Qrc:__Z60Register_UnityEngine_Input_INTERNAL_set_compositionCursorPosv
VDf:_Vector3_Magnitude_m3447562852
utf:_Component__ctor_m1928064382
isk:dynCall_viiiii
osk:dynCall_viiiif
N5b:__Z59ProcessShadowCasterNodeVisibilityAndCullWithoutUmbra_KernelILN17CullingParameters9LayerCullE1ELi12EEvR9IndexListRK22SceneCullingParametersPK9SceneNodePK4AABBjjPKN4math7_float4E
X8c:_Cubic_To
j6f:_Context_get_Protocol_m1078422015
Cpc:__Z37Register_UnityEngine_Application_Quitv
nFc:__Z44Register_UnityEngine_Camera_get_farClipPlanev
jr:__Z25InverseTransformDirection23TransformAccessReadOnlyRKN4math7_float3Eb
b8f:_TlsClientHello_Update_m3773127362
ymj:_ToggleGroup_SetAllTogglesOff_m4184050071
D6j:__ZN6il2cpp2gc16GarbageCollector14GetOrCreateCCWEP12Il2CppObjectRK10Il2CppGuid
L3j:__ZN6il2cpp2vm5Image21FromTypeNameParseInfoEPK11Il2CppImageRKNS0_17TypeNameParseInfoEb
RKe:_MonoCustomAttrs_IsDefined_m2996012389
ZNb:__ZN17BufferManagerGLES13AcquireBufferEjN14DataBufferGLES11BufferUsageEb
Rvj:_TextGenerator_PopulateAlways_m1922695746
b3g:_Decimal__ctor_m3650533794
BTf:_MaskableGraphic_UpdateClipParent_m2605828397
Ddg:_TripleDESTransform_GetStrongKey_m292426577
fRe:_AssemblyBuilder_get_Location_m384539722
gnd:__ZN16UnityAdsSettingsD0Ev
bQb:__ZNK7ApiGLES10DebugLabelEN2gl10ObjectTypeEjPKc
yoa:__ZN9Scripting11UnityEngine9Matrix4x412CleanupProxyEv
KVg:_DirectoryNotFoundException__ctor_m4004339866
vqk:__ZNK10__cxxabiv121__vmi_class_type_info16search_below_dstEPNS_19__dynamic_cast_infoEPKvib
Avj:_TextGenerator__ctor_m1349784994
lUf:_Navigation_Equals_m317484440
M0i:_Collection_1_System_Collections_IList_set_Item_m876512695_gshared
zlc:__Z38DataUtility_CUSTOM_Internal_GetMinSizeP12Il2CppObjectP13Vector2fIcall
Czc:__ZN8PlayableC2E17ScriptingClassPtr18DirectorPlayerType
rMf:_Vector3_Distance_m886789632
Hlf:_ObjectReader_ReadObjectGraph_m1689734232
xCf:_MonoBehaviour_StopCoroutine_m907039165
AWj:_il2cpp_class_has_attribute
gqh:_DSAManaged_get_KeySize_m2738463749
DG:__ZN14SafeBinaryRead21TransferSTLStyleArrayI13dynamic_arrayIjLj0EEEEvRT_17TransferMetaFlags
bja:__ZN6prcoreL12RemapGenericI15TexFormatRGB88817TexFormatARGB8888EEvPKNS_9InnerInfoE
PMf:_Vector4_op_Subtraction_m1632208160
T7:__Z27FindOrCreateMonoScriptCache17ScriptingClassPtr22InitScriptingCacheTypeP6Objecti
pBb:__Z18Transfer_BlittableI18StreamedBinaryReadILb0EELb1E8Vector3fEvRK29SerializationCommandArgumentsR31RuntimeSerializationCommandInfo
vgd:__ZN2UI14CanvasRenderer13SyncVertexPtrER8JobFenceNS0_8SyncFlagE
zNg:_CultureInfo_GetFormat_m732021304
j8:__Z35scripting_method_get_argument_count18ScriptingMethodPtr
Lli:__Z46RuntimeInvoker_RuntimeObject_Double_t594665363PFvvEPK10MethodInfoPvPS4_
vlg:_EncoderReplacementFallback__ctor_m2980727890
cHg:_ArrayList_Synchronized_m1327684267
lmc:__Z20Gradient_CUSTOM_InitP12Il2CppObject
RJd:_MethodBase_get_IsPublic_m2180846589
rKc:__Z48Register_UnityEngine_GUIUtility_Internal_ExitGUIv
Wwh:_DefaultComparer_Equals_m2574572657_gshared
sWg:_FileStream_get_CanWrite_m1199612770
m6b:__ZL21CullDynamicObjectsJobP14CullingJobDataj
Ccd:__ZN2UI15ClearCanvasDataER8JobFenceRNS_10CanvasDataE
SId:_TypeBuilder_get_IsGenericParameter_m1751799710
Aac:__ZN14ManagerContext17InitializeClassesEv
e$:__ZNSt3__26__treeINS_12__value_typeIN19CloudServiceHandler11ServiceTypeEPS2_EENS_19__map_value_compareIS3_S5_NS_4lessIS3_EELb1EEE13stl_allocatorIS5_L18MemLabelIdentifier88ELi16EEE25__emplace_unique_key_argsIS3_JRKNS_21piecewise_construct_tENS_5tupleIJRKS3_EEENSI_IJEEEEEENS_4pairINS_15__tree_iteratorIS5_PNS_11__tree_nodeIS5_PvEEiEEbEERKT_DpOT0_
pK:__ZN19StreamedBinaryWriteILb0EE21TransferSTLStyleArrayINSt3__26vectorI14ConstantStringNS2_9allocatorIS4_EEEEEEvRT_17TransferMetaFlags
Ezb:__ZN18StreamedBinaryReadILb1EE21TransferSTLStyleArrayI31ArrayOfManagedObjectsTransfererEEvRT_17TransferMetaFlags
EYf:_Selectable_get_spriteState_m1246443483
jUh:_Collection_1_System_Collections_ICollection_CopyTo_m787979241_gshared
f2h:_ReadOnlyCollection_1_System_Collections_Generic_ICollectionU3CTU3E_Clear_m1551418550_gshared
XB:__ZN8Animator24SetupAnimationClipsCacheEv
$rk:dynCall_viiiiiiiiii
x8c:_t1_hints_open
ZLe:_MonoType_get_AssemblyQualifiedName_m2662925380
wzf:_GUILayer_INTERNAL_CALL_HitTest_m1069802956
o$f:_BigInteger_GenerateRandom_m3872771375
XEi:__Z75RuntimeInvoker_RuntimeObject_Single_t1397266774_RuntimeObject_RuntimeObjectPFvvEPK10MethodInfoPvPS4_
xN:__ZN4FMOD7Channel11getUserDataEPPv
SIi:_Array_swap_TisBoolean_t97287965_TisBoolean_t97287965_m1115288271_gshared
T3c:_UNITY_tt_face_load_gasp
I_f:_Text_set_fontSize_m3617617524
d_c:_ft_ansi_stream_close
im:_JS_Sound_SetPitch
lMh:_Thread_FreeLocalSlotValues_m1195763560
dgg:_String_IndexOf_m1977622757
oXj:_il2cpp_runtime_invoke_convert_args
zxd:_TouchInputModule_Process_m3715678669
Nhi:__Z114RuntimeInvoker_Int32_t2950945753_RuntimeObject_Int32_t2950945753_Int32_t2950945753_RuntimeObject_Int32_t2950945753PFvvEPK10MethodInfoPvPS4_
xGg:_ArrayList__cctor_m3052737821
r9:__ZN4core8hash_mapIiP4RTTIN11TypeManager27HashFunctorPersistentTypeIDENSt3__28equal_toIiEEE6insertERKiRKS2_
s$j:__ZN6il2cpp6icalls8mscorlib6System2IO6MonoIO11GetFileStatEP12Il2CppStringPNS3_8FileStatEPi
Mjb:__ZN9GfxDevice33InsertCustomMarkerCallbackAndDataEPFviPvEiS0_j
RZb:__ZNK9ShaderLab9IntShader6GetTagE11ShaderTagIDb
u3b:__Z25CalculateShadowCasterCullbPK5PlaneRK10Matrix4x4fRK8Vector3fff9LightTypeS7_R16ShadowCasterCullPKb
iqa:__ZN9Scripting11UnityEngine8EnumInfo12CleanupProxyEv
fed:__ZN2UI14CanvasRenderer11SetMaterialEP8Materiali
Fhg:_String__ctor_m229724522
b2d:__ZL54AssemblyName_t270931938_CustomAttributesCacheGeneratorP21CustomAttributesCache
VJa:__ZNK13RenderTexture37IsBoundMultisampledOnSecondaryTextureEv
Oek:_GC_freehblk
j5i:_X509ExtensionCollection__ctor_m551870633
Ssc:__ZZL31RegisterRectTransformPropertiesR22GenericPropertyBindingEN32Wrapper_RectTransformAnchorMinx013GetFloatValueEPv
XUe:_MethodBuilder_MakeGenericMethod_m2175748754
P$b:__Z28RenderSceneShaderReplacementRK13dynamic_arrayI16RenderObjectDataLj0EERK19SharedRendererSceneP6ShaderRKN4core12basic_stringIcNS9_20StringStorageDefaultIcEEEER17ShaderPassContext
ybj:_QuickSearch_Search_m3063517397
J9e:_Enumerator_Reset_m2443320674_gshared
I7c:_ft_var_get_value_pointer
Ed:_glClearColor
QCc:__ZN9Scripting35DestroyObjectFromScriptingImmediateEP6Objectb
RCg:_AsyncCallback_Invoke_m3156993048
m7b:__ZNK6Camera48AreVRStereoViewMatricesWithinSingleCullToleranceEv
Bz:__ZN7mecanim5human25HumanPoseAddAdditiveLayerERNS0_9HumanPoseERKS1_fRKNS_6bitsetILj83EEE
Kyk:_glGetRenderbufferParameteriv__wrapper
hsh:_SymmetricTransform_FinalDecrypt_m1677319445
wSg:_Int32_Equals_m3996243976_AdjustorThunk
thc:__ZN24GenerateTypeTreeTransfer8TransferINSt3__26vectorIN9ShaderLab20SerializedSubProgram12UAVParameterENS1_9allocatorIS5_EEEEEEvRT_PKc17TransferMetaFlags
nc:invoke_iiiiiiiiiiiiiii
I9j:__ZN6il2cpp2os6Thread33UnregisterCurrentThreadForCleanupEv
kBk:_emscripten_glIsRenderbuffer__wrapper
h3c:_otv_Coverage_get_first
tbd:__ZN2UI11CanvasGroup8TransferI19StreamedBinaryWriteILb0EEEEvRT_
GVg:_DirectoryInfo__ctor_m1000259829
LAa:__ZNK20IntermediateRenderer8GetLayerEv
iMg:_CultureInfo_ConstructInvariant_m3774343375
VXb:__ZN10Instancing10SetKeywordER16ShaderKeywordSetNS_7KeywordE
CTa:__ZN15QualitySettings8TransferI14SafeBinaryReadEEvRT_
RBg:_Array_ClearInternal_m532048538
a3i:_RIPEMD160Managed_HashCore_m2350629432
e1g:_DateTime__ctor_m12900168
obi:_IndexedSet_1_Insert_m1432638049_gshared
RXf:_ScrollRect_CalculateOffset_m927043599
FKi:_Array_FindLast_TisRuntimeObject_m1088586648_gshared
jTf:_Mask_GetModifiedMaterial_m2692272647
Mid:__ZN9Scripting11UnityEngine14RemoteSettings12CleanupProxyEv
kEc:__Z44Register_UnityEngine_RenderTexture_get_widthv
Mvf:_CullingGroup_t2096318768_marshal_pinvoke_back
W3j:__ZNSt3__26vectorIN6il2cpp2vm5Image20EmbeddedResourceDataENS_9allocatorIS4_EEE21__push_back_slow_pathIS4_EEvOT_
Zjk:__ZN6il2cpp2os9FastMutexD2Ev
Esk:dynCall_viiiiiif
Lij:_GUIUtility_EndGUIFromException_m3524906492
c7:__ZN14SerializedFile10ReadObjectEx18ObjectCreationModebPPK8TypeTreePbR6Object
Edj:_Expression_GetFixedWidth_m945658
CTi:_List_1_RemoveAll_m818254423_gshared
jej:_Literal_Compile_m2228022079
UJb:__ZN14dynamic_bitset6resizeEjb
S7c:_tt_property_get
Fch:_Array_InternalArray__ICollection_Contains_TisSlot_t3975888750_m58971838_gshared
oZ:__ZN11UnityEngine15CloudWebService10RestClientINS0_23WebRequestRestHeaderMapEE7SetDataEPKhj
iE:__ZN7mecanim8skeleton16SkeletonPoseCopyIN4math4trsXES3_EEvPKNS0_13SkeletonPoseTIT_EEPNS4_IT0_EE
cDj:__ZN14dense_hash_mapI10KeyWrapperIPK11Il2CppClassEPKcN6il2cpp5utils11PointerHashIS1_EENS4_14EqualsComparerINSt3__28equal_toIS3_EEEENSC_9allocatorINSC_4pairIKS4_S6_EEEEE15set_deleted_keyERSI_
hhb:__ZN9GfxDevice34SetStencilRefWhenStencilWasSkippedEi
Nrg:_X509Certificate2_Reset_m3988214799
mc:invoke_fi
Pik:__ZN6il2cpp6icalls8mscorlib6System10Reflection4Emit11TypeBuilder20create_runtime_classEP27Il2CppReflectionTypeBuilderS7_
h2:__ZL21InternalAssertConsolePKcz
kc:invoke_ff
Arh:_RSAManaged_add_KeyGenerated_m3688329863
maf:_Enumerator_get_CurrentKey_m3735262888_gshared
Tqf:_HashAlgorithm_TransformFinalBlock_m3005451348
uQg:_Guid_NewGuid_m923091018
xd:_emscripten_glVertexAttrib3f
BQj:__ZN30dense_hashtable_const_iteratorINSt3__24pairIK10KeyWrapperINS1_IPK11Il2CppImageP11Il2CppClassEEEjEES9_17ReflectionMapHashIS8_EN14dense_hash_mapIS9_jSD_NS9_14EqualsComparerINS0_8equal_toIS8_EEEENS0_9allocatorISB_EEE9SelectKeyESI_SK_EppEv
Ddk:__ZThn8_N6il2cpp2vm13CachedCCWBaseINS0_13ManagedObjectEE7DestroyEv
wbg:_RSAPKCS1SignatureDeformatter_SetKey_m614724234
BJh:_UnicodeEncoding_GetByteCount_m3498858619
sMh:_Thread_GetSerializedCurrentUICulture_m3681656498
Fbh:_Enum_ToObject_m26687919
uai:_UnityEvent_1_FindMethod_Impl_m555893253_gshared
bYc:__ZN20TextRenderingPrivate8TextMesh11ApplyToMeshEv
Ldh:_Array_InternalArray__ICollection_Remove_TisSlot_t384495010_m635565498_gshared
Cuk:_emscripten_glDrawRangeElements__wrapper
yza:__Z28scripting_class_is_valuetype17ScriptingClassPtr
Bna:__ZN9Scripting11UnityEngine9Rendering13CommandBuffer9InitProxyEv
Ycc:__ZNSt3__25dequeI10InputEventNS_9allocatorIS1_EEE19__add_back_capacityEv
G0a:__ZN14BlendShapeDataD2Ev
oQb:__ZL18ProgramUniform3uivPK7ApiGLESjiihPKv
T2i:_RijndaelTransform_Encrypt128_m1940909042
eLe:_MonoEnumInfo_get_Cache_m752167006
$dd:__Z47CanvasRenderer_Set_Custom_PropHasPopInstructionP12Il2CppObjecth
HBf:_Mesh_get_uv3_m3614955461
ASa:__ZN5Image8SetImageEii13TextureFormatb
A8:__ZN17MessageIdentifier21GetRegisteredMessagesEv
A7j:__ZN6il2cpp2vm5Array3NewEP11Il2CppClassj
e$e:_InternalEnumerator_1_get_Current_m3900374024_gshared
K9i:_DelegatePInvokeWrapper_CostDelegate_t1722821004
yIg:_SynchronizedArrayListWrapper_CopyTo_m2886332653
umg:_HybridDictionary_Remove_m2295600623
J2j:__GLOBAL__sub_I_Image_cpp
xcg:_SHA512Managed__ctor_m330347986
KNa:__ZNSt3__27__sort5IRPFbRKNS_4pairIN9ShaderLab16FastPropertyNameEfEES6_EPS4_EEjT0_SB_SB_SB_SB_T_
bF:__ZN11UnityEngine9Animation23SetMotionXProperyValuesERKNS0_30AnimatorGenericBindingConstantERKN7mecanim9animation14AvatarConstantERKNS5_12AvatarOutputE15TransformAccessy
sw:__ZN7mecanim9animation17GetClipCurveCountERKNS0_18ClipMuscleConstantE
Ekk:__ZNSt3__26vectorINS_12basic_stringIDsNS_11char_traitsIDsEENS_9allocatorIDsEEEENS4_IS6_EEE8__appendEj
hoh:_Kernel_LeftShift_m3302851050
Uak:__ZN14dense_hash_mapI10KeyWrapperIPK19Il2CppGenericMethodEP10MethodInfoN6il2cpp8metadata23Il2CppGenericMethodHashENS4_14EqualsComparerINS8_26Il2CppGenericMethodCompareEEENSt3__29allocatorINSD_4pairIKS4_S6_EEEEE15set_deleted_keyERSG_
Krb:__Z29Transfer_Blittable_ArrayFieldI14SafeBinaryRead4AABBEvRT_R9ArrayInfoRK23StaticTransferFieldInfo
SRc:__ZN8JSONRead21TransferSTLStyleArrayI13dynamic_arrayI8Vector4fLj0EEEEvRT_17TransferMetaFlags
Nhd:__ZN14UnityAnalytics15SendCustomEventEPN11UnityEngine9Analytics15UserCustomEventE
f9f:_RecordProtocol_SendRecord_m515492272
CRd:_ConfigHandler_ReadProvider_m3620509535
Fzj:_UnityAnalyticsHandler_Internal_Destroy_m2102025341
Iye:__ZL56g_UnityEngine_UI_Assembly_CustomAttributesCacheGeneratorP21CustomAttributesCache
$Oe:_Random__ctor_m4122933043
ooc:__Z46Register_UnityEngine_RectOffset_get_horizontalv
rOa:__ZN18DelayedCallManager8ClearAllEv
kfi:__Z180RuntimeInvoker_RuntimeObject_RuntimeObject_Int32_t2950945753_RuntimeObject_Int32U26_t1369213839_BooleanU26_t4125257963_BooleanU26_t4125257963_Int32U26_t1369213839_SByte_t1669577662PFvvEPK10MethodInfoPvPS4_
EFc:__Z22Mesh_CUSTOM_HasChannelP12Il2CppObject30InternalScriptingShaderChannel
f1f:_ASN1Convert_ToInt32_m2228176117
Iwj:_CanvasGroup_get_interactable_m1362547832
P4b:__ZNK25RenderPrePassObjectSorterclERK16RenderObjectDataS2_
DOd:_ResourceSet_Dispose_m1823973062
Z5e:_InternalEnumerator_1_System_Collections_IEnumerator_get_Current_m3537550566_AdjustorThunk
Pzb:__Z22TransferField_NonArrayI18StreamedBinaryReadILb1EE27Converter_SimpleNativeClassI8GUIStyleEEvRK23StaticTransferFieldInfoR31RuntimeSerializationCommandInfoRT0_
le:_Mix_LoadWAV_RW
B2f:_EncryptedPrivateKeyInfo__ctor_m25839594
nje:__ZL81Mesh_t3648964284_CustomAttributesCacheGenerator_Mesh_get_subMeshCount_m3992802841P21CustomAttributesCache
Ox:__ZN7mecanim6memory16MecanimAllocator8AllocateEjj
JRb:__Z13IsFloatFormat14GraphicsFormat
kCe:__ZL84GraphicRaycaster_t2999697109_CustomAttributesCacheGenerator_m_IgnoreReversedGraphicsP21CustomAttributesCache
NUe:_MethodBuilder_Invoke_m3837446660
sC:__ZNSt3__27__sort4IRNS_6__lessIN11UnityEngine9Animation13CachedBindingES4_EEPS4_EEjT0_S8_S8_S8_T_
j1h:_ReadOnlyCollection_1_System_Collections_IList_Clear_m12445504_gshared
B5j:__ZN6il2cpp2gcL12alloc_handleEPNS0_10HandleDataEP12Il2CppObjectb
$Kf:_Transform_get_worldToLocalMatrix_m399704877
Q9i:_Enumerator_MoveNext_m55255603
_le:__ZL57SpaceAttribute_t3956583069_CustomAttributesCacheGeneratorP21CustomAttributesCache
$pg:_WebRequest_AddDynamicPrefix_m4246631209
kjh:_Array_InternalArray__ICollection_Add_TisRefEmitPermissionSet_t484390987_m1720891963_gshared
C9:__ZL16ReadTypeTreeImplILb1EEbR8TypeTreeRK16TypeTreeIteratorRPKhS6_i
Gjk:__ZN6il2cpp6icalls8mscorlib6System11Diagnostics10StackTrace9get_traceEP15Il2CppExceptionib
YVe:_Action_3_Invoke_m1376317295_gshared
Ihf:_Dictionary_2_set_Item_m3327106492_gshared
De:_glBlendEquationSeparate
sm:_emscripten_glDeleteVertexArrays
dNb:__ZN13GfxDeviceGLES17SetComputeUniformE12ObjectHandleI18ComputeProgram_TagPvER18ComputeShaderParamjPKv
VAk:b95
tcj:_Parser_IsNameChar_m698176442
$Ni:_List_1_RemoveAt_m3459335427_gshared
zAk:_emscripten_glValidateProgram__wrapper
jBc:__ZN13MeshScripting27PrintErrorCantAccessChannelEPK4Mesh30InternalScriptingShaderChannel
uMf:_Vector3_get_sqrMagnitude_m1474274574_AdjustorThunk
u6i:_GeneralNames_ToString_m489778282
Ke:_emscripten_glUniform3fv
odh:_Array_InternalArray__ICollection_Contains_TisRaycastHit2D_t2279581989_m2733133723_gshared
_$g:_Convert_ToByte_m1442000130
Xag:_RSACryptoServiceProvider_get_KeySize_m2654153358
n0j:__ZN6il2cpp2vm9Exception20GetArgumentExceptionEPKcS3_
DSc:__Z29Transfer_Blittable_ArrayFieldI8JSONReadiEvRT_R9ArrayInfoRK23StaticTransferFieldInfo
IFh:_Enumerator_MoveNext_m625797905_AdjustorThunk
CHi:_Array_Resize_TisCustomAttributeTypedArgument_t2723150157_m3021884250_gshared
Jyk:_glDrawArrays__wrapper
_V:__ZN9AudioClip27IsFormatSupportedByPlatformERKN4core12basic_stringIcNS0_20StringStorageDefaultIcEEEE
amb:__ZN16GeometryJobTasks20ScheduleGeometryJobsER9GfxDevicePFvP15GeometryJobDataEPK22GeometryJobInstructionjb
ghc:__ZN9ShaderLab26SerializedShaderDependency8TransferI24GenerateTypeTreeTransferEEvRT_
B8h:_InvokableCall_3_Invoke_m3141788616_gshared
dbj:_PatternCompiler_EmitUntil_m3644194775
h4c:_UNITY_FT_Match_Size
jy:__ZN7mecanim20CreateValueArrayMaskEPKNS_18ValueArrayConstantERNS_6memory9AllocatorE
Pqh:_KeyPairPersistence_ToXml_m812591779
DLe:_MonoType_GetFields_internal_m776921855
fkd:__ZN11UnityEngine7Connect14AppUpdateEventC2Ev
_Nd:_ResourceReader_Dispose_m3597121875
fza:__ZN12ImageFilters17RemoveImageFilterERK11ImageFilter
ytf:_BootConfigData__ctor_m4255151374
WEf:_PlayerConnectionInternal_UnityEngine_IPlayerEditorConnectionNative_RegisterInternal_m1817895617
bYe:_InternalEnumerator_1_get_Current_m3073360606_AdjustorThunk
xdk:__ZThn4_N6il2cpp2vm13ManagedObject14QueryInterfaceERK10Il2CppGuidPPv
Njb:__ZN9GfxDevice31InsertCustomBlitCallbackAndDataEPFviPvER33UnityRenderingExtCustomBlitParams
LUb:__Z32AddPathRemapsForBuiltinResourcesRKN4core12basic_stringIcNS_20StringStorageDefaultIcEEEE
TGa:__ZN14RenderSettings23VirtualRedirectTransferER24GenerateTypeTreeTransfer
atb:__ZL26Transfer_SimpleNativeClassI17RemapPPtrTransfer17AnimationCurveTplIfELb0EEvRK29SerializationCommandArgumentsR31RuntimeSerializationCommandInfo
wti:__Z82RuntimeInvoker_Single_t1397266774_RuntimeObject_TextGenerationSettings_t1351628751PFvvEPK10MethodInfoPvPS4_
aOf:_InputField_set_caretWidth_m707310868
um:_glDeleteTransformFeedbacks
D5h:_U3CCreateWhereIteratorU3Ec__Iterator1D_1_MoveNext_m612748497_gshared
pf:_JS_WebRequest_Send
Hdk:__ZN6il2cpp2os4Time31GetTicks100NanosecondsMonotonicEv
vak:__ZNSt3__26__treeINS_12basic_stringIcNS_11char_traitsIcEENS_9allocatorIcEEEENS_4lessIS6_EENS4_IS6_EEE16__construct_nodeIJRKS6_EEENS_10unique_ptrINS_11__tree_nodeIS6_PvEENS_22__tree_node_destructorINS4_ISH_EEEEEEDpOT_
FVg:_MonoIO_GetFileSystemEntries_m37351365
D3g:_Convert_ToSByte_m516918950
hxk:_emscripten_glGenRenderbuffers__wrapper
DCf:_MonoBehaviour_print_m330341231
THf:_ReapplyDrivenProperties_Invoke_m1151937880
S2i:_RijndaelTransform_ECB_m670662322
nJj:__ZN6il2cpp2vm13MetadataCache21GetFieldInfoFromIndexEj
cve:__ZL62EventType_t3528516131_CustomAttributesCacheGenerator_mouseDragP21CustomAttributesCache
EDg:_Boolean_System_IConvertible_ToDouble_m2859188631_AdjustorThunk
kX:__ZN5physx14PxLightCpuTaskD2Ev
Oq:__ZNSt3__26vectorIN4core12basic_stringIcNS1_20StringStorageDefaultIcEEEENS_9allocatorIS5_EEE6assignINS_11__wrap_iterIPS5_EEEENS_9enable_ifIXaasr21__is_forward_iteratorIT_EE5valuesr16is_constructibleIS5_NS_15iterator_traitsISE_E9referenceEEE5valueEvE4typeESE_SE_
mIf:_Vector2_get_zero_m540426400
RVj:_il2cpp_init
eki:__Z105RuntimeInvoker_RuntimeObject_RuntimeObject_StreamingContext_t3711869237_ISurrogateSelectorU26_t3801502798PFvvEPK10MethodInfoPvPS4_
dbd:__ZNSt3__26__treeIPN2UI14CanvasRendererENS_4lessIS3_EENS_9allocatorIS3_EEE7destroyEPNS_11__tree_nodeIS3_PvEE
N$b:__ZL25UpdateCameraDepthTexturesRK17RenderLoopContextP13RenderTextureS3_RK13dynamic_arrayI16RenderObjectDataLj0EEbbbR17ShaderPassContext
hMb:__ZN13GfxDeviceGLES22UploadTextureSubData2DE9TextureIDPKhiiiiii14GraphicsFormat
d7e:_DefaultComparer_Compare_m3648806637_gshared
$Gc:__Z35Register_UnityEngine_Screen_get_dpiv
hWc:__ZN13SpeedTreeWind7AdvanceEbd
rZe:_InternalEnumerator_1_get_Current_m923139215_AdjustorThunk
AGj:__ZN15dense_hashtableINSt3__24pairIK10KeyWrapperIN6il2cpp5utils13dynamic_arrayIPK10Il2CppTypeLj4EEEEPFvvEEESA_NS3_8metadata19Il2CppSignatureHashEN14dense_hash_mapISA_SD_SG_NSA_14EqualsComparerINSF_22Il2CppSignatureCompareEEENS0_9allocatorISE_EEE9SelectKeyESK_SM_E12expand_arrayEjN21dense_hash_map_traits17integral_constantIbLb0EEE
_gh:_Array_FindLastIndex_TisRuntimeObject_m2929523835_gshared
Tpc:__ZN9Transform16SetLocalPositionERK8Vector3f
Edc:__ZN10BootConfig4Data12InitFromFileEPPKcjS2_
YSc:__ZL62__ManagedRegistrationHelperFunction_ParticleSystemVertexStreamPv
DO:__ZN12SoundManagerC2Ev
R3c:_UNITY_tt_face_free_name
lH:__ZNSt3__26__sortIRNS_6__lessI4PPtrI13AnimationClipES4_EEPS4_EEvT0_S8_T_
Y$c:_cff_random
KQb:__ZN14DataBufferGLES3MapEjjj
Co:FUNCTION_TABLE_fidi
Rja:__ZL77__ManagedRegistrationHelperFunction_NativeContainerIsAtomicWriteOnlyAttributePv
iXe:_ArrayReadOnlyList_1_Contains_m2459654648_gshared
Pxa:__ZNK6Camera33CalculateFarPlaneWorldSpaceLengthEv
zsd:_BaseInput_GetButtonDown_m3789908809
$Si:_List_1_System_Collections_IList_Insert_m2401407093_gshared
FSe:_EnumBuilder_get_BaseType_m1707640163
zQj:__ZNK15dense_hashtableINSt3__24pairIK10KeyWrapperINS1_IPK11Il2CppImageP11Il2CppClassEEEjEES9_17ReflectionMapHashIS8_EN14dense_hash_mapIS9_jSD_NS9_14EqualsComparerINS0_8equal_toIS8_EEEENS0_9allocatorISB_EEE9SelectKeyESI_SK_E5beginEv
K$c:_cf2_stack_setReal
JJ:__ZL60__ManagedRegistrationHelperFunction_MeshReconstructionConfigPv
y0:__GLOBAL__sub_I_Runtime_Graphics_3_cpp
LL:__ZN4FMOD3DSP8getInputEiPPS0_PPNS_13DSPConnectionE
NR:__ZN11SoundHandle8Instance13CreateChannelERS_b
dOe:_NumberFormatter_NumberToString_m2529982306
YS:__ZN13AudioListenerD2Ev
T9c:_UNITY_FT_Done_Library
Sjk:__ZN6il2cpp2os5MutexC2Eb
l7i:_PKCS12__cctor_m3271060407
A8e:_Comparer_1__cctor_m2282308543_gshared
Bfd:__ZN2UI13CanvasManager17EmitDataForCameraEP6Camera
w1f:_ARC4Managed_CheckInput_m1562172012
BEh:_Enumerator_MoveNext_m4018122760_gshared
zzj:_CustomEventData_Dispose_m4023815755
X4i:_TlsStream_ReadBytes_m2334803179
fGc:__Z44Register_UnityEngine_Material_GetTextureImplv
S2h:_ReadOnlyCollection_1_System_Collections_IList_Add_m2445024939_gshared
dwf:_Debug_Log_m4051431634
_yk:_glUniform3uiv__wrapper
NWg:_FileStream_EndRead_m3904255625
bHb:__ZL8MainLoopv
blc:__ZN17TransformInternal25CopyTransformSubhierarchyER18TransformHierarchyjS1_yyjb
lte:__ZL59AnimatorStateInfo_t509032636_CustomAttributesCacheGeneratorP21CustomAttributesCache
bUd:_CallContextRemotingData_Clone_m14303327
Med:__Z47Register_UnityEngine_CanvasRenderer_SetMaterialv
mBk:_emscripten_glIsShader__wrapper
TTc:__ZN11UnityEngine9Analytics16StartupTimeEvent23SetAssembliesTimingInfoEyy
hqh:_DSAManaged_get_PublicOnly_m3575594967
sLa:__ZN9ShaderLabL15GetSizedTextureEPK6CameraRKNS_16FastPropertyNameEbbRb
qad:__Z26CleanupTextRenderingModulev
eT:__ZN13AudioListener23VirtualRedirectTransferER24GenerateTypeTreeTransfer
fcb:__ZNK12HandlerChain9EnumerateEPKcP19dynamic_block_arrayI13FileEntryInfoLj32EEbPPv19FileEnumerationFlag
h1a:__ZThn32_N12MeshRendererD1Ev
BJa:__ZN13RenderTexture23VirtualRedirectTransferER19StreamedBinaryWriteILb0EE
Ack:__ZN6il2cpp2vm13ComObjectBase17GetMarshalSizeMaxERK10Il2CppGuidPvjS5_jPj
Uok:_truncate
Vhc:__ZN9ShaderLab27SerializedShaderVectorValue8TransferI18StreamedBinaryReadILb0EEEEvRT_
BUa:__ZN8Renderer21RendererBecameVisibleEv
Anb:__ZN10Instancing11DrawAPIArgsD2Ev
r4:__ZN10MemoryPool16StaticInitializeEPv
dga:__ZN11TypeManager21CleanupGlobalInstanceEv
Obh:_Enum_ToString_m2240012010
N:Math_atan
xa:invoke_iifii
MN:__ZNK10SampleClip11GetResourceEv
TKd:_MonoEvent_get_Name_m3774595291
phb:__ZN9GfxDevice15GetStereoMatrixE21MonoOrStereoscopicEye24BuiltinShaderMatrixParamR10Matrix4x4f
Web:__ZN4core12basic_stringIcNS_20StringStorageDefaultIcEEE6resizeEj
NIc:__Z43Register_UnityEngine_Event_set_displayIndexv
KUc:__GLOBAL__sub_I_CmEventProfiler_cpp
Wsi:__Z128RuntimeInvoker_RuntimeObject_RuntimeObject_SByte_t1669577662_SByte_t1669577662_SByte_t1669577662_SByte_t1669577662_RuntimeObjectPFvvEPK10MethodInfoPvPS4_
LJh:_UnicodeEncoding_GetMaxByteCount_m3053620432
JTd:_ArgInfo__ctor_m1950205784
Q5h:_Nullable_1_Equals_m4046255732_AdjustorThunk
dwa:__ZN17GlobalGameManager23VirtualRedirectTransferER24GenerateTypeTreeTransfer
vld:__ZN19UnityConnectServiceD0Ev
dmj:_ToggleGroup_ValidateToggleIsInGroup_m3201190739
RMj:__ZN6il2cpp2vm7Runtime17GetDelegateInvokeEP11Il2CppClass
kMd:_MonoProperty_get_PropertyType_m4138957578
L0:___cxx_global_var_init_123
Skd:__ZN11UnityEngine15PlatformWrapper21GetCopyTextureSupportEv
X5g:_DateTime_get_Month_m1566006993_AdjustorThunk
lch:_Array_get_swapper_TisRaycastResult_t3360306849_m1267000905_gshared
eag:_SslClientStream__ctor_m3478574780
EV:__ZN11AudioModule27IsFormatSupportedByPlatformEPKc
MYc:_UNITY_FT_Render_Glyph
$Re:_DerivedType_GetFields_m3190137327
Etd:_EventSystem_OnDisable_m3820258344
UQa:__ZN9Texture2D5ResetEv
vSc:__Z19TransferField_ArrayI8JSONRead16Converter_StringEvRK23StaticTransferFieldInfoR31RuntimeSerializationCommandInfoRT0_
Grf:_MACTripleDES_Setup_m560957914
rvc:__ZZN10MeshFilter15InitializeClassEvEN31FunctorImpl_108kDidAddComponent4CallEPviR11MessageData
ZGj:__ZN15dense_hashtableINSt3__24pairIK10KeyWrapperIPK19Il2CppGenericMethodEPK26Il2CppGenericMethodIndicesEES6_N6il2cpp8metadata23Il2CppGenericMethodHashEN14dense_hash_mapIS6_SA_SE_NS6_14EqualsComparerINSD_26Il2CppGenericMethodCompareEEENS0_9allocatorISB_EEE9SelectKeyESI_SK_E6insertERKSB_
Y4b:__Z19SetupShadowCullDataRK27ScriptableCullingParametersRK17ShaderReplaceDataPK22SceneCullingParametersf16ShadowProjectionR14ShadowCullData
Wma:__ZN9Scripting11UnityEngine14UnityException12CleanupProxyEv
R_c:_cff_size_request
gLa:__ZN15DirectorManager14ConnectionPool12SwitchBucketEP14ConnectionList
wcd:__ZN2UI11CompareFuncEPNS_6CanvasES1_
qN:__ZN4FMOD7Channel11set3DSpreadEf
mkk:__ZN6il2cpp2os6Memory14AlignedReAllocEPvjj
Qhf:_Dictionary_2_Resize_m1156965638_gshared
F8c:_pshinter_get_t1_funcs
UPa:__ZN24GenerateTypeTreeTransfer16TransferTypelessEPjPKc17TransferMetaFlags
mih:_Array_InternalArray__IndexOf_TisPlayableBinding_t354260709_m3544096311_gshared
Icg:_SHA512Managed_processLength_m2162821715
pQb:__ZL18ProgramUniform4uivPK7ApiGLESjiihPKv
QFf:_Vector3_get_normalized_m2454957984
VLh:_Mutex_CreateMutex_internal_m3763633491
GEe:__ZL74SpriteState_t1362986479_CustomAttributesCacheGenerator_m_HighlightedSpriteP21CustomAttributesCache
jHa:__ZN10builtintex21GetAttenuationTextureEv
Rm:FUNCTION_TABLE_viiiiiiiiiiiiiii
MAc:__ZNK4Mesh19CanAccessFromScriptEv
zsa:__ZN17PersistentManager43LocalSerializedObjectIdentifierToInstanceIDERK31LocalSerializedObjectIdentifierRiNS_9LockFlagsE
d4:__Z15GetGraphicsCapsv
ZRb:__ZN7ApiGLES15BindVertexArrayEN2gl6HandleILNS0_10ObjectTypeE3EEE
Ish:_Dictionary_2_System_Collections_IDictionary_Remove_m316877720_gshared
I_b:__Z20IntersectionAABBAABBRK10MinMaxAABBS1_PS_
$sc:__ZZL31RegisterRectTransformPropertiesR22GenericPropertyBindingEN32Wrapper_RectTransformSizeDeltax013SetFloatValueEPvf
i4i:_SslStreamBase_get_SecurityProtocol_m596101988
wVj:__ZNSt3__212basic_stringIcNS_11char_traitsIcEENS_9allocatorIcEEE6__initIPKcEENS_9enable_ifIXsr21__is_forward_iteratorIT_EE5valueEvE4typeESA_SA_
foi:__Z121RuntimeInvoker_Void_t1185182177_Int32_t2950945753_Int32_t2950945753_Int32_t2950945753_Int32_t2950945753_Int32_t2950945753PFvvEPK10MethodInfoPvPS4_
Q7c:_ft_var_load_item_variation_store
Rwg:_DeriveBytes_set_Salt_m441577179
Qai:_UnityEvent_3_FindMethod_Impl_m1640458315_gshared
c1d:__ZL61ConstructorBuilder_t2813524108_CustomAttributesCacheGeneratorP21CustomAttributesCache
nob:__Z18Transfer_BlittableI14SafeBinaryReadLb1EhEvRK29SerializationCommandArgumentsR31RuntimeSerializationCommandInfo
K_f:_Text_get_verticalOverflow_m2420459396
Tga:__ZNSt3__224__buffered_inplace_mergeIRNS_4lessIN4core12basic_stringIcNS2_20StringStorageDefaultIcEEEEEENS_11__wrap_iterIPS6_EEEEvT0_SC_SC_T_NS_15iterator_traitsISC_E15difference_typeESG_PNSF_10value_typeE
B$d:__ZL51HashKeys_t1568156503_CustomAttributesCacheGeneratorP21CustomAttributesCache
u_b:__ZNK6Camera19GetStereoSeparationEv
t6:__Z22DestroyObjectHighLevelP6Objectb
Jpf:_KeySizes__ctor_m3113946058
a$b:__Z26BeginRenderQueueExtractionR15RenderNodeQueuePK16RendererCullDataRK13CullingOutputPK12LODDataArray15ExtractionFlagsP18JobBatchDispatcher
tYc:__ZNK13TextRendering4Font10GetTextureEv
nj:_emscripten_glVertexAttrib3fv
ITd:_LifetimeServices__cctor_m2128864873
QIf:_ScriptableObject_CreateScriptableObjectInstanceFromType_m2783367459
eRh:_UInt16_TryParse_m3193697465
U_j:__ZN6il2cpp6icalls8mscorlib6System9Threading6Thread16SetName_internalEP12Il2CppThreadP12Il2CppString
rj:_glBeginTransformFeedback
e9g:_Decimal_op_Division_m2407964042
KOf:_InputField_get_asteriskChar_m965956856
_Ha:__ZN18JobBatchDispatcherC2E11JobPriorityi
Oqf:_HashAlgorithm_Create_m644612360
eEf:_Playable_get_Null_m3556999077
Knh:_BigInteger_TestBit_m1507066813
$Ic:__ZN8GUIStyle14GetBuiltinFontEv
ojb:__ZN9GfxDevice13EndFrameStatsEv
gwc:__Z7Empty2DP9Texture2DPhiiii
nGi:_Array_InternalArray__set_Item_TisRefEmitPermissionSet_t484390987_m3786305619_gshared
juj:_DisplayBuffer_GetAllDisplayLines_m956916978
_Xj:__ZN6il2cpp2vm6Thread16RequestInterruptEP12Il2CppThread
OK:__ZL34StaticDestroyAudioCustomFilterRootPv
WWe:_ArrayReadOnlyList_1_GetEnumerator_m3931906247_gshared
Xna:__ZN9Scripting11UnityEngine9Profiling7Sampler9InitProxyEv
h9a:__ZN19ComputeShaderKernelD2Ev
k_a:__ZN10DynamicVBO9DrawChunkERK21DynamicVBOChunkHandleP17VertexDeclarationPKNS_10DrawParamsEi
wBj:__ZN6il2cpp2vmL17SetupEventsLockedEP11Il2CppClassRKNS_2os12FastAutoLockE
ppc:__ZN10systeminfo21GetTemporaryCachePathEv
wkj:_AnalyticsEventTracker_Start_m1087627554
Gdk:__ZN6il2cpp2os4Time29GetTicksMillisecondsMonotonicEv
KFd:_GridLayoutGroup_CalculateLayoutInputVertical_m357562599
nLh:_CompressedStack_Capture_m3327262890
dJh:_StringBuilder_Replace_m1968561789
w9a:__ZN12ScriptMapper8TransferI14SafeBinaryReadEEvRT_
Hub:__Z18Transfer_BlittableI24GenerateTypeTreeTransferLb1E10Matrix4x4fEvRK29SerializationCommandArgumentsR31RuntimeSerializationCommandInfo
Qwd:_StandaloneInputModule_get_repeatDelay_m1143359059
aLh:_UTF8Encoding_GetMaxByteCount_m420651053
hte:__ZL73AnimationMotionXToDeltaPlayable_t272231551_CustomAttributesCacheGeneratorP21CustomAttributesCache
SOc:__ZN9JSONWrite8TransferI10Matrix4x4fEEvRT_PKc17TransferMetaFlags
u0c:_cf2_hintmap_map
o6g:_DateTime_Compare_m2855073242
iOi:_List_1_get_Item_m1651423686_gshared
ePh:_Type_get_IsExplicitLayout_m1182254884
vrb:__ZN15SerializeTraitsI5RectTIfEE8TransferI14SafeBinaryReadEEvRS1_RT_
yJh:_UnicodeEncoding__ctor_m3604373700
fEc:__Z41Register_UnityEngine_Texture_get_wrapModev
VZc:_UNITY_FT_Raccess_Get_DataOffsets
Ezc:__ZN14PlayableOutputC2EjP13PlayableGraph
RUa:__ZThn32_NK8Renderer11GetMaterialEi
xAd:_ContentSizeFitter_get_rectTransform_m3297799590
$dk:__ZN6il2cpp6icalls8mscorlib6System7Runtime15InteropServices8GCHandle15GetTargetHandleEP12Il2CppObjectii
Guf:_CameraCallback_Invoke_m3308824940
W1a:__ZN9InputAxis8TransferI18StreamedBinaryReadILb0EEEEvRT_
beg:_X509Certificate_Import_m3563119820
k1:__ZN13MemoryManager12GetAllocatorE10MemLabelId
x$f:_BigInteger_ToString_m3260066955
ghb:__ZN9GfxDevice29GetMinimumNodesPerGraphicsJobEv
Bhe:__ZL63RuntimePlatform_t4159857903_CustomAttributesCacheGenerator_NaClP21CustomAttributesCache
R4h:_Func_1_Invoke_m370346740_gshared
_rc:__Z13RegisterClassI4MeshEvPKc
xqb:__ZN14SafeBinaryRead8TransferIyEEvRT_PKc17TransferMetaFlags
iZf:_Slider__ctor_m873361617
uIe:_SynchronizedWriter__ctor_m495278869
dqc:__ZN2UI13RectTransform13GetWorldSpaceER8Vector3fR8Vector2f
tPd:_GCHandle__ctor_m2690474163_AdjustorThunk
lfa:__ZN15DirectorManager17OnSampleFixedTimeEv
B6b:__ZNK13RendererScene21GetDynamicObjectCountEv
i2g:_Double_Parse_m1135962389
k5i:_X509Extension__ctor_m710637961
$Mg:_CultureInfo_get_CurrentCulture_m1632690660
brh:_PKCS1_OS2IP_m65970018
U$f:_ModulusRing_BarrettReduction_m3024442734
a$h:_ReadOnlyCollection_1_System_Collections_IList_set_Item_m70952451_gshared
p4a:__ZNSt3__26vectorIN30RuntimeInitializeOnLoadManager9ClassInfoE13stl_allocatorIS2_L18MemLabelIdentifier13ELi16EEE8__appendEj
nvb:__ZN24GenerateTypeTreeTransfer32TransferSTLStyleArrayWithElementI23ManagedObjectTransfererEEvRT_17TransferMetaFlags
Gak:__ZN6il2cpp6icalls8mscorlib6System11Environment12get_PlatformEv
rog:_HttpWebRequest__cctor_m1467954389
k5f:_CipherSuiteCollection_System_Collections_IList_Remove_m2463347416
Xzf:_DefaultValueAttribute_GetHashCode_m3368187153
Umg:_DictionaryNodeEnumerator_get_Value_m1345533116
oTc:__ZN27PerformanceReportingManager19ConfigChangedStaticEPS_RKN4core12basic_stringIcNS1_20StringStorageDefaultIcEEEER8JSONReadb
smc:__Z42Register_UnityEngine_Behaviour_get_enabledv
S3i:_SslStreamBase_EndNegotiateHandshake_m1124299797
C3i:_SslStreamBase__ctor_m3009266308
DUj:__ZN6il2cpp2vm14TypeNameParser23ParseNestedTypeOptionalERi
R5a:__ZN17PersistentManager22CheckInstanceIDsLoadedEPiiNS_9LockFlagsE
Yjk:__ZN6il2cpp2os13FastMutexImplC2Ev
_Od:_RuntimeHelpers_InitializeArray_m4077124945
m4a:__ZN30RuntimeInitializeOnLoadManager9ClassInfo8TransferI14SafeBinaryReadEEvRT_
F$f:_BigInteger_op_Equality_m1194739960
vKh:_UTF7Encoding_GetCharCount_m2792854727
TJ:__ZN9Scripting11UnityEngine2XR5Tango24MeshReconstructionConfig9InitProxyEv
C2b:__ZL13RenderCastersiRK8Vector3fS1_RK13ShadowJobDataR17ShaderPassContextRKNSt3__26vectorI16ShadowCasterData13stl_allocatorIS9_L18MemLabelIdentifier2ELi16EEEERKNS8_I20ShadowCasterPartDataSA_ISG_LSB_2ELi16EEEERK15RenderNodeQueuebPKj
nl:_emscripten_glGetShaderInfoLog
J_f:_Text_get_horizontalOverflow_m4155575610
cmf:_ObjectReader_RecordFixup_m4125245357
k4c:_UNITY_ft_glyphslot_set_bitmap
TJi:_Dictionary_2_Do_ICollectionCopyTo_TisRuntimeObject_m1362949338_gshared
Cl:_glUniform1i
qPf:_InputField_Validate_m4147207871
pIa:__ZN6prcoreL11inner_clearILj3EEEvPhjjj
ULg:_CCGregorianCalendar_dmy_from_fixed_m494173177
gRi:_List_1_System_Collections_IList_IndexOf_m3211997095_gshared
MEg:_Byte_System_IConvertible_ToUInt64_m371883985_AdjustorThunk
y6c:_Read_CVT_Stretched
VLj:__ZN6il2cpp6icalls8mscorlib6System18CollectTypeMethodsINS_5utils10functional10TrueFilterEEEvP11Il2CppClassPKS7_jRKT_RNSt3__26vectorIPK10MethodInfoNSE_9allocatorISI_EEEERA65535_b
kHb:__Z14SetPlayerPause11PlayerPauseb
Dka:__ZL48__ManagedRegistrationHelperFunction_CullingGroupPv
nJg:_CollectionBase_System_Collections_ICollection_CopyTo_m2850099809
g_h:_ReadOnlyCollection_1_System_Collections_IEnumerable_GetEnumerator_m3042843502_gshared
cxd:_StandaloneInputModule_ActivateModule_m2232892298
BPd:_GCHandle_Free_m1457699368_AdjustorThunk
vMh:_Thread_get_CurrentUICulture_m1397429997
i1c:_cff_done_blend
ZEd:_Graphic_RegisterDirtyLayoutCallback_m1235519898
y5:__Z30scripting_stack_trace_info_for21ScriptingExceptionPtrR14StackTraceInfo
gqa:__ZN9Scripting11UnityEngine6Events14UnityEventBase12CleanupProxyEv
Ctk:_glCompressedTexSubImage3D__wrapper
aZf:_Selectable_Select_m1465131241
J0b:__ZN15SkyboxGenerator18GetSixFaceSkyboxVBEv
_Qj:__ZN15dense_hashtableINSt3__24pairIK10KeyWrapperINS1_IPK12PropertyInfoP11Il2CppClassEEEjEES9_17ReflectionMapHashIS8_EN14dense_hash_mapIS9_jSD_NS9_14EqualsComparerINS0_8equal_toIS8_EEEENS0_9allocatorISB_EEE9SelectKeyESI_SK_EC2ERKSN_j
AM:__ZN15AudioReverbZone7CleanupEv
ITb:__ZN10BufferGLESD0Ev
SGb:__Z20scripting_gc_disablev
$Cg:_Attribute_IsDefined_m1430686743
z9i:_IntervalCollection_Optimize_m161975983
$Kj:__ZN6il2cpp2vm10ThreadPool5QueueEP14Il2CppDelegatePPvS3_P12Il2CppObject
NTh:_Version__ctor_m417728625
Jja:__ZN16memory_pool_implILi68EE15AutoPoolWrapper10InitializeEPv
d0g:_Convert_ToByte_m3567528984
N7h:_InvokableCall_1_Invoke_m3497872319_gshared
GFb:__ZN9Scripting35ErrorMessageForUnsupportedEnumFieldE17ScriptingFieldPtr
Elh:_Level2MapComparer__cctor_m1866197409
_Ab:__Z29Transfer_Blittable_ArrayFieldI18StreamedBinaryReadILb1EEfEvRT_R9ArrayInfoRK23StaticTransferFieldInfo
uia:__ZN6prcoreL26RemapGenericIntegerToFloatI17TexFormatARGB888818TexFormatARGBFloatEEvPKNS_9InnerInfoE
X8e:_Enumerator_get_CurrentKey_m2230405065_AdjustorThunk
IIg:_BitArray__ctor_m2765908219
gkg:_StringComparer_get_InvariantCultureIgnoreCase_m2404489191
bvj:_Font_get_material_m1471867149
Kdk:__ZN6il2cpp6icalls8mscorlib6System7Runtime16CompilerServices14RuntimeHelpers15InitializeArrayEP11Il2CppArrayi
zSd:_Context_Freeze_m2594571993
_nd:__ZZN18UnityConnectClient23RegisterGlobalCallbacksEvEN46EarlyUpdateUnityConnectClientUpdateRegistrator7ForwardEv
Xhd:__ZNSt3__26__treeINS_12__value_typeIjN4core12basic_stringIcNS2_20StringStorageDefaultIcEEEEEENS_19__map_value_compareIjS7_NS_4lessIjEELb1EEE13stl_allocatorIS7_L18MemLabelIdentifier6ELi16EEE25__emplace_unique_key_argsIjJNS_4pairIjS6_EEEEENSH_INS_15__tree_iteratorIS7_PNS_11__tree_nodeIS7_PvEEiEEbEERKT_DpOT0_
mab:__ZN12ImmediatePtrI9TransformE8TransferI18StreamedBinaryReadILb0EEEEvRT_
fkh:_Array_InternalArray__ICollection_CopyTo_TisInt32_t2950945753_m3102754797_gshared
FFf:_Quaternion_ToString_m2203056442
ORe:_ModuleBuilder_GetTokenGenerator_m4177350090
TXa:__ZN10Matrix4x4f8TransferI18StreamedBinaryReadILb0EEEEvRT_
BMh:_Thread_Start_m2860771284
$Vi:_List_1_AddEnumerable_m2295992518_gshared
y0g:_DateTime_YearMonthDayFormats_m827415370
TQ:__ZN4FMOD7Channel19getReverbPropertiesEP29FMOD_REVERB_CHANNELPROPERTIES
F5b:__ZL23NormalizeRobustInternalRK8Vector3fRfS2_f
kOf:_InputField_get_selectionColor_m2548343601
Aih:_Array_LastIndexOf_TisRuntimeObject_m2701366436_gshared
LLj:__ZN6il2cpp6icalls8mscorlib6System8MonoType13GetInterfacesEP20Il2CppReflectionType
YZ:__ZN11UnityEngine15CloudWebService25WebRequestDownloadHandler7OnAbortEv
yXb:__ZN6Camera12CustomRenderER11CullResultsR17ShaderPassContextPK21CameraRenderingParamsNS_10RenderFlagEPNS_21PerformRenderFunctionEPFvvE
crg:_PublicKey_GetUnsignedBigInteger_m3873409673
G9j:__ZN6il2cpp2os6Thread22SetNativeThreadCleanupEPFvPvE
NAh:_GenericEqualityComparer_1_Equals_m2669134646_gshared
n6e:_DefaultComparer_Compare_m1649892577_gshared
Onf:_RuntimeMethodHandle__ctor_m2867240657
Ujg:_DecoderFallback_get_StandardSafeFallback_m2130338133
J$a:__ZN14SafeBinaryRead21TransferSTLStyleArrayI13dynamic_arrayI10BlendShapeLj0EEEEvRT_17TransferMetaFlags
cn:FUNCTION_TABLE_vdd
mub:__Z18Transfer_BlittableI24GenerateTypeTreeTransferLb1E10ColorRGBAfEvRK29SerializationCommandArgumentsR31RuntimeSerializationCommandInfo
Cha:__ZN6prcoreL17RemapGenericFloatI18TexFormatRGBAFloat16TexFormatRGFloatEEvPKNS_9InnerInfoE
kLj:__ZN6il2cpp6icalls8mscorlib6System8MonoType8get_NameEP20Il2CppReflectionType
Xmh:_SimpleCollator_LastIndexOf_m2130553617
Jqb:__ZNSt3__26vectorI10RectOffset13stl_allocatorIS1_L18MemLabelIdentifier1ELi16EEE8__appendEj
T6e:_DefaultComparer_Compare_m1920986590_gshared
zOh:_TimeSpan_op_Equality_m1999885032
k4i:_SslStreamBase_get_ServerCertificates_m2154373069
s3j:__ZN6il2cpp2vmL29AddTypeToNametoClassHashTableEPK11Il2CppImagei
Po:FUNCTION_TABLE_ff
Ro:FUNCTION_TABLE_fi
UNe:_NumberFormatter_ZeroTrimEnd_m3065471008
Uja:__ZL93__ManagedRegistrationHelperFunction_NativeContainerSupportsDeallocateOnJobCompletionAttributePv
yxg:_X509Certificate_get_DSA_m1760272844
uMh:_Thread_get_CurrentCulture_m349116646
nMh:_Thread_Thread_internal_m4184414727
Zrc:__Z13RegisterClassI12MeshRendererEvPKc
qd:_emscripten_glGetAttribLocation
NVb:__ZZ23InitPlayerLoopCallbacksvEN39PostLateUpdateResetInputAxisRegistrator7ForwardEv
SP:__ZN4FMOD12ChannelGroup14getParentGroupEPPS0_
ud:_emscripten_set_blur_callback
q_i:_Collection_1_IsValidItem_m1475436662_gshared
pSa:__ZNK14ImageReference9ClipImageEiiii
_uc:__ZN4MeshC2E10MemLabelId18ObjectCreationMode
o3b:__ZN10Matrix4x4f30SetPositionAndOrthoNormalBasisERK8Vector3fS2_S2_S2_
hua:__ZN5RectTIfE8TransferI24GenerateTypeTreeTransferEEvRT_
iAd:_ColorBlock_Equals_m518833916
p7j:__ZN6il2cpp6icalls8mscorlib6System4Enum8ToObjectEP20Il2CppReflectionTypeP12Il2CppObject
f5b:__ZL30FrustumCullReflectionProbesJobP26ReflectionProbeCullJobDataj
mHi:_Array_qsort_TisUIVertex_t4057497605_m4120916435_gshared
VYb:__ZN12FlareManager6UpdateEv
j1j:__ZN6il2cpp6icalls8mscorlib6System4Type29GetGenericTypeDefinition_implEP20Il2CppReflectionType
OTc:__ZNSt3__26__treeINS_12__value_typeIN4core12basic_stringIcNS2_20StringStorageDefaultIcEEEEiEENS_19__map_value_compareIS6_S7_NS_4lessIS6_EELb1EEE13stl_allocatorIS7_L18MemLabelIdentifier1ELi16EEE25__emplace_unique_key_argsIS6_JNS_4pairIKS6_iEEEEENSH_INS_15__tree_iteratorIS7_PNS_11__tree_nodeIS7_PvEEiEEbEERKT_DpOT0_
L4a:__ZN27GenericSlowGarbageCollector16ProcessReferenceEi
rna:__ZN9Scripting11UnityEngine10Resolution9InitProxyEv
Xsh:_Dictionary_2_get_Item_m1749337561_gshared
DRc:__ZN8JSONRead21TransferSTLStyleArrayI13dynamic_arrayI8BitFieldLj0EEEEvRT_17TransferMetaFlags
Ema:__ZN35ScriptingManagedObjectProxyRegistry13RegisterProxyEPKcPFvvES3_
PRd:_LifetimeServices_set_SponsorshipTimeout_m2538334028
bJj:__ZN15dense_hashtableINSt3__24pairIK10KeyWrapperIP9FieldInfoEiEES5_N6il2cpp5utils11PointerHashIS3_EEN14dense_hash_mapIS5_iSB_NS5_14EqualsComparerINS0_8equal_toIS4_EEEENS0_9allocatorIS7_EEE9SelectKeyESG_SI_E4findERS6_
oIi:_Array_Sort_TisCustomAttributeTypedArgument_t2723150157_m3248988944_gshared
sla:__ZL43__ManagedRegistrationHelperFunction_Hash128Pv
Knk:_fopen
ymb:__ZN20GpuProgramParameters15AddTextureParamEPKciib16TextureDimensionP16PropertyNamesSet
z_c:__ZN20TextRenderingPrivate8FontImplD2Ev
b0:__ZN19CloudServiceHandler8SaveFileERKN4core12basic_stringIcNS0_20StringStorageDefaultIcEEEEPKvj
wek:_GC_init
QLe:_MonoType_IsPointerImpl_m3340652279
awk:_glFramebufferTexture2D__wrapper
plk:__ZN6il2cpp6icalls8mscorlib6System7Runtime8Remoting7Proxies9RealProxy27InternalGetTransparentProxyEP12Il2CppObjectP12Il2CppString
M7j:__ZN6il2cpp2vm6Method10IsInflatedEPK10MethodInfo
Ndk:__ZNK6il2cpp8metadata14Il2CppTypeLessclEPK10Il2CppTypeS4_
Sek:_GC_remove_header
xDa:__ZL17InstanceBufferJobIN10Instancing14RenderLoopArgsEEvP21InstanceBufferJobDataIT_E
e4a:__ZNSt3__26vectorIi13stl_allocatorIiL18MemLabelIdentifier13ELi16EEE8__appendEj
Nqd:__GLOBAL__sub_I_artifacts_WebGL_legacybindings_VR_0_cpp
mWd:_ReturnMessage_get_OutArgs_m1641976511
uTd:_SynchronizationAttribute_IsContextOK_m324067792
t5j:__ZN6il2cpp2vm6Object6IsInstEP12Il2CppObjectP11Il2CppClass
IVe:_Action_1_BeginInvoke_m1817882028_gshared
zxb:__Z19TransferField_ArrayI19StreamedBinaryWriteILb0EE27Converter_UnityEngineObjectEvRK23StaticTransferFieldInfoR31RuntimeSerializationCommandInfoRT0_
CGa:__Z16GetMSAALevelDesc9MSAALevel
dch:_Environment_GetMachineConfigPath_m43519138
mDe:__ZL65Mask_t1803652131_CustomAttributesCacheGenerator_m_ShowMaskGraphicP21CustomAttributesCache
D0e:_InternalEnumerator_1_System_Collections_IEnumerator_get_Current_m4203917072_gshared
C8g:_Decimal_decimal2Int64_m2102545213
QXb:__ZN8Renderer27EnsureTransformInfoUpToDateEv
LAk:_emscripten_glFrontFace__wrapper
Ja:invoke_fiffi
w9:__ZN14SerializedFile14SerializedType8ReadTypeILb1EEEbibRPKhS3_Pi
u8h:_InvokableCall_1_Invoke_m1160628299_gshared
Qsd:_ExecuteEvents_get_pointerEnterHandler_m1185301724
Q3i:_InternalAsyncResult__ctor_m2194591319
DIa:__ZN8Playable7SetTimeEd
g5:__ZN13RuntimeStaticI12GraphicsCapsLb0EE16StaticInitializeEPv
$Vg:_FileLoadException__ctor_m3879680456
dQc:__Z18Transfer_BlittableI8JSONReadLb1E8Vector4fEvRK29SerializationCommandArgumentsR31RuntimeSerializationCommandInfo
q5c:_tt_cmap2_validate
y1c:_cff_cmap_unicode_done
jQd:_ActivationServices_CreateProxyFromAttributes_m3864561181
Idc:__ZN9Scripting20SendScriptingMessageER10GameObjectPKc18ScriptingObjectPtr
kti:__Z67RuntimeInvoker_Void_t1185182177_Scene_t2348375561_Int32_t2950945753PFvvEPK10MethodInfoPvPS4_
gHb:__Z26IsSplashScreenFadeCompletev
rFc:__Z42Register_UnityEngine_Camera_get_clearFlagsv
zEb:__ZN13MonoBehaviour13AwakeFromLoadE17AwakeFromLoadMode
NLj:__ZNSt3__26__treeIP11Il2CppClassNS_4lessIS2_EENS_9allocatorIS2_EEED2Ev
XZf:_Slider_FindSelectableOnRight_m3576909722
oac:__ZN13RenderManager27UpdatePreviousFrameMatricesEv
Oyb:__Z35Transfer_Blittable_FixedBufferFieldI18StreamedBinaryReadILb1EExEvRK29SerializationCommandArgumentsR31RuntimeSerializationCommandInfo
JKi:_Array_InternalArray__get_Item_TisByte_t1134296376_m3566214066_gshared
Eba:__Z22SetManagerPtrInContextiP6Object
P2a:__ZN14PlayerSettings8TransferI19StreamedBinaryWriteILb0EEEEvRT_
PPc:__Z18Transfer_BlittableI8JSONReadLb0E10ColorRGBAfEvRK29SerializationCommandArgumentsR31RuntimeSerializationCommandInfo
uMg:_NumberFormatInfo_set_NumberNegativePattern_m1999304795
XTi:_List_1_System_Collections_IList_Insert_m2238786360_gshared
yTe:_GenericTypeParameterBuilder_IsSubclassOf_m2266644074
fsh:_SymmetricTransform_ThrowBadPaddingException_m2926778011
TMg:_CompareInfo_ToString_m2684143229
Wda:__ZN15DirectorManagerD2Ev
wZf:_Slider_get_maxValue_m414465787
QPj:__ZN15dense_hashtableINSt3__24pairIK10KeyWrapperINS1_IPK10MethodInfoP11Il2CppClassEEEjEES9_17ReflectionMapHashIS8_EN14dense_hash_mapIS9_jSD_NS9_14EqualsComparerINS0_8equal_toIS8_EEEENS0_9allocatorISB_EEE9SelectKeyESI_SK_E9copy_fromERKSN_j
jtg:_X509CertificateEnumerator_System_Collections_IEnumerator_get_Current_m4218613192
vkd:__ZN11UnityEngine15PlatformWrapper12GetInfoFlagsEv
RVf:_Scrollbar_set_direction_m473480640
TJh:_UTF32Encoding__ctor_m1635603592
NSh:_UInt64_Equals_m1879425698_AdjustorThunk
bfj:_Uri_IsPredefinedScheme_m1188665625
v1j:__ZN6il2cpp6icalls8mscorlib6System13Globalization11CultureInfo45construct_internal_locale_from_current_localeEP17Il2CppCultureInfo
Pkh:_Array_InternalArray__ICollection_CopyTo_TisUIVertex_t4057497605_m487823430_gshared
Apg:_ServicePointManager_get_CheckCertificateRevocationList_m1645465614
SJj:_SessionStateChanged_Invoke_m1365949269
aTb:__ZN15TextureTFMethod16BindForRenderingEj
dUc:__ZN11UnityEngine9Analytics33PerformanceReportingRenderingInfoC2Ev
hxe:__ZL49Canvas_t3310196443_CustomAttributesCacheGeneratorP21CustomAttributesCache
gIb:__ZN14GraphicsHelper20IsViewportFullscreenERK9GfxDevice
sif:_SoapMethodAttribute_SetReflectionObject_m503748123
qQg:_Guid_Equals_m3683678873_AdjustorThunk
t3j:__ZN15dense_hashtableINSt3__24pairIK10KeyWrapperINS1_IPKcS4_EEEiEES6_24NamespaceAndNamePairHashN14dense_hash_mapIS6_iS9_NS6_14EqualsComparerI26NamespaceAndNamePairEqualsEENS0_9allocatorIS8_EEE9SelectKeyESD_SF_E4findERS7_
SXc:__ZN20TextRenderingPrivate8FontImpl13CharacterInfo8TransferI19StreamedBinaryWriteILb0EEEEvRT_
xJj:__ZN6il2cpp2os19SocketHandleWrapper7ReleaseEv
NAa:__ZNK20IntermediateRenderer11GetMaterialEi
DUc:__ZN9Scripting11UnityEngine11Collision2D12CleanupProxyEv
Gsf:_BeforeRenderHelper_Invoke_m50072094
WUd:_MethodCall_get_MethodBase_m550047245
v3a:__ZNSt3__27__sort4IRNS_6__lessINS_4pairIPKN5Unity4TypeE7Hash128EES8_EEPS8_EEjT0_SC_SC_SC_T_
zua:__ZNK11NamedObject22GetTypeVirtualInternalEv
gWa:__ZN15SerializeTraitsI13dynamic_arrayI28EnlightenRendererInformationLj0EEE19ResizeSTLStyleArrayERS2_i
Tej:_Uri_EscapeString_m2061933484
mtf:_AttributeHelperEngine_GetDefaultExecutionOrderFor_m2255077112
mKc:__ZN5IMGUI16GetFocusedWindowER8GUIState
X1g:_Convert_ToDecimal_m3815908452
evf:_Color_op_Equality_m1112359053
Wuf:_Color__ctor_m286683560_AdjustorThunk
sWc:__ZN9Scripting11UnityEngine13TreePrototype9InitProxyEv
kXg:_DelegatePInvokeWrapper_ReadDelegate_t714865915
Cxg:_CollectionBase_Clear_m1509125218
kLc:__ZN11IMGUIModule21QueryGUIDisplayTargetE17ScriptingClassPtr
UFj:__ZNSt3__27__sort4IRN6il2cpp5utils11collections13ArrayValueMapIPK10Il2CppType17Il2CppInteropData26InteropDataToTypeConverterNS1_8metadata14Il2CppTypeLessENSA_26Il2CppTypeEqualityComparerEE12SortComparerEPS8_EEjT0_SH_SH_SH_T_
krk:dynCall_vidi
hld:__ZN11UnityEngine15PlatformWrapper14GetCloudUserIdEv
iZg:_StreamReader_ReadToEnd_m371831293
QAf:_Mathf_RoundToInt_m1874334613
OKe:_MonoCustomAttrs_GetCustomAttributes_m1775925192
Hpc:__Z42NoAllocHelpers_CUSTOM_ExtractArrayFromListP12Il2CppObject
Auk:_glVertexAttribPointer__wrapper
krf:_HMAC_Create_m2148924157
Xqk:___udivdi3
lLg:_Exception__ctor_m1406832249
$Dh:_Enumerator_System_Collections_IEnumerator_get_Current_m2339378585_gshared
uoc:__ZN11PlayerPrefs9SetStringERKN4core12basic_stringIcNS0_20StringStorageDefaultIcEEEES6_
CVc:__ZN9Scripting11UnityEngine7Physics9InitProxyEv
lfd:__Z13RegisterClassIN2UI11CanvasGroupEEvPKc
Nhk:__ZN6il2cpp6icalls8mscorlib6System8Delegate18SetMulticastInvokeEP14Il2CppDelegate
F8e:_Enumerator_VerifyCurrent_m2197239943_gshared
IZ:__ZN11UnityEngine15CloudWebService20WebRequestRestClient5BeginEv
Ynk:_fseek
kWc:__ZN16memory_pool_implILi40EE15AutoPoolWrapper10InitializeEPv
Jtb:__Z22TransferField_NonArrayI17RemapPPtrTransfer27Converter_SimpleNativeClassI10RectOffsetEEvRK23StaticTransferFieldInfoR31RuntimeSerializationCommandInfoRT0_
Vxg:_PKCS12_AddCertificate_m3618696508
XQ:__ZN20SoundChannelInstance11set3DSpreadEf
oTg:_Int64_System_IConvertible_ToUInt32_m109903525
MBh:_HashSet_1_Init_m2976925848_gshared
AC:__ZNSt3__26__sortIRN11UnityEngine9Animation11BindingSortEPNS_4pairINS2_14GenericBindingEPNS2_10BoundIndexEEEEEvT0_SB_T_
rma:__ZL50__ManagedRegistrationHelperFunction_UnityExceptionPv
V8f:_HttpsClientStream_U3CHttpsClientStreamU3Em__0_m2058474197
t4g:_Convert_ToUInt32_m2215525276
F2a:__ZN24GenerateTypeTreeTransfer32TransferSTLStyleArrayWithElementI16SplashScreenLogoEEvRT_17TransferMetaFlags
oOj:__ZN15dense_hashtableINSt3__24pairIK10KeyWrapperINS1_IPK9FieldInfoP11Il2CppClassEEEjEES9_17ReflectionMapHashIS8_EN14dense_hash_mapIS9_jSD_NS9_14EqualsComparerINS0_8equal_toIS8_EEEENS0_9allocatorISB_EEE9SelectKeyESI_SK_E6insertERKSB_
a0e:_InternalEnumerator_1_get_Current_m2680116177_gshared
zDj:__ZN14dense_hash_mapI10KeyWrapperIPKcEP11Il2CppClassN6il2cpp5utils11StringUtils12StringHasherIS2_EENS3_14EqualsComparerINS7_13VmStringUtils21CaseSensitiveComparerEEENSt3__29allocatorINSF_4pairIKS3_S5_EEEEEC2EjRKSA_RKSE_
Ada:__Z37InitializeIntermediateRendererManagerPv
Gig:_String_IndexOfOrdinal_m962178384
pHj:__ZN6il2cpp2vm13MetadataCache34GetTypeInfoFromTypeDefinitionIndexEi
lrf:_HMACMD5__ctor_m3129799368
ana:__ZN9Scripting11UnityEngine9Texture2D12CleanupProxyEv
rId:_TypeBuilder_GetEvent_m2166527753
VEd:_Graphic_CrossFadeColor_m678806803
hzb:__ZL26Transfer_SimpleNativeClassI18StreamedBinaryReadILb1EE8GradientLb1EEvRK29SerializationCommandArgumentsR31RuntimeSerializationCommandInfo
sli:__Z102RuntimeInvoker_Int32_t2950945753_RuntimeObject_Int32_t2950945753_CharU26_t1697032762_SByte_t1669577662PFvvEPK10MethodInfoPvPS4_
gMe:_MonoType_get_Namespace_m2015358851
pbi:_IndexedSet_1_RemoveAt_m3002732320_gshared
XKg:_HashKeys_CopyTo_m4219627824
LNf:_InputField_GetLineStartPosition_m2947412579
oh:_glBlendEquation
U4g:_Convert_ToType_m2406080310
y1h:_ReadOnlyCollection_1_IndexOf_m2659941036_gshared
nid:__Z38CustomEventData_CUSTOM_Internal_CreateP12Il2CppObjectP12Il2CppString
R0h:_ReadOnlyCollection_1_System_Collections_IList_set_Item_m3570269385_gshared
eGh:_List_1_AddEnumerable_m2043754576_gshared
iCe:__ZL85Graphic_t1660335611_CustomAttributesCacheGenerator_Graphic_OnPopulateMesh_m2916877004P21CustomAttributesCache
NBd:_DefaultControls_CreateToggle_m1236643913
Iph:_BitConverterLE_ToSingle_m1153793442
Vjk:__ZN6il2cpp2os5Mutex7TryLockEjb
MQg:_Int16_System_IConvertible_ToByte_m3161982419
Y3:__Z20IsVectorBuiltinParamPKcPi
d4j:__ZN6il2cpp2vm5Field8GetFlagsEP9FieldInfo
Wrf:_MD5CryptoServiceProvider_HashFinal_m2625727830
fHi:_Array_qsort_TisRaycastResult_t3360306849_m3861320071_gshared
$gg:_Single_System_IConvertible_ToUInt32_m289030200
y_j:__ZN6il2cpp6icalls8mscorlib6System10ReflectionL16LoadResourceFileEP24Il2CppReflectionAssembly
mah:_Double_System_IConvertible_ToDouble_m3692611612
HW:__Z83Register_UnityEngine_Experimental_Audio_AudioSampleProvider_InternalSetScriptingPtrv
_8:__Z13IsFileCreatedRKN4core12basic_stringIcNS_20StringStorageDefaultIcEEEE
V_f:_Text_OnPopulateMesh_m1525268284
wWg:_FileStream_FlushBuffer_m914568182
TVa:__ZN16LightmapSettings18TransferDeprecatedI14SafeBinaryReadEEvRT_
$_a:__ZN8Renderer11SetMaterialE4PPtrI8MaterialEi
oJh:_StringBuilder_AppendFormat_m921870684
K6j:__ZN15dense_hashtableINSt3__24pairIK10KeyWrapperIP12Il2CppObjectEN6il2cpp2gc9CachedCCWEEES5_NS7_5utils11PointerHashIS3_EEN14dense_hash_mapIS5_S9_SD_NS5_14EqualsComparerINS0_8equal_toIS4_EEEENS0_9allocatorISA_EEE9SelectKeyESI_SK_E5eraseE30dense_hashtable_const_iteratorISA_S5_SD_SM_SI_SK_E
bKg:_Hashtable__ctor_m1684344284
HA:__ZThn152_NK26AnimatorControllerPlayable41GetStateMachineBehaviourVectorDescriptionEv
Izg:_Activator_CheckAbstractType_m2015247896
fbg:_RSACryptoServiceProvider_ImportParameters_m614616705
B3i:_SslHandshakeHash_CreateSignature_m1634235041
Fcf:_ShimEnumerator_get_Current_m3504536618_gshared
hra:__ZN9Scripting11UnityEngine21AttributeHelperEngine9InitProxyEv
JTc:__ZN27PerformanceReportingManager29CheckForTargetFrameRateChangeEv
BSf:_LayoutRebuilder_U3CRebuildU3Em__3_m523803689
VR:__ZN11AudioSource8TransferI14SafeBinaryReadEEvRT_
gWg:_FileNotFoundException__ctor_m2477162036
fxh:_EqualityComparer_1__cctor_m149356781_gshared
hZc:__ZNSt3__26__treeINS_12__value_typeIN20TextRenderingPrivate7FontRefEP11FT_FaceRec_EENS_19__map_value_compareIS3_S6_NS_4lessIS3_EELb1EEENS_9allocatorIS6_EEE25__emplace_unique_key_argsIS3_JRKNS_21piecewise_construct_tENS_5tupleIJRKS3_EEENSI_IJEEEEEENS_4pairINS_15__tree_iteratorIS6_PNS_11__tree_nodeIS6_PvEEiEEbEERKT_DpOT0_
Bx:__ZN7mecanim9animation23TransformDeltasFromClipEiiiRKNS0_18ClipMuscleConstantERKNS0_12ClipBindingsERKNS_14ValueArrayMaskERN4math4trsXESC_SC_
ZBb:__Z18Transfer_BlittableI18StreamedBinaryReadILb0EELb0E12PropertyNameEvRK29SerializationCommandArgumentsR31RuntimeSerializationCommandInfo
brk:___divdi3
Cic:__ZN9ShaderLab9IntShader26CreateFromSerializedShaderERKNS_16SerializedShaderERNSt3__26vectorI4PPtrI6ShaderENS4_9allocatorIS8_EEEEbPS7_
eaj:_Match_get_Empty_m2060287462
unb:__ZN19ShaderPropertySheet16SetComputeBufferEN9ShaderLab16FastPropertyNameE15ComputeBufferIDNS_8SetFlagsE
xDf:_U3CInvokeMessageIdSubscribersU3Ec__AnonStorey0_U3CU3Em__0_m444206473
jth:_Dictionary_2_ContainsValue_m256968015_gshared
cbk:__ZNK15dense_hashtableINSt3__24pairIK10KeyWrapperIPK19Il2CppGenericMethodEP10MethodInfoEES6_N6il2cpp8metadata23Il2CppGenericMethodHashEN14dense_hash_mapIS6_S9_SD_NS6_14EqualsComparerINSC_26Il2CppGenericMethodCompareEEENS0_9allocatorISA_EEE9SelectKeyESH_SJ_E5beginEv
OWe:_ArrayReadOnlyList_1_get_Item_m1974867852_gshared
QGd:_Image_AddQuad_m969836764
Slh:_MSCompatUnicodeTable_IsIgnorableNonSpacing_m47098938
EVh:_Collection_1_IsSynchronized_m2655903966_gshared
kSg:_Int32_System_IConvertible_ToSingle_m896140682_AdjustorThunk
A0:__GLOBAL__sub_I_Runtime_Graphics_7_cpp
Fx:__ZN7mecanim21CreateFloatValueArrayEPKNS_18ValueArrayConstantERNS_6memory9AllocatorE
T6b:__ZL12CullGroupJobP20CullingGroupsJobDataj
ofk:_GC_remove_dangling_disappearing_links
z_:__ZN11UnityEngine15CloudWebService14RestDownloader9IsAbortedEv
QA:__ZN7mecanim12statemachine28DestroyStateMachineWorkspaceEPNS0_21StateMachineWorkspaceERNS_6memory9AllocatorE
SJc:__Z30GUIStyle_CUSTOM_SetDefaultFontP12Il2CppObject
ho:FUNCTION_TABLE_f
Uo:FUNCTION_TABLE_i
ddj:_AnchorInfo_get_Position_m1133366486
gZg:_StreamReader_FindNextEOL_m2574298119
iga:__ZN11TypeManager12RegisterTypeERK20TypeRegistrationDesc
LJ:__ZL44__ManagedRegistrationHelperFunction_PoseDataPv
xn:FUNCTION_TABLE_v
P$a:__ZNSt3__26vectorI17BlendShapeChannelNS_9allocatorIS1_EEE8__appendEj
TVb:__ZZ23InitPlayerLoopCallbacksvEN43PostLateUpdateUpdateAllRenderersRegistrator7ForwardEv
a7a:__ZN21LightProbeProxyVolume13GetRenderDataER27LightProbeProxyVolumeSample
cSd:_Context_get_ContextProperties_m3283598326
b0i:_Collection_1_System_Collections_IList_set_Item_m4249768453_gshared
Yuj:_Keyboard_PlayRandomSound_m629210842
y1a:__ZN11TimeManager8TransferI24GenerateTypeTreeTransferEEvRT_
pcf:_KeyCollection_System_Collections_ICollection_get_SyncRoot_m3900096134_gshared
wMc:__ZN8JSONRead8TransferItEEvRT_PKc17TransferMetaFlagsb
nC:__ZNK11UnityEngine9Animation28GenericAnimationBindingCache10BindCustomERKNS0_14GenericBindingER9TransformRNS0_10BoundCurveE
WUj:__ZN6il2cpp2vm17TypeNameParseInfoC2ERKS1_
fmd:__ZN18UnityConnectClient17InitConnectClientEv
ymk:_memcmp
bnd:__ZN22UnityAnalyticsSettings5ResetEv
Rwe:__ZL57GUILayoutEntry_t3214611570_CustomAttributesCacheGeneratorP21CustomAttributesCache
dld:__ZN11UnityEngine7Connect18ConnectSessionInfo8TransferER9JSONWrite
KU:__Z74Register_UnityEngine_AudioListener_INTERNAL_CALL_ReadExtensionPropertyNamev
JGi:_Array_InternalArray__set_Item_TisHitInfo_t3229609740_m1576844560_gshared
aba:__ZN9Scripting32GetCachedPtrFromScriptingWrapperE18ScriptingObjectPtr
vag:_SslClientStream_OnBeginNegotiateHandshake_m3734240069
Yfd:__ZN2UI29ScheduleUIJobsForInstructionsERNS_7BatchesEjPKNS_13UIInstructionEfjjPNS_13CanvasJobDataE
DP:__ZN5audio5mixer22CreateAudioMixerMemoryERKNS0_18AudioMixerConstantEPN4FMOD6SystemERN7mecanim6memory9AllocatorEib
vKi:_LayoutGroup_SetProperty_TisInt32_t2950945753_m3911895589_gshared
ulf:_BinaryFormatter__ctor_m971003555
etk:dynCall_iiid
Yei:__Z121RuntimeInvoker_Void_t1185182177_Int32_t2950945753_Int32_t2950945753_Int32_t2950945753_SByte_t1669577662_SByte_t1669577662PFvvEPK10MethodInfoPvPS4_
ftk:dynCall_iiif
zmi:__Z52RuntimeInvoker_Single_t1397266774_Single_t1397266774PFvvEPK10MethodInfoPvPS4_
fhh:_Array_IndexOf_TisRuntimeObject_m828474689_gshared
Usc:__ZZL31RegisterRectTransformPropertiesR22GenericPropertyBindingEN32Wrapper_RectTransformAnchorMiny113GetFloatValueEPv
THg:_FixedSizeArrayListWrapper_InsertRange_m1706982628
hTh:_UIntPtr_ToString_m984583492_AdjustorThunk
qJb:__ZL20ShaderWarmupFuncImplP6ShaderiPN9ShaderLab4PassERK16ShaderKeywordSetP10DynamicVBOPvR17ShaderPassContext
qKb:__ZN13GfxDeviceGLESC2E10MemLabelId
uvj:_TextGenerationSettings_Equals_m3618607189
KFj:__ZN15dense_hashtableI10KeyWrapperIPK17Il2CppGenericInstES4_N6il2cpp8metadata21Il2CppGenericInstHashEN14dense_hash_setIS4_S7_NS4_14EqualsComparerINS6_24Il2CppGenericInstCompareEEENSt3__29allocatorIS4_EEE8IdentityESB_SE_E6insertERKS4_
FNj:__ZN15dense_hashtableINSt3__24pairIK10KeyWrapperINS1_IPK14Il2CppAssemblyP11Il2CppClassEEEjEES9_17ReflectionMapHashIS8_EN14dense_hash_mapIS9_jSD_NS9_14EqualsComparerINS0_8equal_toIS8_EEEENS0_9allocatorISB_EEE9SelectKeyESI_SK_E3endEv
dLe:_MonoEnumInfo_get_enum_info_m1661176095
Dgj:_GUIUtility_CheckOnGUI_m3924092168
rPb:__ZN14DataBufferGLES12RecordUpdateEv
eZc:__ZN20TextRenderingPrivate15DynamicFontData28GetFaceForFontRefFromOSFontsERKNS_7FontRefE
oEc:__Z34MonoBehaviour_CUSTOM_StopCoroutineP12Il2CppObjectP12Il2CppString
Zig:_String_Remove_m562998446
UFf:_Ray_GetPoint_m1852405345
M6j:__ZN6il2cpp2vm12GenericClass12SetupMethodsEP11Il2CppClass
gka:__ZL50__ManagedRegistrationHelperFunction_AnimationCurvePv
Qcb:__ZNK20LocalFileSystemPosix18GetApplicationPathEv
FVi:_List_1_set_Item_m658432263_gshared
uFb:__ZN9Scripting30IsSystemCollectionsGenericListE17ScriptingClassPtr
oid:__Z39CustomEventData_CUSTOM_Internal_DestroyPv
XCf:_PlayerEditorConnectionEvents_AddAndCreate_m3046878154
Grd:__ZN9Scripting11UnityEngine12Experimental2XR14PlaneAlignment9InitProxyEv
auh:_Dictionary_2_Add_m1279427033_gshared
iKc:__Z14GetDefaultSkini
Ifd:__ZN2UI23InitializeCanvasManagerEv
swa:__ZN10GameObject16CheckConsistencyEv
dwd:_PointerInputModule_GetMousePointerEventData_m4273240034
wvc:__ZN14RenderSettings15InitializeClassEv
$xd:_AspectRatioFitter_set_aspectMode_m4140288987
Mnc:__Z46Register_UnityEngine_GameObject_get_activeSelfv
jPa:__ZL35stbir__resample_horizontal_upsampleP11stbir__infoPf
QEi:__Z82RuntimeInvoker_RuntimeObject_RaycastResult_t3360306849_RuntimeObject_RuntimeObjectPFvvEPK10MethodInfoPvPS4_
qXi:_Enumerator__ctor_m3419056812_AdjustorThunk
l2e:_InternalEnumerator_1_System_Collections_IEnumerator_get_Current_m1299775605_gshared
bFg:_Byte_ToString_m2335342258
zmg:_DictionaryNodeEnumerator_Reset_m2226320064
Brk:dynCall_iifii
Ibd:__ZN2UI16GetCanvasManagerEv
mnd:__ZN11UnityEngine9Analytics22EventLimitReachedEventD2Ev
lBc:__ZN15GUIEventManager8PopEventER10InputEvent
Vnc:__Z31RectOffset_Get_Custom_PropRightP12Il2CppObject
I9c:__Z54Register_UnityEngine_TextGenerator_GetVerticesInternalv
Bhd:__ZNSt3__26__treeINS_12__value_typeIN4core12basic_stringIcNS2_20StringStorageDefaultIcEEEEN11UnityEngine9Analytics15UserCustomEvent11CustomValueEEENS_19__map_value_compareIS6_SB_NS_4lessIS6_EELb1EEE13stl_allocatorISB_L18MemLabelIdentifier6ELi16EEE25__emplace_unique_key_argsIS6_JRKNS_21piecewise_construct_tENS_5tupleIJOS6_EEENSO_IJEEEEEENS_4pairINS_15__tree_iteratorISB_PNS_11__tree_nodeISB_PvEEiEEbEERKT_DpOT0_
Hig:__Z3BoxP11Il2CppClassPv
Lzf:_Input_get_touchSupported_m1480684970
UR:__ZN20SoundChannelInstance9isPlayingEPb
sCf:_MonoBehaviour_StartCoroutine_m3411253000
fTb:__ZN21UniformBufferTFMethodD2Ev
d6a:__ZN18LoadSceneOperation21PostLoadSceneAdditiveEv
L1e:_InternalEnumerator_1_System_Collections_IEnumerator_get_Current_m1096730143_AdjustorThunk
P7b:__Z36CreateScriptingArrayFromUnityObjectsI13dynamic_arrayIP6CameraLj0EEE17ScriptingArrayPtrRKT_17ScriptingClassPtr
Wfe:__ZL74AssetFileNameExtensionAttribute_t1361241164_CustomAttributesCacheGeneratorP21CustomAttributesCache
Smc:__ZL34GetComponentsImplementationRecurseILb1ELi1ELi2EEbR10GameObjectbRK17CompareParametersRK39GetComponentsImplementation_ReturnValue
_ia:__ZN6prcoreL12RemapGenericI15TexFormatRGB56515TexFormatRGB888EEvPKNS_9InnerInfoE
hPf:_InputField_MoveTextEnd_m2392516920
iik:__ZN6il2cpp5utils10MemoryPool9AddRegionEj
urg:_X509Certificate2__ctor_m3336405942
KEd:_Graphic_get_workerMesh_m997382591
sJc:__ZN13dynamic_arrayI7GUIClipLj0EE9push_backERKS0_
WEc:__Z38PlayableHandle_CUSTOM_IsValid_InjectedP9HPlayable
gYj:__ZNSt3__214__split_bufferIP12Il2CppThreadRN6il2cpp2gc9AllocatorIS2_EEED2Ev
Qgd:__ZN5Umbra16FileOutputStreamD0Ev
ZAg:_Array_System_Collections_IList_RemoveAt_m41405158
wui:__Z64RuntimeInvoker_Boolean_t97287965_RuntimeObject_Int64_t3736567304PFvvEPK10MethodInfoPvPS4_
NGc:__Z52Register_UnityEngine_Object_FindObjectFromInstanceIDv
Mdd:__Z41CanvasGroup_Get_Custom_PropBlocksRaycastsP12Il2CppObject
fdk:__ZN6il2cpp2os11Environment17GetProcessorCountEv
vec:__ZNSt3__26vectorIN9ShaderLab26SerializedShaderDependencyENS_9allocatorIS2_EEE8__appendEj
Taa:__ZN32TransformHierarchyChangeDispatch26DispatchSelfAndAllChildrenE15TransformAccessNS_12InterestTypeE
QU:__Z46Register_UnityEngine_AudioSource_get_isPlayingv
ckd:__ZN11UnityEngine15PlatformWrapper21GetVRDeviceMirrorModeEv
Dtd:_EventSystem_OnEnable_m3237278246
mca:__ZN13RuntimeStaticI22VirtualJoystickManagerLb0EE13StaticDestroyEPv
tvg:_Interpreter_Balance_m1978770534
oM:__ZN13AudioListener12ApplyFiltersEv
Ana:__ZN9Scripting11UnityEngine9Rendering8GPUFence12CleanupProxyEv
Hrd:__ZN9Scripting11UnityEngine12Experimental2XR14PlaneAlignment12CleanupProxyEv
NVi:_List_1_System_Collections_IList_Contains_m353431064_gshared
roj:_AudioConfigurationChangeHandler_BeginInvoke_m4104069447
Rjk:__ZN6il2cpp8metadata27Il2CppGenericContextCompare7CompareEPK20Il2CppGenericContextS4_
hsk:dynCall_viiii
Foi:__Z243RuntimeInvoker_Void_t1185182177_Int16_t2552820387_RuntimeObject_Int32_t2950945753_Int32_t2950945753_Int32_t2950945753_SByte_t1669577662_SByte_t1669577662_SByte_t1669577662_SByte_t1669577662_Int16_t2552820387_SByte_t1669577662_SByte_t1669577662PFvvEPK10MethodInfoPvPS4_
PMg:_CompareInfo_IsPrefix_m796715920
kBj:__ZNK15dense_hashtableINSt3__24pairIK10KeyWrapperIPK22Il2CppGenericParameterEP11Il2CppClassEES6_N6il2cpp5utils11PointerHashIS4_EEN14dense_hash_mapIS6_S9_SE_NS6_14EqualsComparerINS0_8equal_toIS5_EEEENS0_9allocatorISA_EEE9SelectKeyESJ_SL_E23find_position_with_hashERS7_j
A0f:_PrimalityTest_Invoke_m2948246884
dYb:__Z11CopyTextureP7TextureiiS0_ii
Sye:__ZL65EventTrigger_t1076084509_CustomAttributesCacheGenerator_delegatesP21CustomAttributesCache
_Uj:__ZNSt3__214__split_bufferIN6il2cpp2vm17TypeNameParseInfoERNS_9allocatorIS3_EEED2Ev
FNb:__ZThn10632_N13GfxDeviceGLES26EnableScissorRectsPlatformEv
RUi:_List_1_System_Collections_IList_Contains_m3717811284_gshared
OKd:_MonoEvent_get_Attributes_m3048829315
rfa:__ZN15DirectorManager14ConnectionPool16GrowEmptyBucketsEv
kJg:_CaseInsensitiveHashCodeProvider_AreEqual_m3534448780
E6:__ZN17PersistentManager32CopyToAwakeFromLoadQueueInternalER18AwakeFromLoadQueue
soi:__Z104RuntimeInvoker_Boolean_t97287965_Int32_t2950945753_Int64U5BU5DU26_t194432655_StringU5BU5DU26_t2154486980PFvvEPK10MethodInfoPvPS4_
vni:__Z106RuntimeInvoker_RuntimeObject_Int16_t2552820387_RuntimeObject_BooleanU26_t4125257963_BooleanU26_t4125257963PFvvEPK10MethodInfoPvPS4_
JXb:__ZNK6Camera16SetActiveVRUsageEv
LVf:_Scrollbar_set_handleRect_m1170237786
tQc:__ZL26Transfer_SimpleNativeClassI8JSONRead8GradientLb1EEvRK29SerializationCommandArgumentsR31RuntimeSerializationCommandInfo
$mk:_open
_8i:_X509CrlEntry_get_SerialNumber_m3627212772
I$j:__ZN6il2cpp6icalls8mscorlib6System5Array5CloneEP11Il2CppArray
uac:__Z30GetPlayerShouldRunInBackgroundv
ZAf:_Mathf__cctor_m1175545152
VKd:_MonoEvent_IsDefined_m10931749
zng:_NameValueCollection_AsSingleString_m3776180906
Uia:__ZN6prcoreL12RemapGenericI11TexFormatI815TexFormatRGB565EEvPKNS_9InnerInfoE
fSg:_Int32_System_IConvertible_ToInt64_m3520470966
hAc:__ZN16StreamedResource8TransferI19StreamedBinaryWriteILb0EEEEvRT_
MKb:__ZNK13TranslateGLES17FramebufferTargetEN2gl17FramebufferTargetE
y8j:__ZL11on_gc_event11GCEventType
F2e:_InternalEnumerator_1_System_Collections_IEnumerator_get_Current_m1612699335_gshared
p6f:_TlsServerHello__ctor_m3887266572
ued:__ZN13dynamic_arrayIN2UI8UIVertexELj0EEC2Ej10MemLabelId
twk:b62
swk:b61
pwk:b60
Ixk:b67
Hxk:b66
Gxk:b65
Nxk:b69
P9i:_Enumerator_get_Current_m359737019
Vza:__ZNSt3__26__treeINS_12__value_typeIi17ShadowCachingDataEENS_19__map_value_compareIiS3_NS_4lessIiEELb1EEE13stl_allocatorIS3_L18MemLabelIdentifier66ELi16EEE7destroyEPNS_11__tree_nodeIS3_PvEE
mDg:_BitConverter_ToInt64_m349022421
wBc:__Z9SetIIMGUIP6IIMGUI
eRi:_List_1_System_Collections_IList_Add_m1142950911_gshared
Uwi:__Z68RuntimeInvoker_Boolean_t97287965_Double_t594665363_Double_t594665363PFvvEPK10MethodInfoPvPS4_
Y4c:_tt_cmap10_get_info
QHb:__Z28SetupPixelCorrectCoordinatesi
VOb:__Z5SplitRKN4core12basic_stringIcNS_20StringStorageDefaultIcEEEEcRNSt3__26vectorIS3_NS6_9allocatorIS3_EEEEi
vFj:__ZN15dense_hashtableI10KeyWrapperIPK19Il2CppGenericMethodES4_N6il2cpp8metadata23Il2CppGenericMethodHashEN14dense_hash_setIS4_S7_NS4_14EqualsComparerINS6_26Il2CppGenericMethodCompareEEENSt3__29allocatorIS4_EEE8IdentityESB_SE_E9copy_fromERKSH_j
grh:_PKCS1_Sign_v15_m2719206817
Fjj:_AesTransform__ctor_m3143546745
R8h:_UnityAction_1_Invoke_m2929687399_gshared
Tdh:_Array_InternalArray__ICollection_Remove_TisRuntimeObject_m2110193223_gshared
fve:__ZL64EventType_t3528516131_CustomAttributesCacheGenerator_scrollWheelP21CustomAttributesCache
jua:__ZN24GenerateTypeTreeTransfer10SetVersionEi
MBf:_Mesh_SetTangents_m1615111656
Qzc:__ZN13PlayableGraph16DestroyRecursiveEP8Playable
j0j:__ZN6il2cpp2vm9Exception20GetArgumentExceptionERKNS_5utils10StringViewIDsEES6_
$Wa:__ZNSt3__26vectorI13dynamic_arrayI8Vector2fLj0EENS_9allocatorIS3_EEE7reserveEj
JCf:_PlayerEditorConnectionEvents__ctor_m3177489832
gVd:_MethodCallDictionary__cctor_m2213329406
UL:__ZN12AudioManagerD0Ev
cOf:_InputField_set_textComponent_m2547304131
a3a:__Z13ConvertPixelsPKh13TextureFormatPhS1_j
gkk:__ZN6il2cpp5utils35RegisterRuntimeInitializeAndCleanupC2EPFvvES3_i
vmh:_SortKeyBuffer_Initialize_m3786111493
mLi:_Array_InternalArray__get_Item_TisX509ChainStatus_t133602714_m2237651489_gshared
AGe:__ZL58IVertexModifier_t3404627876_CustomAttributesCacheGeneratorP21CustomAttributesCache
K3a:__ZNK22GenericPropertyBinding13SetFloatValueERKN11UnityEngine9Animation10BoundCurveEf
iLf:_Transform_GetEnumerator_m2717073726
Llg:_Encoding__cctor_m1936558127
TSi:_List_1__ctor_m163821521_gshared
JEe:__ZL90StencilMaterial_t3850132571_CustomAttributesCacheGenerator_StencilMaterial_Add_m3183845017P21CustomAttributesCache
sFf:_QualitySettings_set_vSyncCount_m3131636076
_dg:_X509Certificate_get_Subject_m2638144878
HZc:_raccess_guess_darwin_ufs_export
htf:_AsyncOperation_Finalize_m1841265672
mVb:__ZN11TypeManager18InitializeAllTypesEv
lqa:__ZN9Scripting11UnityEngine16DiagnosticSwitch9InitProxyEv
FNf:_InputField_MarkGeometryAsDirty_m817808086
_Rf:_LayoutGroup_get_isRootLayoutGroup_m1082645254
pS:__ZN9AudioClipD0Ev
jWj:_il2cpp_class_from_name
KUf:_RectMask2D_OnDisable_m809267607
Yx:__ZN17AnimationPlayable16AllocateBindingsEPK35AnimationPlayableEvaluationConstant
gXi:_Queue_1__ctor_m1971992302_gshared
vz:__ZN27AnimationLayerMixerPlayable26ProcessAnimationLayerBeginEP35AnimationPlayableEvaluationConstantP32AnimationPlayableEvaluationInputP33AnimationPlayableEvaluationOutput
BLe:_MonoType_GetEvent_m28975240
RQb:__ZN14GfxContextGLES11MakeCurrentER7ApiGLESN2gl13ContextHandleE
TWg:_MonoIO_Write_m3999708352
wtk:dynCall_viffffi
btc:__ZZL31RegisterRectTransformPropertiesR22GenericPropertyBindingEN32Wrapper_RectTransformSizeDeltay113SetFloatValueEPvf
Tjh:_Array_InternalArray__ICollection_CopyTo_TisChar_t3634460470_m3599063464_gshared
wKh:_UTF7Encoding_InternalGetChars_m2722395139
K0g:_DateTime_get_Today_m2788644320
nJb:__ZN16GraphicsSettings22WarmupPreloadedShadersEv
Zcd:__Z34Canvas_Set_Custom_PropSortingOrderP12Il2CppObjecti
tof:_SByte_System_IConvertible_ToSingle_m1083054891
A9i:_CostDelegate_Invoke_m898648402
pKh:_UTF7Encoding_Equals_m227704363
Mwf:_DisplaysUpdatedDelegate_Invoke_m3203573844
Qic:__ZN9ShaderLab4Pass6RetainEv
zqh:_KeyPairPersistence_get_ContainerName_m4274536094
ky:__ZN7mecanim9animation22CopyAnimationNodeStateEPKNS0_18AnimationNodeStateEPS1_bbRKNS_6bitsetILj83EEE
Ya:invoke_iiiiiiffiiiiiiiiiffffiii
WGf:_Rect_op_Equality_m3986168348
spd:__ZN20UnityWebRequestProtoI24UnityWebRequestTransport16AtomicRefCounter14RedirectHelper14ResponseHelper15DownloadHandler13UploadHandler18CertificateHandler12HeaderHelper14AsyncOperationE25Job_RedirectTo_MainThreadEPS9_
Ghh:_Array_InternalArray__IndexOf_TisSlot_t384495010_m3224390719_gshared
P9e:_Enumerator_System_Collections_IDictionaryEnumerator_get_Key_m4039922590_AdjustorThunk
mcd:__ZN2UI6Canvas8TransferI14SafeBinaryReadEEvRT_
ROj:__ZN6il2cpp2gc19AppendOnlyGCHashMapIPK10Il2CppTypeP20Il2CppReflectionTypeNS_8metadata14Il2CppTypeHashENS7_26Il2CppTypeEqualityComparerEE3AddERKS4_S6_
PX:__ZN11UnityEngine15CloudWebService17CloudJobScheduler11ScheduleJobEPFvPvES2_
PK:__ZN13RuntimeStaticINSt3__23mapIjP19AudioSampleProviderNS0_4lessIjEE13stl_allocatorINS0_4pairIKjS3_EEL18MemLabelIdentifier27ELi16EEEELb0EE13StaticDestroyEPv
MY:__ZN11UnityEngine15CloudWebService17CloudServiceEvent12ToJsonStringER9JSONWrite
P5f:_TlsClientHello__ctor_m1986768336
uMd:_MonoProperty_GetCustomAttributes_m2723308902
Pca:__ZNK18VertexChannelsInfoltERKS_
Spi:__Z89RuntimeInvoker_Boolean_t97287965_Int32_t2950945753_Int32U26_t1369213839_Int32_t2950945753PFvvEPK10MethodInfoPvPS4_
ypc:__Z18SetTargetFrameRatei
hFg:_Char_System_IConvertible_ToType_m4138905176_AdjustorThunk
rMc:__ZN9JSONWrite8TransferIfEEvRT_PKc17TransferMetaFlags
F7g:_DBNull_System_IConvertible_ToUInt16_m643477279
mfb:__ZN10MemoryFileD0Ev
OUh:_Collection_1_SetItem_m774004841_gshared
azj:_Analytics_GetUnityAnalyticsHandler_m2772482435
gak:__ZN6il2cpp2os10ThreadImpl22SetNativeThreadCleanupEPFvPvE
Y6g:_DateTimeOffset__cctor_m3610253033
OEg:_Byte_CompareTo_m4285128861_AdjustorThunk
LRd:_ConfigHandler_ExtractAssembly_m2143791058
e5j:__ZN6il2cpp8metadataL24RecursiveGenericDepthForEPK17Il2CppGenericInst
kLf:_Transform_GetChild_m1092972975
jqb:__ZN13GUIStyleState8TransferI14SafeBinaryReadEEvRT_
Ld:_glDrawArrays
tX:__ZN9Scripting11UnityEngine23ClothSphereColliderPair12CleanupProxyEv
ooj:_AudioSource_get_clip_m1234340632
kOd:_ResourceCacheItem_t51292791_marshal_pinvoke_back
rmb:__ZNSt3__26vectorIN20GpuProgramParameters15StructParameterENS_9allocatorIS2_EEE21__push_back_slow_pathIS2_EEvOT_
Bdd:__Z46Register_UnityEngine_Canvas_set_sortingLayerIDv
Tt:__ZN23AnimatedPropertyBuilder5BuildEP13AnimationClip18ScriptingObjectPtr
oPc:__ZN9JSONWrite8TransferI13dynamic_arrayI8Vector3fLj0EEEEvRT_PKc17TransferMetaFlags
d0a:__ZN14BlendShapeData8TransferI18StreamedBinaryReadILb0EEEEvRT_
F6c:_Round_To_Grid
mZc:_UNITY_FT_Stream_Close
Vtd:_EventTrigger_OnPointerClick_m1385968891
cSh:_UInt32_ToString_m4293943134_AdjustorThunk
rIf:_Renderer_get_sortingLayerID_m3902855301
Bwg:_Interval_CompareTo_m3282557545_AdjustorThunk
q7e:_Comparer_1__cctor_m1018589532_gshared
E8c:_pshinter_get_globals_funcs
Lga:__ZL20FormatOrderedProcessPKcP17FormatOrderedDataPc
rkh:_Array_InternalArray__ICollection_CopyTo_TisResourceCacheItem_t51292791_m766230259_gshared
Ikg:_Decoder_set_Fallback_m3834517714
QDc:__Z35DebugLogHandler_CUSTOM_Internal_Log7LogTypeP12Il2CppStringP12Il2CppObject
mwk:_emscripten_glShaderBinary__wrapper
sQb:__ZL17ProgramUniform3ivPK7ApiGLESjiihPKv
IGg:_ArrayList_Shift_m395607654
qib:__ZN9GfxDevice25GetBackBufferColorSurfaceEv
xxa:__ZN23TransformChangeDispatch37InitTransformHierarchyTRSChangedMasksER18TransformHierarchy
